Archive member included to satisfy reference by file (symbol)

/opt/gcc-arm-none-eabi-7-2018-q2-update/bin/../lib/gcc/arm-none-eabi/7.3.1/thumb/v6-m/libgcc.a(_udivsi3.o)
                              build/py/gc.o (__aeabi_uidiv)
/opt/gcc-arm-none-eabi-7-2018-q2-update/bin/../lib/gcc/arm-none-eabi/7.3.1/thumb/v6-m/libgcc.a(_divsi3.o)
                              build/py/formatfloat.o (__aeabi_idiv)
/opt/gcc-arm-none-eabi-7-2018-q2-update/bin/../lib/gcc/arm-none-eabi/7.3.1/thumb/v6-m/libgcc.a(_dvmd_tls.o)
                              /opt/gcc-arm-none-eabi-7-2018-q2-update/bin/../lib/gcc/arm-none-eabi/7.3.1/thumb/v6-m/libgcc.a(_udivsi3.o) (__aeabi_idiv0)
/opt/gcc-arm-none-eabi-7-2018-q2-update/bin/../lib/gcc/arm-none-eabi/7.3.1/thumb/v6-m/libgcc.a(_arm_cmpdf2.o)
                              build/lib/mpack/mpack-expect.o (__aeabi_dcmplt)
/opt/gcc-arm-none-eabi-7-2018-q2-update/bin/../lib/gcc/arm-none-eabi/7.3.1/thumb/v6-m/libgcc.a(_arm_cmpsf2.o)
                              build/py/objcomplex.o (__aeabi_fcmpeq)
/opt/gcc-arm-none-eabi-7-2018-q2-update/bin/../lib/gcc/arm-none-eabi/7.3.1/thumb/v6-m/libgcc.a(_fixunssfsi.o)
                              build/extmod/utime_mphal.o (__aeabi_f2uiz)
/opt/gcc-arm-none-eabi-7-2018-q2-update/bin/../lib/gcc/arm-none-eabi/7.3.1/thumb/v6-m/libgcc.a(_floatdisf.o)
                              build/lib/mpack/mpack-expect.o (__aeabi_l2f)
/opt/gcc-arm-none-eabi-7-2018-q2-update/bin/../lib/gcc/arm-none-eabi/7.3.1/thumb/v6-m/libgcc.a(_floatdidf.o)
                              build/lib/mpack/mpack-expect.o (__aeabi_l2d)
/opt/gcc-arm-none-eabi-7-2018-q2-update/bin/../lib/gcc/arm-none-eabi/7.3.1/thumb/v6-m/libgcc.a(_floatundisf.o)
                              build/lib/mpack/mpack-expect.o (__aeabi_ul2f)
/opt/gcc-arm-none-eabi-7-2018-q2-update/bin/../lib/gcc/arm-none-eabi/7.3.1/thumb/v6-m/libgcc.a(_floatundidf.o)
                              build/lib/mpack/mpack-expect.o (__aeabi_ul2d)
/opt/gcc-arm-none-eabi-7-2018-q2-update/bin/../lib/gcc/arm-none-eabi/7.3.1/thumb/v6-m/libgcc.a(addsf3.o)
                              build/py/mpz.o (__aeabi_fadd)
/opt/gcc-arm-none-eabi-7-2018-q2-update/bin/../lib/gcc/arm-none-eabi/7.3.1/thumb/v6-m/libgcc.a(divsf3.o)
                              build/py/parsenum.o (__aeabi_fdiv)
/opt/gcc-arm-none-eabi-7-2018-q2-update/bin/../lib/gcc/arm-none-eabi/7.3.1/thumb/v6-m/libgcc.a(eqsf2.o)
                              /opt/gcc-arm-none-eabi-7-2018-q2-update/bin/../lib/gcc/arm-none-eabi/7.3.1/thumb/v6-m/libgcc.a(_arm_cmpsf2.o) (__eqsf2)
/opt/gcc-arm-none-eabi-7-2018-q2-update/bin/../lib/gcc/arm-none-eabi/7.3.1/thumb/v6-m/libgcc.a(gesf2.o)
                              /opt/gcc-arm-none-eabi-7-2018-q2-update/bin/../lib/gcc/arm-none-eabi/7.3.1/thumb/v6-m/libgcc.a(_arm_cmpsf2.o) (__gesf2)
/opt/gcc-arm-none-eabi-7-2018-q2-update/bin/../lib/gcc/arm-none-eabi/7.3.1/thumb/v6-m/libgcc.a(lesf2.o)
                              /opt/gcc-arm-none-eabi-7-2018-q2-update/bin/../lib/gcc/arm-none-eabi/7.3.1/thumb/v6-m/libgcc.a(_arm_cmpsf2.o) (__lesf2)
/opt/gcc-arm-none-eabi-7-2018-q2-update/bin/../lib/gcc/arm-none-eabi/7.3.1/thumb/v6-m/libgcc.a(mulsf3.o)
                              build/py/mpz.o (__aeabi_fmul)
/opt/gcc-arm-none-eabi-7-2018-q2-update/bin/../lib/gcc/arm-none-eabi/7.3.1/thumb/v6-m/libgcc.a(subsf3.o)
                              build/py/formatfloat.o (__aeabi_fsub)
/opt/gcc-arm-none-eabi-7-2018-q2-update/bin/../lib/gcc/arm-none-eabi/7.3.1/thumb/v6-m/libgcc.a(unordsf2.o)
                              build/py/formatfloat.o (__aeabi_fcmpun)
/opt/gcc-arm-none-eabi-7-2018-q2-update/bin/../lib/gcc/arm-none-eabi/7.3.1/thumb/v6-m/libgcc.a(fixsfsi.o)
                              build/py/formatfloat.o (__aeabi_f2iz)
/opt/gcc-arm-none-eabi-7-2018-q2-update/bin/../lib/gcc/arm-none-eabi/7.3.1/thumb/v6-m/libgcc.a(floatsisf.o)
                              build/py/mpz.o (__aeabi_i2f)
/opt/gcc-arm-none-eabi-7-2018-q2-update/bin/../lib/gcc/arm-none-eabi/7.3.1/thumb/v6-m/libgcc.a(floatunsisf.o)
                              build/py/parsenum.o (__aeabi_ui2f)
/opt/gcc-arm-none-eabi-7-2018-q2-update/bin/../lib/gcc/arm-none-eabi/7.3.1/thumb/v6-m/libgcc.a(adddf3.o)
                              /opt/gcc-arm-none-eabi-7-2018-q2-update/bin/../lib/gcc/arm-none-eabi/7.3.1/thumb/v6-m/libgcc.a(_floatdisf.o) (__aeabi_dadd)
/opt/gcc-arm-none-eabi-7-2018-q2-update/bin/../lib/gcc/arm-none-eabi/7.3.1/thumb/v6-m/libgcc.a(eqdf2.o)
                              /opt/gcc-arm-none-eabi-7-2018-q2-update/bin/../lib/gcc/arm-none-eabi/7.3.1/thumb/v6-m/libgcc.a(_arm_cmpdf2.o) (__eqdf2)
/opt/gcc-arm-none-eabi-7-2018-q2-update/bin/../lib/gcc/arm-none-eabi/7.3.1/thumb/v6-m/libgcc.a(gedf2.o)
                              /opt/gcc-arm-none-eabi-7-2018-q2-update/bin/../lib/gcc/arm-none-eabi/7.3.1/thumb/v6-m/libgcc.a(_arm_cmpdf2.o) (__gedf2)
/opt/gcc-arm-none-eabi-7-2018-q2-update/bin/../lib/gcc/arm-none-eabi/7.3.1/thumb/v6-m/libgcc.a(ledf2.o)
                              /opt/gcc-arm-none-eabi-7-2018-q2-update/bin/../lib/gcc/arm-none-eabi/7.3.1/thumb/v6-m/libgcc.a(_arm_cmpdf2.o) (__ledf2)
/opt/gcc-arm-none-eabi-7-2018-q2-update/bin/../lib/gcc/arm-none-eabi/7.3.1/thumb/v6-m/libgcc.a(muldf3.o)
                              /opt/gcc-arm-none-eabi-7-2018-q2-update/bin/../lib/gcc/arm-none-eabi/7.3.1/thumb/v6-m/libgcc.a(_floatdisf.o) (__aeabi_dmul)
/opt/gcc-arm-none-eabi-7-2018-q2-update/bin/../lib/gcc/arm-none-eabi/7.3.1/thumb/v6-m/libgcc.a(floatsidf.o)
                              build/py/binary.o (__aeabi_i2d)
/opt/gcc-arm-none-eabi-7-2018-q2-update/bin/../lib/gcc/arm-none-eabi/7.3.1/thumb/v6-m/libgcc.a(floatunsidf.o)
                              /opt/gcc-arm-none-eabi-7-2018-q2-update/bin/../lib/gcc/arm-none-eabi/7.3.1/thumb/v6-m/libgcc.a(_floatdisf.o) (__aeabi_ui2d)
/opt/gcc-arm-none-eabi-7-2018-q2-update/bin/../lib/gcc/arm-none-eabi/7.3.1/thumb/v6-m/libgcc.a(extendsfdf2.o)
                              build/py/binary.o (__aeabi_f2d)
/opt/gcc-arm-none-eabi-7-2018-q2-update/bin/../lib/gcc/arm-none-eabi/7.3.1/thumb/v6-m/libgcc.a(truncdfsf2.o)
                              build/py/mpprint.o (__aeabi_d2f)
/opt/gcc-arm-none-eabi-7-2018-q2-update/bin/../lib/gcc/arm-none-eabi/7.3.1/thumb/v6-m/libgcc.a(_clzsi2.o)
                              /opt/gcc-arm-none-eabi-7-2018-q2-update/bin/../lib/gcc/arm-none-eabi/7.3.1/thumb/v6-m/libgcc.a(addsf3.o) (__clzsi2)

Allocating common symbols
Common symbol       size              file

mp_state_ctx        0x324             build/py/mpstate.o
mp_interrupt_char   0x4               build/lib/utils/interrupt_char.o

Discarded input sections

 .text          0x0000000000000000        0x0 build/py/mpstate.o
 .data          0x0000000000000000        0x0 build/py/mpstate.o
 .bss           0x0000000000000000        0x0 build/py/mpstate.o
 .text          0x0000000000000000        0x0 build/py/nlr.o
 .data          0x0000000000000000        0x0 build/py/nlr.o
 .bss           0x0000000000000000        0x0 build/py/nlr.o
 .text          0x0000000000000000        0x0 build/py/nlrx86.o
 .data          0x0000000000000000        0x0 build/py/nlrx86.o
 .bss           0x0000000000000000        0x0 build/py/nlrx86.o
 .comment       0x0000000000000000       0x80 build/py/nlrx86.o
 .ARM.attributes
                0x0000000000000000       0x31 build/py/nlrx86.o
 .text          0x0000000000000000        0x0 build/py/nlrx64.o
 .data          0x0000000000000000        0x0 build/py/nlrx64.o
 .bss           0x0000000000000000        0x0 build/py/nlrx64.o
 .comment       0x0000000000000000       0x80 build/py/nlrx64.o
 .ARM.attributes
                0x0000000000000000       0x31 build/py/nlrx64.o
 .text          0x0000000000000000        0x0 build/py/nlrthumb.o
 .data          0x0000000000000000        0x0 build/py/nlrthumb.o
 .bss           0x0000000000000000        0x0 build/py/nlrthumb.o
 .text          0x0000000000000000        0x0 build/py/nlrxtensa.o
 .data          0x0000000000000000        0x0 build/py/nlrxtensa.o
 .bss           0x0000000000000000        0x0 build/py/nlrxtensa.o
 .comment       0x0000000000000000       0x80 build/py/nlrxtensa.o
 .ARM.attributes
                0x0000000000000000       0x31 build/py/nlrxtensa.o
 .text          0x0000000000000000        0x0 build/py/nlrsetjmp.o
 .data          0x0000000000000000        0x0 build/py/nlrsetjmp.o
 .bss           0x0000000000000000        0x0 build/py/nlrsetjmp.o
 .comment       0x0000000000000000       0x80 build/py/nlrsetjmp.o
 .ARM.attributes
                0x0000000000000000       0x31 build/py/nlrsetjmp.o
 .text          0x0000000000000000        0x0 build/py/malloc.o
 .data          0x0000000000000000        0x0 build/py/malloc.o
 .bss           0x0000000000000000        0x0 build/py/malloc.o
 .text.m_malloc_with_finaliser
                0x0000000000000000       0x40 build/py/malloc.o
 .text          0x0000000000000000        0x0 build/py/gc.o
 .data          0x0000000000000000        0x0 build/py/gc.o
 .bss           0x0000000000000000        0x0 build/py/gc.o
 .text.gc_sweep_all
                0x0000000000000000       0x20 build/py/gc.o
 .text          0x0000000000000000        0x0 build/py/pystack.o
 .data          0x0000000000000000        0x0 build/py/pystack.o
 .bss           0x0000000000000000        0x0 build/py/pystack.o
 .text          0x0000000000000000        0x0 build/py/qstr.o
 .data          0x0000000000000000        0x0 build/py/qstr.o
 .bss           0x0000000000000000        0x0 build/py/qstr.o
 .text          0x0000000000000000        0x0 build/py/vstr.o
 .data          0x0000000000000000        0x0 build/py/vstr.o
 .bss           0x0000000000000000        0x0 build/py/vstr.o
 .text.vstr_hint_size
                0x0000000000000000        0x8 build/py/vstr.o
 .text.vstr_cut_head_bytes
                0x0000000000000000        0xc build/py/vstr.o
 .text.vstr_vprintf
                0x0000000000000000       0x14 build/py/vstr.o
 .text.vstr_printf
                0x0000000000000000       0x16 build/py/vstr.o
 .text          0x0000000000000000        0x0 build/py/mpprint.o
 .data          0x0000000000000000        0x0 build/py/mpprint.o
 .bss           0x0000000000000000        0x0 build/py/mpprint.o
 .text          0x0000000000000000        0x0 build/py/unicode.o
 .data          0x0000000000000000        0x0 build/py/unicode.o
 .bss           0x0000000000000000        0x0 build/py/unicode.o
 .text          0x0000000000000000        0x0 build/py/mpz.o
 .data          0x0000000000000000        0x0 build/py/mpz.o
 .bss           0x0000000000000000        0x0 build/py/mpz.o
 .text.mpz_as_uint_checked
                0x0000000000000000       0x3c build/py/mpz.o
 .text          0x0000000000000000        0x0 build/py/reader.o
 .data          0x0000000000000000        0x0 build/py/reader.o
 .bss           0x0000000000000000        0x0 build/py/reader.o
 .text          0x0000000000000000        0x0 build/py/lexer.o
 .data          0x0000000000000000        0x0 build/py/lexer.o
 .bss           0x0000000000000000        0x0 build/py/lexer.o
 .text.mp_lexer_new_from_fd
                0x0000000000000000       0x1a build/py/lexer.o
 .text          0x0000000000000000        0x0 build/py/parse.o
 .data          0x0000000000000000        0x0 build/py/parse.o
 .bss           0x0000000000000000        0x0 build/py/parse.o
 .text          0x0000000000000000        0x0 build/py/scope.o
 .data          0x0000000000000000        0x0 build/py/scope.o
 .bss           0x0000000000000000        0x0 build/py/scope.o
 .text          0x0000000000000000        0x0 build/py/compile.o
 .data          0x0000000000000000        0x0 build/py/compile.o
 .bss           0x0000000000000000        0x0 build/py/compile.o
 .text          0x0000000000000000        0x0 build/py/emitcommon.o
 .data          0x0000000000000000        0x0 build/py/emitcommon.o
 .bss           0x0000000000000000        0x0 build/py/emitcommon.o
 .text          0x0000000000000000        0x0 build/py/emitbc.o
 .data          0x0000000000000000        0x0 build/py/emitbc.o
 .bss           0x0000000000000000        0x0 build/py/emitbc.o
 .text          0x0000000000000000        0x0 build/py/asmbase.o
 .data          0x0000000000000000        0x0 build/py/asmbase.o
 .bss           0x0000000000000000        0x0 build/py/asmbase.o
 .comment       0x0000000000000000       0x80 build/py/asmbase.o
 .ARM.attributes
                0x0000000000000000       0x31 build/py/asmbase.o
 .text          0x0000000000000000        0x0 build/py/asmx64.o
 .data          0x0000000000000000        0x0 build/py/asmx64.o
 .bss           0x0000000000000000        0x0 build/py/asmx64.o
 .comment       0x0000000000000000       0x80 build/py/asmx64.o
 .ARM.attributes
                0x0000000000000000       0x31 build/py/asmx64.o
 .text          0x0000000000000000        0x0 build/py/emitnx64.o
 .data          0x0000000000000000        0x0 build/py/emitnx64.o
 .bss           0x0000000000000000        0x0 build/py/emitnx64.o
 .comment       0x0000000000000000       0x80 build/py/emitnx64.o
 .ARM.attributes
                0x0000000000000000       0x31 build/py/emitnx64.o
 .text          0x0000000000000000        0x0 build/py/asmx86.o
 .data          0x0000000000000000        0x0 build/py/asmx86.o
 .bss           0x0000000000000000        0x0 build/py/asmx86.o
 .comment       0x0000000000000000       0x80 build/py/asmx86.o
 .ARM.attributes
                0x0000000000000000       0x31 build/py/asmx86.o
 .text          0x0000000000000000        0x0 build/py/emitnx86.o
 .data          0x0000000000000000        0x0 build/py/emitnx86.o
 .bss           0x0000000000000000        0x0 build/py/emitnx86.o
 .comment       0x0000000000000000       0x80 build/py/emitnx86.o
 .ARM.attributes
                0x0000000000000000       0x31 build/py/emitnx86.o
 .text          0x0000000000000000        0x0 build/py/asmthumb.o
 .data          0x0000000000000000        0x0 build/py/asmthumb.o
 .bss           0x0000000000000000        0x0 build/py/asmthumb.o
 .comment       0x0000000000000000       0x80 build/py/asmthumb.o
 .ARM.attributes
                0x0000000000000000       0x31 build/py/asmthumb.o
 .text          0x0000000000000000        0x0 build/py/emitnthumb.o
 .data          0x0000000000000000        0x0 build/py/emitnthumb.o
 .bss           0x0000000000000000        0x0 build/py/emitnthumb.o
 .comment       0x0000000000000000       0x80 build/py/emitnthumb.o
 .ARM.attributes
                0x0000000000000000       0x31 build/py/emitnthumb.o
 .text          0x0000000000000000        0x0 build/py/emitinlinethumb.o
 .data          0x0000000000000000        0x0 build/py/emitinlinethumb.o
 .bss           0x0000000000000000        0x0 build/py/emitinlinethumb.o
 .comment       0x0000000000000000       0x80 build/py/emitinlinethumb.o
 .ARM.attributes
                0x0000000000000000       0x31 build/py/emitinlinethumb.o
 .text          0x0000000000000000        0x0 build/py/asmarm.o
 .data          0x0000000000000000        0x0 build/py/asmarm.o
 .bss           0x0000000000000000        0x0 build/py/asmarm.o
 .comment       0x0000000000000000       0x80 build/py/asmarm.o
 .ARM.attributes
                0x0000000000000000       0x31 build/py/asmarm.o
 .text          0x0000000000000000        0x0 build/py/emitnarm.o
 .data          0x0000000000000000        0x0 build/py/emitnarm.o
 .bss           0x0000000000000000        0x0 build/py/emitnarm.o
 .comment       0x0000000000000000       0x80 build/py/emitnarm.o
 .ARM.attributes
                0x0000000000000000       0x31 build/py/emitnarm.o
 .text          0x0000000000000000        0x0 build/py/asmxtensa.o
 .data          0x0000000000000000        0x0 build/py/asmxtensa.o
 .bss           0x0000000000000000        0x0 build/py/asmxtensa.o
 .comment       0x0000000000000000       0x80 build/py/asmxtensa.o
 .ARM.attributes
                0x0000000000000000       0x31 build/py/asmxtensa.o
 .text          0x0000000000000000        0x0 build/py/emitnxtensa.o
 .data          0x0000000000000000        0x0 build/py/emitnxtensa.o
 .bss           0x0000000000000000        0x0 build/py/emitnxtensa.o
 .comment       0x0000000000000000       0x80 build/py/emitnxtensa.o
 .ARM.attributes
                0x0000000000000000       0x31 build/py/emitnxtensa.o
 .text          0x0000000000000000        0x0 build/py/emitinlinextensa.o
 .data          0x0000000000000000        0x0 build/py/emitinlinextensa.o
 .bss           0x0000000000000000        0x0 build/py/emitinlinextensa.o
 .comment       0x0000000000000000       0x80 build/py/emitinlinextensa.o
 .ARM.attributes
                0x0000000000000000       0x31 build/py/emitinlinextensa.o
 .text          0x0000000000000000        0x0 build/py/formatfloat.o
 .data          0x0000000000000000        0x0 build/py/formatfloat.o
 .bss           0x0000000000000000        0x0 build/py/formatfloat.o
 .text          0x0000000000000000        0x0 build/py/parsenumbase.o
 .data          0x0000000000000000        0x0 build/py/parsenumbase.o
 .bss           0x0000000000000000        0x0 build/py/parsenumbase.o
 .text          0x0000000000000000        0x0 build/py/parsenum.o
 .data          0x0000000000000000        0x0 build/py/parsenum.o
 .bss           0x0000000000000000        0x0 build/py/parsenum.o
 .text          0x0000000000000000        0x0 build/py/emitglue.o
 .data          0x0000000000000000        0x0 build/py/emitglue.o
 .bss           0x0000000000000000        0x0 build/py/emitglue.o
 .text          0x0000000000000000        0x0 build/py/persistentcode.o
 .data          0x0000000000000000        0x0 build/py/persistentcode.o
 .bss           0x0000000000000000        0x0 build/py/persistentcode.o
 .text.mp_raw_code_load_mem
                0x0000000000000000       0x18 build/py/persistentcode.o
 .text          0x0000000000000000        0x0 build/py/runtime.o
 .data          0x0000000000000000        0x0 build/py/runtime.o
 .bss           0x0000000000000000        0x0 build/py/runtime.o
 .text.mp_call_function_2
                0x0000000000000000       0x12 build/py/runtime.o
 .text          0x0000000000000000        0x0 build/py/runtime_utils.o
 .data          0x0000000000000000        0x0 build/py/runtime_utils.o
 .bss           0x0000000000000000        0x0 build/py/runtime_utils.o
 .text.mp_call_function_2_protected
                0x0000000000000000       0x3c build/py/runtime_utils.o
 .text          0x0000000000000000        0x0 build/py/scheduler.o
 .data          0x0000000000000000        0x0 build/py/scheduler.o
 .bss           0x0000000000000000        0x0 build/py/scheduler.o
 .text          0x0000000000000000        0x0 build/py/nativeglue.o
 .data          0x0000000000000000        0x0 build/py/nativeglue.o
 .bss           0x0000000000000000        0x0 build/py/nativeglue.o
 .comment       0x0000000000000000       0x80 build/py/nativeglue.o
 .ARM.attributes
                0x0000000000000000       0x31 build/py/nativeglue.o
 .text          0x0000000000000000        0x0 build/py/stackctrl.o
 .data          0x0000000000000000        0x0 build/py/stackctrl.o
 .bss           0x0000000000000000        0x0 build/py/stackctrl.o
 .text.mp_stack_ctrl_init
                0x0000000000000000       0x10 build/py/stackctrl.o
 .text          0x0000000000000000        0x0 build/py/argcheck.o
 .data          0x0000000000000000        0x0 build/py/argcheck.o
 .bss           0x0000000000000000        0x0 build/py/argcheck.o
 .text.mp_arg_error_terse_mismatch
                0x0000000000000000        0xc build/py/argcheck.o
 .rodata.mp_arg_error_terse_mismatch.str1.1
                0x0000000000000000       0x1c build/py/argcheck.o
 .text          0x0000000000000000        0x0 build/py/warning.o
 .data          0x0000000000000000        0x0 build/py/warning.o
 .bss           0x0000000000000000        0x0 build/py/warning.o
 .text.mp_emitter_warning
                0x0000000000000000       0x12 build/py/warning.o
 .text          0x0000000000000000        0x0 build/py/map.o
 .data          0x0000000000000000        0x0 build/py/map.o
 .bss           0x0000000000000000        0x0 build/py/map.o
 .text          0x0000000000000000        0x0 build/py/obj.o
 .data          0x0000000000000000        0x0 build/py/obj.o
 .bss           0x0000000000000000        0x0 build/py/obj.o
 .text          0x0000000000000000        0x0 build/py/objarray.o
 .data          0x0000000000000000        0x0 build/py/objarray.o
 .bss           0x0000000000000000        0x0 build/py/objarray.o
 .text.mp_obj_new_bytearray
                0x0000000000000000       0x1e build/py/objarray.o
 .text          0x0000000000000000        0x0 build/py/objattrtuple.o
 .data          0x0000000000000000        0x0 build/py/objattrtuple.o
 .bss           0x0000000000000000        0x0 build/py/objattrtuple.o
 .text.mp_obj_new_attrtuple
                0x0000000000000000       0x38 build/py/objattrtuple.o
 .text          0x0000000000000000        0x0 build/py/objbool.o
 .data          0x0000000000000000        0x0 build/py/objbool.o
 .bss           0x0000000000000000        0x0 build/py/objbool.o
 .text          0x0000000000000000        0x0 build/py/objboundmeth.o
 .data          0x0000000000000000        0x0 build/py/objboundmeth.o
 .bss           0x0000000000000000        0x0 build/py/objboundmeth.o
 .text          0x0000000000000000        0x0 build/py/objcell.o
 .data          0x0000000000000000        0x0 build/py/objcell.o
 .bss           0x0000000000000000        0x0 build/py/objcell.o
 .text          0x0000000000000000        0x0 build/py/objclosure.o
 .data          0x0000000000000000        0x0 build/py/objclosure.o
 .bss           0x0000000000000000        0x0 build/py/objclosure.o
 .text          0x0000000000000000        0x0 build/py/objcomplex.o
 .data          0x0000000000000000        0x0 build/py/objcomplex.o
 .bss           0x0000000000000000        0x0 build/py/objcomplex.o
 .text          0x0000000000000000        0x0 build/py/objdeque.o
 .data          0x0000000000000000        0x0 build/py/objdeque.o
 .bss           0x0000000000000000        0x0 build/py/objdeque.o
 .text          0x0000000000000000        0x0 build/py/objdict.o
 .data          0x0000000000000000        0x0 build/py/objdict.o
 .bss           0x0000000000000000        0x0 build/py/objdict.o
 .text          0x0000000000000000        0x0 build/py/objenumerate.o
 .data          0x0000000000000000        0x0 build/py/objenumerate.o
 .bss           0x0000000000000000        0x0 build/py/objenumerate.o
 .text          0x0000000000000000        0x0 build/py/objexcept.o
 .data          0x0000000000000000        0x0 build/py/objexcept.o
 .bss           0x0000000000000000        0x0 build/py/objexcept.o
 .rodata.mp_type_TimeoutError
                0x0000000000000000       0x3c build/py/objexcept.o
 .text          0x0000000000000000        0x0 build/py/objfilter.o
 .data          0x0000000000000000        0x0 build/py/objfilter.o
 .bss           0x0000000000000000        0x0 build/py/objfilter.o
 .text          0x0000000000000000        0x0 build/py/objfloat.o
 .data          0x0000000000000000        0x0 build/py/objfloat.o
 .bss           0x0000000000000000        0x0 build/py/objfloat.o
 .text          0x0000000000000000        0x0 build/py/objfun.o
 .data          0x0000000000000000        0x0 build/py/objfun.o
 .bss           0x0000000000000000        0x0 build/py/objfun.o
 .text          0x0000000000000000        0x0 build/py/objgenerator.o
 .data          0x0000000000000000        0x0 build/py/objgenerator.o
 .bss           0x0000000000000000        0x0 build/py/objgenerator.o
 .text          0x0000000000000000        0x0 build/py/objgetitemiter.o
 .data          0x0000000000000000        0x0 build/py/objgetitemiter.o
 .bss           0x0000000000000000        0x0 build/py/objgetitemiter.o
 .text          0x0000000000000000        0x0 build/py/objint.o
 .data          0x0000000000000000        0x0 build/py/objint.o
 .bss           0x0000000000000000        0x0 build/py/objint.o
 .text          0x0000000000000000        0x0 build/py/objint_longlong.o
 .data          0x0000000000000000        0x0 build/py/objint_longlong.o
 .bss           0x0000000000000000        0x0 build/py/objint_longlong.o
 .comment       0x0000000000000000       0x80 build/py/objint_longlong.o
 .ARM.attributes
                0x0000000000000000       0x31 build/py/objint_longlong.o
 .text          0x0000000000000000        0x0 build/py/objint_mpz.o
 .data          0x0000000000000000        0x0 build/py/objint_mpz.o
 .bss           0x0000000000000000        0x0 build/py/objint_mpz.o
 .text          0x0000000000000000        0x0 build/py/objlist.o
 .data          0x0000000000000000        0x0 build/py/objlist.o
 .bss           0x0000000000000000        0x0 build/py/objlist.o
 .text          0x0000000000000000        0x0 build/py/objmap.o
 .data          0x0000000000000000        0x0 build/py/objmap.o
 .bss           0x0000000000000000        0x0 build/py/objmap.o
 .text          0x0000000000000000        0x0 build/py/objmodule.o
 .data          0x0000000000000000        0x0 build/py/objmodule.o
 .bss           0x0000000000000000        0x0 build/py/objmodule.o
 .text          0x0000000000000000        0x0 build/py/objobject.o
 .data          0x0000000000000000        0x0 build/py/objobject.o
 .bss           0x0000000000000000        0x0 build/py/objobject.o
 .text          0x0000000000000000        0x0 build/py/objpolyiter.o
 .data          0x0000000000000000        0x0 build/py/objpolyiter.o
 .bss           0x0000000000000000        0x0 build/py/objpolyiter.o
 .text          0x0000000000000000        0x0 build/py/objproperty.o
 .data          0x0000000000000000        0x0 build/py/objproperty.o
 .bss           0x0000000000000000        0x0 build/py/objproperty.o
 .text          0x0000000000000000        0x0 build/py/objnone.o
 .data          0x0000000000000000        0x0 build/py/objnone.o
 .bss           0x0000000000000000        0x0 build/py/objnone.o
 .text          0x0000000000000000        0x0 build/py/objnamedtuple.o
 .data          0x0000000000000000        0x0 build/py/objnamedtuple.o
 .bss           0x0000000000000000        0x0 build/py/objnamedtuple.o
 .text          0x0000000000000000        0x0 build/py/objrange.o
 .data          0x0000000000000000        0x0 build/py/objrange.o
 .bss           0x0000000000000000        0x0 build/py/objrange.o
 .text          0x0000000000000000        0x0 build/py/objreversed.o
 .data          0x0000000000000000        0x0 build/py/objreversed.o
 .bss           0x0000000000000000        0x0 build/py/objreversed.o
 .text          0x0000000000000000        0x0 build/py/objset.o
 .data          0x0000000000000000        0x0 build/py/objset.o
 .bss           0x0000000000000000        0x0 build/py/objset.o
 .text          0x0000000000000000        0x0 build/py/objsingleton.o
 .data          0x0000000000000000        0x0 build/py/objsingleton.o
 .bss           0x0000000000000000        0x0 build/py/objsingleton.o
 .text          0x0000000000000000        0x0 build/py/objslice.o
 .data          0x0000000000000000        0x0 build/py/objslice.o
 .bss           0x0000000000000000        0x0 build/py/objslice.o
 .text          0x0000000000000000        0x0 build/py/objstr.o
 .data          0x0000000000000000        0x0 build/py/objstr.o
 .bss           0x0000000000000000        0x0 build/py/objstr.o
 .text.mp_obj_str_intern
                0x0000000000000000       0x22 build/py/objstr.o
 .text          0x0000000000000000        0x0 build/py/objstrunicode.o
 .data          0x0000000000000000        0x0 build/py/objstrunicode.o
 .bss           0x0000000000000000        0x0 build/py/objstrunicode.o
 .text          0x0000000000000000        0x0 build/py/objstringio.o
 .data          0x0000000000000000        0x0 build/py/objstringio.o
 .bss           0x0000000000000000        0x0 build/py/objstringio.o
 .text          0x0000000000000000        0x0 build/py/objtuple.o
 .data          0x0000000000000000        0x0 build/py/objtuple.o
 .bss           0x0000000000000000        0x0 build/py/objtuple.o
 .text          0x0000000000000000        0x0 build/py/objtype.o
 .data          0x0000000000000000        0x0 build/py/objtype.o
 .bss           0x0000000000000000        0x0 build/py/objtype.o
 .text          0x0000000000000000        0x0 build/py/objzip.o
 .data          0x0000000000000000        0x0 build/py/objzip.o
 .bss           0x0000000000000000        0x0 build/py/objzip.o
 .text          0x0000000000000000        0x0 build/py/opmethods.o
 .data          0x0000000000000000        0x0 build/py/opmethods.o
 .bss           0x0000000000000000        0x0 build/py/opmethods.o
 .text          0x0000000000000000        0x0 build/py/sequence.o
 .data          0x0000000000000000        0x0 build/py/sequence.o
 .bss           0x0000000000000000        0x0 build/py/sequence.o
 .text          0x0000000000000000        0x0 build/py/stream.o
 .data          0x0000000000000000        0x0 build/py/stream.o
 .bss           0x0000000000000000        0x0 build/py/stream.o
 .text.stream_ioctl
                0x0000000000000000       0x50 build/py/stream.o
 .text.stream_read1
                0x0000000000000000        0xa build/py/stream.o
 .text.stream_write1_method
                0x0000000000000000       0x1e build/py/stream.o
 .rodata.mp_stream_ioctl_obj
                0x0000000000000000        0xc build/py/stream.o
 .rodata.mp_stream_read1_obj
                0x0000000000000000        0xc build/py/stream.o
 .rodata.mp_stream_write1_obj
                0x0000000000000000        0x8 build/py/stream.o
 .text          0x0000000000000000        0x0 build/py/binary.o
 .data          0x0000000000000000        0x0 build/py/binary.o
 .bss           0x0000000000000000        0x0 build/py/binary.o
 .text          0x0000000000000000        0x0 build/py/builtinimport.o
 .data          0x0000000000000000        0x0 build/py/builtinimport.o
 .bss           0x0000000000000000        0x0 build/py/builtinimport.o
 .text          0x0000000000000000        0x0 build/py/builtinevex.o
 .data          0x0000000000000000        0x0 build/py/builtinevex.o
 .bss           0x0000000000000000        0x0 build/py/builtinevex.o
 .text          0x0000000000000000        0x0 build/py/builtinhelp.o
 .data          0x0000000000000000        0x0 build/py/builtinhelp.o
 .bss           0x0000000000000000        0x0 build/py/builtinhelp.o
 .rodata.mp_help_default_text
                0x0000000000000000      0x1b1 build/py/builtinhelp.o
 .text          0x0000000000000000        0x0 build/py/modarray.o
 .data          0x0000000000000000        0x0 build/py/modarray.o
 .bss           0x0000000000000000        0x0 build/py/modarray.o
 .text          0x0000000000000000        0x0 build/py/modbuiltins.o
 .data          0x0000000000000000        0x0 build/py/modbuiltins.o
 .bss           0x0000000000000000        0x0 build/py/modbuiltins.o
 .text          0x0000000000000000        0x0 build/py/modcollections.o
 .data          0x0000000000000000        0x0 build/py/modcollections.o
 .bss           0x0000000000000000        0x0 build/py/modcollections.o
 .text          0x0000000000000000        0x0 build/py/modgc.o
 .data          0x0000000000000000        0x0 build/py/modgc.o
 .bss           0x0000000000000000        0x0 build/py/modgc.o
 .text          0x0000000000000000        0x0 build/py/modio.o
 .data          0x0000000000000000        0x0 build/py/modio.o
 .bss           0x0000000000000000        0x0 build/py/modio.o
 .text          0x0000000000000000        0x0 build/py/modmath.o
 .data          0x0000000000000000        0x0 build/py/modmath.o
 .bss           0x0000000000000000        0x0 build/py/modmath.o
 .text          0x0000000000000000        0x0 build/py/modcmath.o
 .data          0x0000000000000000        0x0 build/py/modcmath.o
 .bss           0x0000000000000000        0x0 build/py/modcmath.o
 .text          0x0000000000000000        0x0 build/py/modmicropython.o
 .data          0x0000000000000000        0x0 build/py/modmicropython.o
 .bss           0x0000000000000000        0x0 build/py/modmicropython.o
 .text          0x0000000000000000        0x0 build/py/modstruct.o
 .data          0x0000000000000000        0x0 build/py/modstruct.o
 .bss           0x0000000000000000        0x0 build/py/modstruct.o
 .text          0x0000000000000000        0x0 build/py/modsys.o
 .data          0x0000000000000000        0x0 build/py/modsys.o
 .bss           0x0000000000000000        0x0 build/py/modsys.o
 .text          0x0000000000000000        0x0 build/py/moduerrno.o
 .data          0x0000000000000000        0x0 build/py/moduerrno.o
 .bss           0x0000000000000000        0x0 build/py/moduerrno.o
 .text          0x0000000000000000        0x0 build/py/modthread.o
 .data          0x0000000000000000        0x0 build/py/modthread.o
 .bss           0x0000000000000000        0x0 build/py/modthread.o
 .comment       0x0000000000000000       0x80 build/py/modthread.o
 .ARM.attributes
                0x0000000000000000       0x31 build/py/modthread.o
 .text          0x0000000000000000        0x0 build/py/vm.o
 .data          0x0000000000000000        0x0 build/py/vm.o
 .bss           0x0000000000000000        0x0 build/py/vm.o
 .text          0x0000000000000000        0x0 build/py/bc.o
 .data          0x0000000000000000        0x0 build/py/bc.o
 .bss           0x0000000000000000        0x0 build/py/bc.o
 .text          0x0000000000000000        0x0 build/py/showbc.o
 .data          0x0000000000000000        0x0 build/py/showbc.o
 .bss           0x0000000000000000        0x0 build/py/showbc.o
 .comment       0x0000000000000000       0x80 build/py/showbc.o
 .ARM.attributes
                0x0000000000000000       0x31 build/py/showbc.o
 .text          0x0000000000000000        0x0 build/py/repl.o
 .data          0x0000000000000000        0x0 build/py/repl.o
 .bss           0x0000000000000000        0x0 build/py/repl.o
 .text          0x0000000000000000        0x0 build/py/smallint.o
 .data          0x0000000000000000        0x0 build/py/smallint.o
 .bss           0x0000000000000000        0x0 build/py/smallint.o
 .text          0x0000000000000000        0x0 build/py/frozenmod.o
 .data          0x0000000000000000        0x0 build/py/frozenmod.o
 .bss           0x0000000000000000        0x0 build/py/frozenmod.o
 .text          0x0000000000000000        0x0 build/extmod/moductypes.o
 .data          0x0000000000000000        0x0 build/extmod/moductypes.o
 .bss           0x0000000000000000        0x0 build/extmod/moductypes.o
 .text          0x0000000000000000        0x0 build/extmod/modujson.o
 .data          0x0000000000000000        0x0 build/extmod/modujson.o
 .bss           0x0000000000000000        0x0 build/extmod/modujson.o
 .text          0x0000000000000000        0x0 build/extmod/modure.o
 .data          0x0000000000000000        0x0 build/extmod/modure.o
 .bss           0x0000000000000000        0x0 build/extmod/modure.o
 .text          0x0000000000000000        0x0 build/extmod/moduzlib.o
 .data          0x0000000000000000        0x0 build/extmod/moduzlib.o
 .bss           0x0000000000000000        0x0 build/extmod/moduzlib.o
 .text.uzlib_init
                0x0000000000000000        0x2 build/extmod/moduzlib.o
 .text.uzlib_uncompress_init
                0x0000000000000000       0x18 build/extmod/moduzlib.o
 .text          0x0000000000000000        0x0 build/extmod/moduheapq.o
 .data          0x0000000000000000        0x0 build/extmod/moduheapq.o
 .bss           0x0000000000000000        0x0 build/extmod/moduheapq.o
 .text          0x0000000000000000        0x0 build/extmod/modutimeq.o
 .data          0x0000000000000000        0x0 build/extmod/modutimeq.o
 .bss           0x0000000000000000        0x0 build/extmod/modutimeq.o
 .text          0x0000000000000000        0x0 build/extmod/moduhashlib.o
 .data          0x0000000000000000        0x0 build/extmod/moduhashlib.o
 .bss           0x0000000000000000        0x0 build/extmod/moduhashlib.o
 .text          0x0000000000000000        0x0 build/extmod/moducryptolib.o
 .data          0x0000000000000000        0x0 build/extmod/moducryptolib.o
 .bss           0x0000000000000000        0x0 build/extmod/moducryptolib.o
 .comment       0x0000000000000000       0x80 build/extmod/moducryptolib.o
 .ARM.attributes
                0x0000000000000000       0x31 build/extmod/moducryptolib.o
 .text          0x0000000000000000        0x0 build/extmod/modubinascii.o
 .data          0x0000000000000000        0x0 build/extmod/modubinascii.o
 .bss           0x0000000000000000        0x0 build/extmod/modubinascii.o
 .text          0x0000000000000000        0x0 build/extmod/virtpin.o
 .data          0x0000000000000000        0x0 build/extmod/virtpin.o
 .bss           0x0000000000000000        0x0 build/extmod/virtpin.o
 .text.mp_virtual_pin_read
                0x0000000000000000       0x12 build/extmod/virtpin.o
 .text.mp_virtual_pin_write
                0x0000000000000000       0x12 build/extmod/virtpin.o
 .comment       0x0000000000000000       0x80 build/extmod/virtpin.o
 .ARM.attributes
                0x0000000000000000       0x31 build/extmod/virtpin.o
 .text          0x0000000000000000        0x0 build/extmod/machine_mem.o
 .data          0x0000000000000000        0x0 build/extmod/machine_mem.o
 .bss           0x0000000000000000        0x0 build/extmod/machine_mem.o
 .text.machine_mem_get_addr
                0x0000000000000000       0x28 build/extmod/machine_mem.o
 .text.machine_mem_print
                0x0000000000000000       0x14 build/extmod/machine_mem.o
 .text.machine_mem_subscr
                0x0000000000000000       0x5c build/extmod/machine_mem.o
 .rodata.machine_mem16_obj
                0x0000000000000000        0x8 build/extmod/machine_mem.o
 .rodata.machine_mem32_obj
                0x0000000000000000        0x8 build/extmod/machine_mem.o
 .rodata.machine_mem8_obj
                0x0000000000000000        0x8 build/extmod/machine_mem.o
 .rodata.machine_mem_get_addr.str1.1
                0x0000000000000000       0x28 build/extmod/machine_mem.o
 .rodata.machine_mem_print.str1.1
                0x0000000000000000       0x10 build/extmod/machine_mem.o
 .rodata.machine_mem_type
                0x0000000000000000       0x3c build/extmod/machine_mem.o
 .comment       0x0000000000000000       0x80 build/extmod/machine_mem.o
 .ARM.attributes
                0x0000000000000000       0x31 build/extmod/machine_mem.o
 .text          0x0000000000000000        0x0 build/extmod/machine_pinbase.o
 .data          0x0000000000000000        0x0 build/extmod/machine_pinbase.o
 .bss           0x0000000000000000        0x0 build/extmod/machine_pinbase.o
 .text.pinbase_make_new
                0x0000000000000000        0x8 build/extmod/machine_pinbase.o
 .text.pinbase_ioctl
                0x0000000000000000       0x58 build/extmod/machine_pinbase.o
 .rodata.machine_pinbase_type
                0x0000000000000000       0x3c build/extmod/machine_pinbase.o
 .rodata.pinbase_pin_p
                0x0000000000000000        0x4 build/extmod/machine_pinbase.o
 .rodata.pinbase_singleton
                0x0000000000000000        0x4 build/extmod/machine_pinbase.o
 .comment       0x0000000000000000       0x80 build/extmod/machine_pinbase.o
 .ARM.attributes
                0x0000000000000000       0x31 build/extmod/machine_pinbase.o
 .text          0x0000000000000000        0x0 build/extmod/machine_signal.o
 .data          0x0000000000000000        0x0 build/extmod/machine_signal.o
 .bss           0x0000000000000000        0x0 build/extmod/machine_signal.o
 .text.signal_off
                0x0000000000000000       0x10 build/extmod/machine_signal.o
 .text.signal_on
                0x0000000000000000       0x10 build/extmod/machine_signal.o
 .text.signal_make_new
                0x0000000000000000       0x40 build/extmod/machine_signal.o
 .text.signal_ioctl
                0x0000000000000000       0x2c build/extmod/machine_signal.o
 .text.signal_call
                0x0000000000000000       0x3c build/extmod/machine_signal.o
 .text.signal_value
                0x0000000000000000       0x12 build/extmod/machine_signal.o
 .rodata.machine_signal_type
                0x0000000000000000       0x3c build/extmod/machine_signal.o
 .rodata.signal_locals_dict
                0x0000000000000000       0x10 build/extmod/machine_signal.o
 .rodata.signal_locals_dict_table
                0x0000000000000000       0x18 build/extmod/machine_signal.o
 .rodata.signal_off_obj
                0x0000000000000000        0x8 build/extmod/machine_signal.o
 .rodata.signal_on_obj
                0x0000000000000000        0x8 build/extmod/machine_signal.o
 .rodata.signal_pin_p
                0x0000000000000000        0x4 build/extmod/machine_signal.o
 .rodata.signal_value_obj
                0x0000000000000000        0xc build/extmod/machine_signal.o
 .comment       0x0000000000000000       0x80 build/extmod/machine_signal.o
 .ARM.attributes
                0x0000000000000000       0x31 build/extmod/machine_signal.o
 .text          0x0000000000000000        0x0 build/extmod/machine_pulse.o
 .data          0x0000000000000000        0x0 build/extmod/machine_pulse.o
 .bss           0x0000000000000000        0x0 build/extmod/machine_pulse.o
 .comment       0x0000000000000000       0x80 build/extmod/machine_pulse.o
 .ARM.attributes
                0x0000000000000000       0x31 build/extmod/machine_pulse.o
 .text          0x0000000000000000        0x0 build/extmod/machine_i2c.o
 .data          0x0000000000000000        0x0 build/extmod/machine_i2c.o
 .bss           0x0000000000000000        0x0 build/extmod/machine_i2c.o
 .comment       0x0000000000000000       0x80 build/extmod/machine_i2c.o
 .ARM.attributes
                0x0000000000000000       0x31 build/extmod/machine_i2c.o
 .text          0x0000000000000000        0x0 build/extmod/machine_spi.o
 .data          0x0000000000000000        0x0 build/extmod/machine_spi.o
 .bss           0x0000000000000000        0x0 build/extmod/machine_spi.o
 .comment       0x0000000000000000       0x80 build/extmod/machine_spi.o
 .ARM.attributes
                0x0000000000000000       0x31 build/extmod/machine_spi.o
 .text          0x0000000000000000        0x0 build/extmod/modussl_axtls.o
 .data          0x0000000000000000        0x0 build/extmod/modussl_axtls.o
 .bss           0x0000000000000000        0x0 build/extmod/modussl_axtls.o
 .comment       0x0000000000000000       0x80 build/extmod/modussl_axtls.o
 .ARM.attributes
                0x0000000000000000       0x31 build/extmod/modussl_axtls.o
 .text          0x0000000000000000        0x0 build/extmod/modussl_mbedtls.o
 .data          0x0000000000000000        0x0 build/extmod/modussl_mbedtls.o
 .bss           0x0000000000000000        0x0 build/extmod/modussl_mbedtls.o
 .comment       0x0000000000000000       0x80 build/extmod/modussl_mbedtls.o
 .ARM.attributes
                0x0000000000000000       0x31 build/extmod/modussl_mbedtls.o
 .text          0x0000000000000000        0x0 build/extmod/modurandom.o
 .data          0x0000000000000000        0x0 build/extmod/modurandom.o
 .bss           0x0000000000000000        0x0 build/extmod/modurandom.o
 .text          0x0000000000000000        0x0 build/extmod/moduselect.o
 .data          0x0000000000000000        0x0 build/extmod/moduselect.o
 .bss           0x0000000000000000        0x0 build/extmod/moduselect.o
 .comment       0x0000000000000000       0x80 build/extmod/moduselect.o
 .ARM.attributes
                0x0000000000000000       0x31 build/extmod/moduselect.o
 .text          0x0000000000000000        0x0 build/extmod/modwebsocket.o
 .data          0x0000000000000000        0x0 build/extmod/modwebsocket.o
 .bss           0x0000000000000000        0x0 build/extmod/modwebsocket.o
 .comment       0x0000000000000000       0x80 build/extmod/modwebsocket.o
 .ARM.attributes
                0x0000000000000000       0x31 build/extmod/modwebsocket.o
 .text          0x0000000000000000        0x0 build/extmod/modwebrepl.o
 .data          0x0000000000000000        0x0 build/extmod/modwebrepl.o
 .bss           0x0000000000000000        0x0 build/extmod/modwebrepl.o
 .comment       0x0000000000000000       0x80 build/extmod/modwebrepl.o
 .ARM.attributes
                0x0000000000000000       0x31 build/extmod/modwebrepl.o
 .text          0x0000000000000000        0x0 build/extmod/modframebuf.o
 .data          0x0000000000000000        0x0 build/extmod/modframebuf.o
 .bss           0x0000000000000000        0x0 build/extmod/modframebuf.o
 .comment       0x0000000000000000       0x80 build/extmod/modframebuf.o
 .ARM.attributes
                0x0000000000000000       0x31 build/extmod/modframebuf.o
 .text          0x0000000000000000        0x0 build/extmod/vfs.o
 .data          0x0000000000000000        0x0 build/extmod/vfs.o
 .bss           0x0000000000000000        0x0 build/extmod/vfs.o
 .text          0x0000000000000000        0x0 build/extmod/vfs_reader.o
 .data          0x0000000000000000        0x0 build/extmod/vfs_reader.o
 .bss           0x0000000000000000        0x0 build/extmod/vfs_reader.o
 .text          0x0000000000000000        0x0 build/extmod/vfs_posix.o
 .data          0x0000000000000000        0x0 build/extmod/vfs_posix.o
 .bss           0x0000000000000000        0x0 build/extmod/vfs_posix.o
 .comment       0x0000000000000000       0x80 build/extmod/vfs_posix.o
 .ARM.attributes
                0x0000000000000000       0x31 build/extmod/vfs_posix.o
 .text          0x0000000000000000        0x0 build/extmod/vfs_posix_file.o
 .data          0x0000000000000000        0x0 build/extmod/vfs_posix_file.o
 .bss           0x0000000000000000        0x0 build/extmod/vfs_posix_file.o
 .comment       0x0000000000000000       0x80 build/extmod/vfs_posix_file.o
 .ARM.attributes
                0x0000000000000000       0x31 build/extmod/vfs_posix_file.o
 .text          0x0000000000000000        0x0 build/extmod/vfs_fat.o
 .data          0x0000000000000000        0x0 build/extmod/vfs_fat.o
 .bss           0x0000000000000000        0x0 build/extmod/vfs_fat.o
 .comment       0x0000000000000000       0x80 build/extmod/vfs_fat.o
 .ARM.attributes
                0x0000000000000000       0x31 build/extmod/vfs_fat.o
 .text          0x0000000000000000        0x0 build/extmod/vfs_fat_diskio.o
 .data          0x0000000000000000        0x0 build/extmod/vfs_fat_diskio.o
 .bss           0x0000000000000000        0x0 build/extmod/vfs_fat_diskio.o
 .comment       0x0000000000000000       0x80 build/extmod/vfs_fat_diskio.o
 .ARM.attributes
                0x0000000000000000       0x31 build/extmod/vfs_fat_diskio.o
 .text          0x0000000000000000        0x0 build/extmod/vfs_fat_file.o
 .data          0x0000000000000000        0x0 build/extmod/vfs_fat_file.o
 .bss           0x0000000000000000        0x0 build/extmod/vfs_fat_file.o
 .comment       0x0000000000000000       0x80 build/extmod/vfs_fat_file.o
 .ARM.attributes
                0x0000000000000000       0x31 build/extmod/vfs_fat_file.o
 .text          0x0000000000000000        0x0 build/extmod/utime_mphal.o
 .data          0x0000000000000000        0x0 build/extmod/utime_mphal.o
 .bss           0x0000000000000000        0x0 build/extmod/utime_mphal.o
 .text.time_sleep_us
                0x0000000000000000       0x18 build/extmod/utime_mphal.o
 .text.time_ticks_us
                0x0000000000000000       0x18 build/extmod/utime_mphal.o
 .rodata.mp_utime_sleep_us_obj
                0x0000000000000000        0x8 build/extmod/utime_mphal.o
 .rodata.mp_utime_ticks_us_obj
                0x0000000000000000        0x8 build/extmod/utime_mphal.o
 .text          0x0000000000000000        0x0 build/extmod/uos_dupterm.o
 .data          0x0000000000000000        0x0 build/extmod/uos_dupterm.o
 .bss           0x0000000000000000        0x0 build/extmod/uos_dupterm.o
 .comment       0x0000000000000000       0x80 build/extmod/uos_dupterm.o
 .ARM.attributes
                0x0000000000000000       0x31 build/extmod/uos_dupterm.o
 .text          0x0000000000000000        0x0 build/lib/embed/abort_.o
 .data          0x0000000000000000        0x0 build/lib/embed/abort_.o
 .bss           0x0000000000000000        0x0 build/lib/embed/abort_.o
 .text.abort_   0x0000000000000000       0x14 build/lib/embed/abort_.o
 .rodata.abort_.str1.1
                0x0000000000000000        0xf build/lib/embed/abort_.o
 .comment       0x0000000000000000       0x80 build/lib/embed/abort_.o
 .ARM.attributes
                0x0000000000000000       0x31 build/lib/embed/abort_.o
 .text          0x0000000000000000        0x0 build/lib/utils/printf.o
 .data          0x0000000000000000        0x0 build/lib/utils/printf.o
 .bss           0x0000000000000000        0x0 build/lib/utils/printf.o
 .text.vprintf  0x0000000000000000       0x14 build/lib/utils/printf.o
 .text          0x0000000000000000        0x0 build/build/frozen.o
 .data          0x0000000000000000        0x0 build/build/frozen.o
 .bss           0x0000000000000000        0x0 build/build/frozen.o
 .text          0x0000000000000000        0x0 build/build/frozen_mpy.o
 .data          0x0000000000000000        0x0 build/build/frozen_mpy.o
 .bss           0x0000000000000000        0x0 build/build/frozen_mpy.o
 .text          0x0000000000000000        0x0 build/main.o
 .data          0x0000000000000000        0x0 build/main.o
 .bss           0x0000000000000000        0x0 build/main.o
 .text.do_str   0x0000000000000000       0x54 build/main.o
 .text          0x0000000000000000        0x0 build/help.o
 .data          0x0000000000000000        0x0 build/help.o
 .bss           0x0000000000000000        0x0 build/help.o
 .text          0x0000000000000000        0x0 build/machine.o
 .data          0x0000000000000000        0x0 build/machine.o
 .bss           0x0000000000000000        0x0 build/machine.o
 .text._exit    0x0000000000000000        0x2 build/machine.o
 .text          0x0000000000000000        0x0 build/mphalport.o
 .data          0x0000000000000000        0x0 build/mphalport.o
 .bss           0x0000000000000000        0x0 build/mphalport.o
 .text.mp_hal_delay_us
                0x0000000000000000       0x24 build/mphalport.o
 .text.mp_hal_ticks_us
                0x0000000000000000       0x10 build/mphalport.o
 .text          0x0000000000000000        0x0 build/modmachine.o
 .data          0x0000000000000000        0x0 build/modmachine.o
 .bss           0x0000000000000000        0x0 build/modmachine.o
 .text          0x0000000000000000        0x0 build/moduos.o
 .data          0x0000000000000000        0x0 build/moduos.o
 .bss           0x0000000000000000        0x0 build/moduos.o
 .text          0x0000000000000000        0x0 build/modutime.o
 .data          0x0000000000000000        0x0 build/modutime.o
 .bss           0x0000000000000000        0x0 build/modutime.o
 .text          0x0000000000000000        0x0 build/modumsgpack.o
 .data          0x0000000000000000        0x0 build/modumsgpack.o
 .bss           0x0000000000000000        0x0 build/modumsgpack.o
 .text          0x0000000000000000        0x0 build/gccollect.o
 .data          0x0000000000000000        0x0 build/gccollect.o
 .bss           0x0000000000000000        0x0 build/gccollect.o
 .text          0x0000000000000000        0x0 build/openpie_vfs.o
 .data          0x0000000000000000        0x0 build/openpie_vfs.o
 .bss           0x0000000000000000        0x0 build/openpie_vfs.o
 .text          0x0000000000000000        0x0 build/msgpack.o
 .data          0x0000000000000000        0x0 build/msgpack.o
 .bss           0x0000000000000000        0x0 build/msgpack.o
 .data          0x0000000000000000        0x0 build/gchelper_m0.o
 .bss           0x0000000000000000        0x0 build/gchelper_m0.o
 .text          0x0000000000000000        0x0 build/lib/mpack/mpack-common.o
 .data          0x0000000000000000        0x0 build/lib/mpack/mpack-common.o
 .bss           0x0000000000000000        0x0 build/lib/mpack/mpack-common.o
 .text.mpack_error_to_string
                0x0000000000000000       0x70 build/lib/mpack/mpack-common.o
 .text.mpack_type_to_string
                0x0000000000000000       0x94 build/lib/mpack/mpack-common.o
 .text.mpack_tag_cmp
                0x0000000000000000       0xee build/lib/mpack/mpack-common.o
 .text.mpack_utf8_check_no_null
                0x0000000000000000        0xa build/lib/mpack/mpack-common.o
 .text.mpack_str_check_no_null
                0x0000000000000000       0x18 build/lib/mpack/mpack-common.o
 .rodata.mpack_error_to_string.str1.1
                0x0000000000000000       0x95 build/lib/mpack/mpack-common.o
 .rodata.mpack_type_to_string.str1.1
                0x0000000000000000       0xc1 build/lib/mpack/mpack-common.o
 .text          0x0000000000000000        0x0 build/lib/mpack/mpack-expect.o
 .data          0x0000000000000000        0x0 build/lib/mpack/mpack-expect.o
 .bss           0x0000000000000000        0x0 build/lib/mpack/mpack-expect.o
 .text.mpack_expect_cstr_alloc_unchecked
                0x0000000000000000       0x34 build/lib/mpack/mpack-expect.o
 .text.mpack_expect_native_u8
                0x0000000000000000       0x24 build/lib/mpack/mpack-expect.o
 .text.mpack_expect_u8
                0x0000000000000000       0x36 build/lib/mpack/mpack-expect.o
 .text.mpack_expect_u16
                0x0000000000000000       0x3c build/lib/mpack/mpack-expect.o
 .text.mpack_expect_u32
                0x0000000000000000       0x30 build/lib/mpack/mpack-expect.o
 .text.mpack_expect_u64
                0x0000000000000000       0x30 build/lib/mpack/mpack-expect.o
 .text.mpack_expect_i8
                0x0000000000000000       0x46 build/lib/mpack/mpack-expect.o
 .text.mpack_expect_i16
                0x0000000000000000       0x58 build/lib/mpack/mpack-expect.o
 .text.mpack_expect_i32
                0x0000000000000000       0x42 build/lib/mpack/mpack-expect.o
 .text.mpack_expect_i64
                0x0000000000000000       0x32 build/lib/mpack/mpack-expect.o
 .text.mpack_expect_float
                0x0000000000000000       0x4e build/lib/mpack/mpack-expect.o
 .text.mpack_expect_double
                0x0000000000000000       0x52 build/lib/mpack/mpack-expect.o
 .text.mpack_expect_float_strict
                0x0000000000000000       0x24 build/lib/mpack/mpack-expect.o
 .text.mpack_expect_double_strict
                0x0000000000000000       0x36 build/lib/mpack/mpack-expect.o
 .text.mpack_expect_u8_range
                0x0000000000000000       0x2c build/lib/mpack/mpack-expect.o
 .text.mpack_expect_u16_range
                0x0000000000000000       0x2c build/lib/mpack/mpack-expect.o
 .text.mpack_expect_u32_range
                0x0000000000000000       0x2c build/lib/mpack/mpack-expect.o
 .text.mpack_expect_u64_range
                0x0000000000000000       0x46 build/lib/mpack/mpack-expect.o
 .text.mpack_expect_i8_range
                0x0000000000000000       0x2c build/lib/mpack/mpack-expect.o
 .text.mpack_expect_i16_range
                0x0000000000000000       0x2c build/lib/mpack/mpack-expect.o
 .text.mpack_expect_i32_range
                0x0000000000000000       0x2c build/lib/mpack/mpack-expect.o
 .text.mpack_expect_i64_range
                0x0000000000000000       0x46 build/lib/mpack/mpack-expect.o
 .text.mpack_expect_float_range
                0x0000000000000000       0x3e build/lib/mpack/mpack-expect.o
 .text.mpack_expect_double_range
                0x0000000000000000       0x50 build/lib/mpack/mpack-expect.o
 .text.mpack_expect_uint_match
                0x0000000000000000       0x1e build/lib/mpack/mpack-expect.o
 .text.mpack_expect_int_match
                0x0000000000000000       0x1e build/lib/mpack/mpack-expect.o
 .text.mpack_expect_nil
                0x0000000000000000       0x16 build/lib/mpack/mpack-expect.o
 .text.mpack_expect_bool
                0x0000000000000000       0x22 build/lib/mpack/mpack-expect.o
 .text.mpack_expect_true
                0x0000000000000000       0x16 build/lib/mpack/mpack-expect.o
 .text.mpack_expect_false
                0x0000000000000000       0x16 build/lib/mpack/mpack-expect.o
 .text.mpack_expect_timestamp
                0x0000000000000000       0x46 build/lib/mpack/mpack-expect.o
 .text.mpack_expect_timestamp_truncate
                0x0000000000000000       0x12 build/lib/mpack/mpack-expect.o
 .text.mpack_expect_map
                0x0000000000000000       0x24 build/lib/mpack/mpack-expect.o
 .text.mpack_expect_map_range
                0x0000000000000000       0x2c build/lib/mpack/mpack-expect.o
 .text.mpack_expect_map_match
                0x0000000000000000       0x18 build/lib/mpack/mpack-expect.o
 .text.mpack_expect_map_or_nil
                0x0000000000000000       0x36 build/lib/mpack/mpack-expect.o
 .text.mpack_expect_map_max_or_nil
                0x0000000000000000       0x28 build/lib/mpack/mpack-expect.o
 .text.mpack_expect_array
                0x0000000000000000       0x24 build/lib/mpack/mpack-expect.o
 .text.mpack_expect_array_range
                0x0000000000000000       0x2c build/lib/mpack/mpack-expect.o
 .text.mpack_expect_array_match
                0x0000000000000000       0x18 build/lib/mpack/mpack-expect.o
 .text.mpack_expect_array_or_nil
                0x0000000000000000       0x36 build/lib/mpack/mpack-expect.o
 .text.mpack_expect_array_max_or_nil
                0x0000000000000000       0x28 build/lib/mpack/mpack-expect.o
 .text.mpack_expect_array_alloc_impl
                0x0000000000000000       0x50 build/lib/mpack/mpack-expect.o
 .text.mpack_expect_str
                0x0000000000000000       0x24 build/lib/mpack/mpack-expect.o
 .text.mpack_expect_str_buf
                0x0000000000000000       0x3e build/lib/mpack/mpack-expect.o
 .text.mpack_expect_utf8
                0x0000000000000000       0x26 build/lib/mpack/mpack-expect.o
 .text.mpack_expect_bin
                0x0000000000000000       0x24 build/lib/mpack/mpack-expect.o
 .text.mpack_expect_bin_buf
                0x0000000000000000       0x3e build/lib/mpack/mpack-expect.o
 .text.mpack_expect_ext
                0x0000000000000000       0x32 build/lib/mpack/mpack-expect.o
 .text.mpack_expect_ext_buf
                0x0000000000000000       0x4a build/lib/mpack/mpack-expect.o
 .text.mpack_expect_cstr
                0x0000000000000000       0x1a build/lib/mpack/mpack-expect.o
 .text.mpack_expect_utf8_cstr
                0x0000000000000000       0x1a build/lib/mpack/mpack-expect.o
 .text.mpack_expect_cstr_alloc
                0x0000000000000000       0x2c build/lib/mpack/mpack-expect.o
 .text.mpack_expect_utf8_cstr_alloc
                0x0000000000000000       0x2c build/lib/mpack/mpack-expect.o
 .text.mpack_expect_str_match
                0x0000000000000000       0x38 build/lib/mpack/mpack-expect.o
 .text.mpack_expect_tag
                0x0000000000000000       0x40 build/lib/mpack/mpack-expect.o
 .text.mpack_expect_bin_alloc
                0x0000000000000000       0x2a build/lib/mpack/mpack-expect.o
 .text.mpack_expect_ext_alloc
                0x0000000000000000       0x30 build/lib/mpack/mpack-expect.o
 .text.mpack_expect_enum
                0x0000000000000000       0x5c build/lib/mpack/mpack-expect.o
 .text.mpack_expect_enum_optional
                0x0000000000000000       0x6e build/lib/mpack/mpack-expect.o
 .text.mpack_expect_key_uint
                0x0000000000000000       0x60 build/lib/mpack/mpack-expect.o
 .text.mpack_expect_key_cstr
                0x0000000000000000       0x2c build/lib/mpack/mpack-expect.o
 .comment       0x0000000000000000       0x80 build/lib/mpack/mpack-expect.o
 .ARM.attributes
                0x0000000000000000       0x31 build/lib/mpack/mpack-expect.o
 .text          0x0000000000000000        0x0 build/lib/mpack/mpack-node.o
 .data          0x0000000000000000        0x0 build/lib/mpack/mpack-node.o
 .bss           0x0000000000000000        0x0 build/lib/mpack/mpack-node.o
 .text.mpack_node_data_unchecked
                0x0000000000000000        0xc build/lib/mpack/mpack-node.o
 .text.mpack_tree_cleanup
                0x0000000000000000       0x30 build/lib/mpack/mpack-node.o
 .text.mpack_tree_init_clear
                0x0000000000000000       0x20 build/lib/mpack/mpack-node.o
 .text.mpack_tree_init
                0x0000000000000000       0x20 build/lib/mpack/mpack-node.o
 .text.mpack_tree_init_error
                0x0000000000000000       0x10 build/lib/mpack/mpack-node.o
 .text.mpack_tree_init_stream
                0x0000000000000000       0x1a build/lib/mpack/mpack-node.o
 .text.mpack_tree_destroy
                0x0000000000000000       0x26 build/lib/mpack/mpack-node.o
 .text.mpack_tree_flag_error
                0x0000000000000000       0x18 build/lib/mpack/mpack-node.o
 .text.mpack_tree_reserve_bytes
                0x0000000000000000       0xbc build/lib/mpack/mpack-node.o
 .text.mpack_tree_parse_start
                0x0000000000000000       0xdc build/lib/mpack/mpack-node.o
 .text.mpack_tree_parse_bytes
                0x0000000000000000       0x14 build/lib/mpack/mpack-node.o
 .text.mpack_tree_parse_ext
                0x0000000000000000       0x12 build/lib/mpack/mpack-node.o
 .text.mpack_tree_parse_children
                0x0000000000000000      0x10c build/lib/mpack/mpack-node.o
 .text.mpack_tree_continue_parsing.part.10
                0x0000000000000000      0x3cc build/lib/mpack/mpack-node.o
 .text.mpack_tree_try_parse
                0x0000000000000000       0x3c build/lib/mpack/mpack-node.o
 .text.mpack_tree_parse
                0x0000000000000000       0x4e build/lib/mpack/mpack-node.o
 .text.mpack_tree_root
                0x0000000000000000       0x3a build/lib/mpack/mpack-node.o
 .text.mpack_tree_init_pool
                0x0000000000000000       0x38 build/lib/mpack/mpack-node.o
 .text.mpack_node_map_int_impl
                0x0000000000000000       0x74 build/lib/mpack/mpack-node.o
 .text.mpack_node_map_uint_impl
                0x0000000000000000       0x7a build/lib/mpack/mpack-node.o
 .text.mpack_node_map_str_impl
                0x0000000000000000       0x90 build/lib/mpack/mpack-node.o
 .text.mpack_node_map_at
                0x0000000000000000       0x4a build/lib/mpack/mpack-node.o
 .text.mpack_node_flag_error
                0x0000000000000000        0xc build/lib/mpack/mpack-node.o
 .text.mpack_node_tag
                0x0000000000000000       0xb2 build/lib/mpack/mpack-node.o
 .text.mpack_node_check_utf8
                0x0000000000000000       0x38 build/lib/mpack/mpack-node.o
 .text.mpack_node_check_utf8_cstr
                0x0000000000000000       0x38 build/lib/mpack/mpack-node.o
 .text.mpack_node_copy_data
                0x0000000000000000       0x48 build/lib/mpack/mpack-node.o
 .text.mpack_node_copy_utf8
                0x0000000000000000       0x60 build/lib/mpack/mpack-node.o
 .text.mpack_node_copy_cstr
                0x0000000000000000       0x70 build/lib/mpack/mpack-node.o
 .text.mpack_node_copy_utf8_cstr
                0x0000000000000000       0x70 build/lib/mpack/mpack-node.o
 .text.mpack_node_data_alloc
                0x0000000000000000       0x5c build/lib/mpack/mpack-node.o
 .text.mpack_node_cstr_alloc
                0x0000000000000000       0x90 build/lib/mpack/mpack-node.o
 .text.mpack_node_utf8_cstr_alloc
                0x0000000000000000       0x90 build/lib/mpack/mpack-node.o
 .text.mpack_node_map_int
                0x0000000000000000       0x3c build/lib/mpack/mpack-node.o
 .text.mpack_node_map_int_optional
                0x0000000000000000       0x36 build/lib/mpack/mpack-node.o
 .text.mpack_node_map_uint
                0x0000000000000000       0x3c build/lib/mpack/mpack-node.o
 .text.mpack_node_map_uint_optional
                0x0000000000000000       0x36 build/lib/mpack/mpack-node.o
 .text.mpack_node_map_str
                0x0000000000000000       0x3c build/lib/mpack/mpack-node.o
 .text.mpack_node_map_str_optional
                0x0000000000000000       0x36 build/lib/mpack/mpack-node.o
 .text.mpack_node_map_cstr
                0x0000000000000000       0x26 build/lib/mpack/mpack-node.o
 .text.mpack_node_map_cstr_optional
                0x0000000000000000       0x26 build/lib/mpack/mpack-node.o
 .text.mpack_node_map_contains_int
                0x0000000000000000        0xe build/lib/mpack/mpack-node.o
 .text.mpack_node_map_contains_uint
                0x0000000000000000        0xe build/lib/mpack/mpack-node.o
 .text.mpack_node_map_contains_str
                0x0000000000000000        0xe build/lib/mpack/mpack-node.o
 .text.mpack_node_map_contains_cstr
                0x0000000000000000       0x1c build/lib/mpack/mpack-node.o
 .text.mpack_node_type
                0x0000000000000000       0x1a build/lib/mpack/mpack-node.o
 .text.mpack_node_is_nil
                0x0000000000000000       0x22 build/lib/mpack/mpack-node.o
 .text.mpack_node_is_missing
                0x0000000000000000       0x20 build/lib/mpack/mpack-node.o
 .text.mpack_node_nil
                0x0000000000000000       0x22 build/lib/mpack/mpack-node.o
 .text.mpack_node_missing
                0x0000000000000000       0x22 build/lib/mpack/mpack-node.o
 .text.mpack_node_bool
                0x0000000000000000       0x2a build/lib/mpack/mpack-node.o
 .text.mpack_node_true
                0x0000000000000000       0x16 build/lib/mpack/mpack-node.o
 .text.mpack_node_false
                0x0000000000000000       0x16 build/lib/mpack/mpack-node.o
 .text.mpack_node_u8
                0x0000000000000000       0x3c build/lib/mpack/mpack-node.o
 .text.mpack_node_i8
                0x0000000000000000       0x50 build/lib/mpack/mpack-node.o
 .text.mpack_node_u16
                0x0000000000000000       0x44 build/lib/mpack/mpack-node.o
 .text.mpack_node_i16
                0x0000000000000000       0x60 build/lib/mpack/mpack-node.o
 .text.mpack_node_u32
                0x0000000000000000       0x36 build/lib/mpack/mpack-node.o
 .text.mpack_node_i32
                0x0000000000000000       0x4c build/lib/mpack/mpack-node.o
 .text.mpack_node_u64
                0x0000000000000000       0x3e build/lib/mpack/mpack-node.o
 .text.mpack_node_i64
                0x0000000000000000       0x3c build/lib/mpack/mpack-node.o
 .text.mpack_node_uint
                0x0000000000000000        0x8 build/lib/mpack/mpack-node.o
 .text.mpack_node_int
                0x0000000000000000        0x8 build/lib/mpack/mpack-node.o
 .text.mpack_node_float
                0x0000000000000000       0x52 build/lib/mpack/mpack-node.o
 .text.mpack_node_double
                0x0000000000000000       0x56 build/lib/mpack/mpack-node.o
 .text.mpack_node_float_strict
                0x0000000000000000       0x28 build/lib/mpack/mpack-node.o
 .text.mpack_node_double_strict
                0x0000000000000000       0x3a build/lib/mpack/mpack-node.o
 .text.mpack_node_exttype
                0x0000000000000000       0x3a build/lib/mpack/mpack-node.o
 .text.mpack_node_timestamp
                0x0000000000000000       0x7c build/lib/mpack/mpack-node.o
 .text.mpack_node_timestamp_seconds
                0x0000000000000000       0x14 build/lib/mpack/mpack-node.o
 .text.mpack_node_timestamp_nanoseconds
                0x0000000000000000       0x12 build/lib/mpack/mpack-node.o
 .text.mpack_node_data_len
                0x0000000000000000       0x2c build/lib/mpack/mpack-node.o
 .text.mpack_node_strlen
                0x0000000000000000       0x2a build/lib/mpack/mpack-node.o
 .text.mpack_node_str
                0x0000000000000000       0x30 build/lib/mpack/mpack-node.o
 .text.mpack_node_enum_optional
                0x0000000000000000       0x60 build/lib/mpack/mpack-node.o
 .text.mpack_node_enum
                0x0000000000000000       0x1c build/lib/mpack/mpack-node.o
 .text.mpack_node_data
                0x0000000000000000       0x32 build/lib/mpack/mpack-node.o
 .text.mpack_node_bin_data
                0x0000000000000000       0x30 build/lib/mpack/mpack-node.o
 .text.mpack_node_bin_size
                0x0000000000000000       0x2a build/lib/mpack/mpack-node.o
 .text.mpack_node_array_length
                0x0000000000000000       0x2a build/lib/mpack/mpack-node.o
 .text.mpack_node_array_at
                0x0000000000000000       0x44 build/lib/mpack/mpack-node.o
 .text.mpack_node_map_count
                0x0000000000000000       0x2a build/lib/mpack/mpack-node.o
 .text.mpack_node_map_key_at
                0x0000000000000000       0x14 build/lib/mpack/mpack-node.o
 .text.mpack_node_map_value_at
                0x0000000000000000       0x14 build/lib/mpack/mpack-node.o
 .comment       0x0000000000000000       0x80 build/lib/mpack/mpack-node.o
 .ARM.attributes
                0x0000000000000000       0x31 build/lib/mpack/mpack-node.o
 .text          0x0000000000000000        0x0 build/lib/mpack/mpack-platform.o
 .data          0x0000000000000000        0x0 build/lib/mpack/mpack-platform.o
 .bss           0x0000000000000000        0x0 build/lib/mpack/mpack-platform.o
 .text.mpack_realloc
                0x0000000000000000        0xc build/lib/mpack/mpack-platform.o
 .text.mpack_tag_make_nil
                0x0000000000000000       0x12 build/lib/mpack/mpack-platform.o
 .text.mpack_tag_make_true
                0x0000000000000000       0x16 build/lib/mpack/mpack-platform.o
 .text.mpack_tag_make_false
                0x0000000000000000       0x12 build/lib/mpack/mpack-platform.o
 .text.mpack_tag_make_int
                0x0000000000000000        0xe build/lib/mpack/mpack-platform.o
 .text.mpack_tag_make_uint
                0x0000000000000000        0xe build/lib/mpack/mpack-platform.o
 .text.mpack_tag_make_double
                0x0000000000000000        0xe build/lib/mpack/mpack-platform.o
 .text.mpack_tag_type
                0x0000000000000000        0x4 build/lib/mpack/mpack-platform.o
 .text.mpack_tag_bool_value
                0x0000000000000000        0x4 build/lib/mpack/mpack-platform.o
 .text.mpack_tag_int_value
                0x0000000000000000        0x6 build/lib/mpack/mpack-platform.o
 .text.mpack_tag_uint_value
                0x0000000000000000        0x6 build/lib/mpack/mpack-platform.o
 .text.mpack_tag_float_value
                0x0000000000000000        0x4 build/lib/mpack/mpack-platform.o
 .text.mpack_tag_double_value
                0x0000000000000000        0x6 build/lib/mpack/mpack-platform.o
 .text.mpack_tag_array_count
                0x0000000000000000        0x4 build/lib/mpack/mpack-platform.o
 .text.mpack_tag_map_count
                0x0000000000000000        0x4 build/lib/mpack/mpack-platform.o
 .text.mpack_tag_str_length
                0x0000000000000000        0x4 build/lib/mpack/mpack-platform.o
 .text.mpack_tag_bin_length
                0x0000000000000000        0x4 build/lib/mpack/mpack-platform.o
 .text.mpack_tag_ext_length
                0x0000000000000000        0x4 build/lib/mpack/mpack-platform.o
 .text.mpack_tag_ext_exttype
                0x0000000000000000        0x6 build/lib/mpack/mpack-platform.o
 .text.mpack_tag_bytes
                0x0000000000000000        0x4 build/lib/mpack/mpack-platform.o
 .text.mpack_tag_equal
                0x0000000000000000       0x2c build/lib/mpack/mpack-platform.o
 .text.mpack_tag_nil
                0x0000000000000000       0x12 build/lib/mpack/mpack-platform.o
 .text.mpack_tag_bool
                0x0000000000000000        0xc build/lib/mpack/mpack-platform.o
 .text.mpack_tag_true
                0x0000000000000000        0xc build/lib/mpack/mpack-platform.o
 .text.mpack_tag_false
                0x0000000000000000        0xc build/lib/mpack/mpack-platform.o
 .text.mpack_tag_int
                0x0000000000000000        0xe build/lib/mpack/mpack-platform.o
 .text.mpack_tag_uint
                0x0000000000000000        0xe build/lib/mpack/mpack-platform.o
 .text.mpack_tag_float
                0x0000000000000000        0xc build/lib/mpack/mpack-platform.o
 .text.mpack_tag_double
                0x0000000000000000        0xe build/lib/mpack/mpack-platform.o
 .text.mpack_tag_array
                0x0000000000000000        0xc build/lib/mpack/mpack-platform.o
 .text.mpack_tag_map
                0x0000000000000000        0xc build/lib/mpack/mpack-platform.o
 .text.mpack_tag_str
                0x0000000000000000        0xc build/lib/mpack/mpack-platform.o
 .text.mpack_tag_bin
                0x0000000000000000        0xc build/lib/mpack/mpack-platform.o
 .text.mpack_tag_ext
                0x0000000000000000        0xc build/lib/mpack/mpack-platform.o
 .text.mpack_load_u8
                0x0000000000000000        0x4 build/lib/mpack/mpack-platform.o
 .text.mpack_load_u16
                0x0000000000000000        0xa build/lib/mpack/mpack-platform.o
 .text.mpack_store_u8
                0x0000000000000000        0x4 build/lib/mpack/mpack-platform.o
 .text.mpack_store_u16
                0x0000000000000000        0x8 build/lib/mpack/mpack-platform.o
 .text.mpack_load_i8
                0x0000000000000000        0x6 build/lib/mpack/mpack-platform.o
 .text.mpack_load_i16
                0x0000000000000000        0xc build/lib/mpack/mpack-platform.o
 .text.mpack_load_i32
                0x0000000000000000        0x8 build/lib/mpack/mpack-platform.o
 .text.mpack_load_i64
                0x0000000000000000        0x8 build/lib/mpack/mpack-platform.o
 .text.mpack_store_i8
                0x0000000000000000        0x4 build/lib/mpack/mpack-platform.o
 .text.mpack_store_i16
                0x0000000000000000        0xa build/lib/mpack/mpack-platform.o
 .text.mpack_store_i32
                0x0000000000000000        0x8 build/lib/mpack/mpack-platform.o
 .text.mpack_store_i64
                0x0000000000000000        0x8 build/lib/mpack/mpack-platform.o
 .text.mpack_load_float
                0x0000000000000000        0x8 build/lib/mpack/mpack-platform.o
 .text.mpack_load_double
                0x0000000000000000        0x8 build/lib/mpack/mpack-platform.o
 .text.mpack_store_float
                0x0000000000000000        0x8 build/lib/mpack/mpack-platform.o
 .text.mpack_store_double
                0x0000000000000000        0x8 build/lib/mpack/mpack-platform.o
 .text.mpack_writer_track_push
                0x0000000000000000        0x2 build/lib/mpack/mpack-platform.o
 .text.mpack_writer_track_pop
                0x0000000000000000        0x2 build/lib/mpack/mpack-platform.o
 .text.mpack_writer_track_element
                0x0000000000000000        0x2 build/lib/mpack/mpack-platform.o
 .text.mpack_writer_track_bytes
                0x0000000000000000        0x2 build/lib/mpack/mpack-platform.o
 .text.mpack_writer_set_context
                0x0000000000000000        0x4 build/lib/mpack/mpack-platform.o
 .text.mpack_writer_set_error_handler
                0x0000000000000000        0x4 build/lib/mpack/mpack-platform.o
 .text.mpack_writer_set_teardown
                0x0000000000000000        0x4 build/lib/mpack/mpack-platform.o
 .text.mpack_writer_buffer_used
                0x0000000000000000        0x8 build/lib/mpack/mpack-platform.o
 .text.mpack_writer_buffer_left
                0x0000000000000000        0x8 build/lib/mpack/mpack-platform.o
 .text.mpack_writer_buffer_size
                0x0000000000000000        0x8 build/lib/mpack/mpack-platform.o
 .text.mpack_writer_error
                0x0000000000000000        0x4 build/lib/mpack/mpack-platform.o
 .text.mpack_write_int
                0x0000000000000000        0x8 build/lib/mpack/mpack-platform.o
 .text.mpack_write_uint
                0x0000000000000000        0x8 build/lib/mpack/mpack-platform.o
 .text.mpack_write_timestamp_seconds
                0x0000000000000000        0xc build/lib/mpack/mpack-platform.o
 .text.mpack_write_timestamp_struct
                0x0000000000000000       0x1c build/lib/mpack/mpack-platform.o
 .text.mpack_finish_array
                0x0000000000000000        0x2 build/lib/mpack/mpack-platform.o
 .text.mpack_finish_map
                0x0000000000000000        0x2 build/lib/mpack/mpack-platform.o
 .text.mpack_finish_str
                0x0000000000000000        0x2 build/lib/mpack/mpack-platform.o
 .text.mpack_finish_bin
                0x0000000000000000        0x2 build/lib/mpack/mpack-platform.o
 .text.mpack_finish_ext
                0x0000000000000000        0x2 build/lib/mpack/mpack-platform.o
 .text.mpack_finish_type
                0x0000000000000000        0x2 build/lib/mpack/mpack-platform.o
 .text.mpack_reader_set_context
                0x0000000000000000        0x4 build/lib/mpack/mpack-platform.o
 .text.mpack_reader_set_error_handler
                0x0000000000000000        0x4 build/lib/mpack/mpack-platform.o
 .text.mpack_reader_set_teardown
                0x0000000000000000        0x4 build/lib/mpack/mpack-platform.o
 .text.mpack_reader_error
                0x0000000000000000        0x6 build/lib/mpack/mpack-platform.o
 .text.mpack_reader_flag_if_error
                0x0000000000000000       0x12 build/lib/mpack/mpack-platform.o
 .text.mpack_read_bytes_alloc
                0x0000000000000000        0xa build/lib/mpack/mpack-platform.o
 .text.mpack_should_read_bytes_inplace
                0x0000000000000000       0x16 build/lib/mpack/mpack-platform.o
 .text.mpack_done_type
                0x0000000000000000        0x2 build/lib/mpack/mpack-platform.o
 .text.mpack_done_array
                0x0000000000000000        0x2 build/lib/mpack/mpack-platform.o
 .text.mpack_done_map
                0x0000000000000000        0x2 build/lib/mpack/mpack-platform.o
 .text.mpack_done_str
                0x0000000000000000        0x2 build/lib/mpack/mpack-platform.o
 .text.mpack_done_bin
                0x0000000000000000        0x2 build/lib/mpack/mpack-platform.o
 .text.mpack_done_ext
                0x0000000000000000        0x2 build/lib/mpack/mpack-platform.o
 .text.mpack_read_native
                0x0000000000000000       0x28 build/lib/mpack/mpack-platform.o
 .text.mpack_reader_track_element
                0x0000000000000000        0x4 build/lib/mpack/mpack-platform.o
 .text.mpack_reader_track_peek_element
                0x0000000000000000        0x4 build/lib/mpack/mpack-platform.o
 .text.mpack_reader_track_bytes
                0x0000000000000000        0x4 build/lib/mpack/mpack-platform.o
 .text.mpack_reader_track_str_bytes_all
                0x0000000000000000        0x4 build/lib/mpack/mpack-platform.o
 .text.mpack_expect_uint_range
                0x0000000000000000        0x8 build/lib/mpack/mpack-platform.o
 .text.mpack_expect_u8_max
                0x0000000000000000        0xc build/lib/mpack/mpack-platform.o
 .text.mpack_expect_u16_max
                0x0000000000000000        0xc build/lib/mpack/mpack-platform.o
 .text.mpack_expect_u32_max
                0x0000000000000000        0xc build/lib/mpack/mpack-platform.o
 .text.mpack_expect_u64_max
                0x0000000000000000       0x12 build/lib/mpack/mpack-platform.o
 .text.mpack_expect_uint_max
                0x0000000000000000        0xc build/lib/mpack/mpack-platform.o
 .text.mpack_expect_int_range
                0x0000000000000000        0x8 build/lib/mpack/mpack-platform.o
 .text.mpack_expect_i8_max
                0x0000000000000000        0xc build/lib/mpack/mpack-platform.o
 .text.mpack_expect_i16_max
                0x0000000000000000        0xc build/lib/mpack/mpack-platform.o
 .text.mpack_expect_i32_max
                0x0000000000000000        0xc build/lib/mpack/mpack-platform.o
 .text.mpack_expect_i64_max
                0x0000000000000000       0x12 build/lib/mpack/mpack-platform.o
 .text.mpack_expect_int_max
                0x0000000000000000        0xc build/lib/mpack/mpack-platform.o
 .text.mpack_expect_uint
                0x0000000000000000        0x8 build/lib/mpack/mpack-platform.o
 .text.mpack_expect_int
                0x0000000000000000        0x8 build/lib/mpack/mpack-platform.o
 .text.mpack_expect_map_max
                0x0000000000000000        0xc build/lib/mpack/mpack-platform.o
 .text.mpack_expect_array_max
                0x0000000000000000        0xc build/lib/mpack/mpack-platform.o
 .text.mpack_expect_str_max
                0x0000000000000000       0x1a build/lib/mpack/mpack-platform.o
 .text.mpack_expect_str_length
                0x0000000000000000       0x18 build/lib/mpack/mpack-platform.o
 .text.mpack_expect_cstr_match
                0x0000000000000000       0x18 build/lib/mpack/mpack-platform.o
 .text.mpack_expect_bin_max
                0x0000000000000000       0x1a build/lib/mpack/mpack-platform.o
 .text.mpack_expect_bin_size
                0x0000000000000000       0x18 build/lib/mpack/mpack-platform.o
 .text.mpack_expect_ext_max
                0x0000000000000000       0x1a build/lib/mpack/mpack-platform.o
 .text.mpack_expect_ext_size
                0x0000000000000000       0x1e build/lib/mpack/mpack-platform.o
 .text.mpack_node
                0x0000000000000000        0x6 build/lib/mpack/mpack-platform.o
 .text.mpack_node_child
                0x0000000000000000        0xc build/lib/mpack/mpack-platform.o
 .text.mpack_tree_nil_node
                0x0000000000000000        0xa build/lib/mpack/mpack-platform.o
 .text.mpack_tree_missing_node
                0x0000000000000000        0xa build/lib/mpack/mpack-platform.o
 .text.mpack_tree_error
                0x0000000000000000        0x6 build/lib/mpack/mpack-platform.o
 .text.mpack_tree_size
                0x0000000000000000        0x4 build/lib/mpack/mpack-platform.o
 .text.mpack_tree_set_context
                0x0000000000000000        0x4 build/lib/mpack/mpack-platform.o
 .text.mpack_tree_set_error_handler
                0x0000000000000000        0x4 build/lib/mpack/mpack-platform.o
 .text.mpack_tree_set_teardown
                0x0000000000000000        0x4 build/lib/mpack/mpack-platform.o
 .text.mpack_node_error
                0x0000000000000000       0x10 build/lib/mpack/mpack-platform.o
 .text          0x0000000000000000        0x0 build/lib/mpack/mpack-reader.o
 .data          0x0000000000000000        0x0 build/lib/mpack/mpack-reader.o
 .bss           0x0000000000000000        0x0 build/lib/mpack/mpack-reader.o
 .text.mpack_reader_init
                0x0000000000000000       0x1e build/lib/mpack/mpack-reader.o
 .text.mpack_reader_init_error
                0x0000000000000000       0x14 build/lib/mpack/mpack-reader.o
 .text.mpack_reader_set_skip
                0x0000000000000000        0x4 build/lib/mpack/mpack-reader.o
 .text.mpack_reader_destroy
                0x0000000000000000       0x16 build/lib/mpack/mpack-reader.o
 .text.mpack_reader_set_fill
                0x0000000000000000       0x14 build/lib/mpack/mpack-reader.o
 .text.mpack_reader_skip_using_fill
                0x0000000000000000       0x46 build/lib/mpack/mpack-reader.o
 .text.mpack_skip_bytes_straddle
                0x0000000000000000       0x32 build/lib/mpack/mpack-reader.o
 .text.mpack_read_cstr_unchecked
                0x0000000000000000       0x2e build/lib/mpack/mpack-reader.o
 .text.mpack_read_native_straddle
                0x0000000000000000       0x9c build/lib/mpack/mpack-reader.o
 .text.mpack_skip_bytes
                0x0000000000000000       0x20 build/lib/mpack/mpack-reader.o
 .text.mpack_read_bytes
                0x0000000000000000        0x8 build/lib/mpack/mpack-reader.o
 .text.mpack_read_utf8
                0x0000000000000000       0x2a build/lib/mpack/mpack-reader.o
 .text.mpack_read_cstr
                0x0000000000000000       0x2c build/lib/mpack/mpack-reader.o
 .text.mpack_read_utf8_cstr
                0x0000000000000000       0x2c build/lib/mpack/mpack-reader.o
 .text.mpack_read_bytes_alloc_impl
                0x0000000000000000       0x78 build/lib/mpack/mpack-reader.o
 .text.mpack_peek_tag
                0x0000000000000000       0x48 build/lib/mpack/mpack-reader.o
 .text.mpack_discard
                0x0000000000000000       0x6a build/lib/mpack/mpack-reader.o
 .text.mpack_read_timestamp
                0x0000000000000000       0x80 build/lib/mpack/mpack-reader.o
 .text          0x0000000000000000        0x0 build/lib/mpack/mpack-writer.o
 .data          0x0000000000000000        0x0 build/lib/mpack/mpack-writer.o
 .bss           0x0000000000000000        0x0 build/lib/mpack/mpack-writer.o
 .text.mpack_writer_init_error
                0x0000000000000000       0x14 build/lib/mpack/mpack-writer.o
 .text.mpack_writer_flush_message
                0x0000000000000000       0x24 build/lib/mpack/mpack-writer.o
 .text.mpack_write_true
                0x0000000000000000        0xa build/lib/mpack/mpack-writer.o
 .text.mpack_write_false
                0x0000000000000000        0xa build/lib/mpack/mpack-writer.o
 .text.mpack_write_object_bytes
                0x0000000000000000        0x8 build/lib/mpack/mpack-writer.o
 .text.mpack_write_u8
                0x0000000000000000        0xc build/lib/mpack/mpack-writer.o
 .text.mpack_write_u16
                0x0000000000000000        0xc build/lib/mpack/mpack-writer.o
 .text.mpack_write_u32
                0x0000000000000000        0xc build/lib/mpack/mpack-writer.o
 .text.mpack_write_i8
                0x0000000000000000        0xc build/lib/mpack/mpack-writer.o
 .text.mpack_write_i16
                0x0000000000000000        0xc build/lib/mpack/mpack-writer.o
 .text.mpack_write_i32
                0x0000000000000000        0xc build/lib/mpack/mpack-writer.o
 .text.mpack_write_double
                0x0000000000000000       0x36 build/lib/mpack/mpack-writer.o
 .text.mpack_write_timestamp
                0x0000000000000000       0xc0 build/lib/mpack/mpack-writer.o
 .text.mpack_start_str
                0x0000000000000000        0x8 build/lib/mpack/mpack-writer.o
 .text.mpack_start_bin
                0x0000000000000000        0x8 build/lib/mpack/mpack-writer.o
 .text.mpack_start_ext
                0x0000000000000000      0x114 build/lib/mpack/mpack-writer.o
 .text.mpack_write_tag
                0x0000000000000000       0xae build/lib/mpack/mpack-writer.o
 .text.mpack_write_ext
                0x0000000000000000       0x1a build/lib/mpack/mpack-writer.o
 .text.mpack_write_cstr
                0x0000000000000000       0x18 build/lib/mpack/mpack-writer.o
 .text.mpack_write_cstr_or_nil
                0x0000000000000000       0x12 build/lib/mpack/mpack-writer.o
 .text.mpack_write_utf8
                0x0000000000000000       0x2a build/lib/mpack/mpack-writer.o
 .text.mpack_write_utf8_cstr
                0x0000000000000000       0x18 build/lib/mpack/mpack-writer.o
 .text.mpack_write_utf8_cstr_or_nil
                0x0000000000000000       0x12 build/lib/mpack/mpack-writer.o
 .text          0x0000000000000000        0x0 build/lib/utils/sys_stdio_mphal.o
 .data          0x0000000000000000        0x0 build/lib/utils/sys_stdio_mphal.o
 .bss           0x0000000000000000        0x0 build/lib/utils/sys_stdio_mphal.o
 .text          0x0000000000000000        0x0 build/lib/utils/stdout_helpers.o
 .data          0x0000000000000000        0x0 build/lib/utils/stdout_helpers.o
 .bss           0x0000000000000000        0x0 build/lib/utils/stdout_helpers.o
 .text          0x0000000000000000        0x0 build/lib/utils/interrupt_char.o
 .data          0x0000000000000000        0x0 build/lib/utils/interrupt_char.o
 .bss           0x0000000000000000        0x0 build/lib/utils/interrupt_char.o
 .text.mp_keyboard_interrupt
                0x0000000000000000       0x24 build/lib/utils/interrupt_char.o
 .text          0x0000000000000000        0x0 build/lib/utils/pyexec.o
 .data          0x0000000000000000        0x0 build/lib/utils/pyexec.o
 .bss           0x0000000000000000        0x0 build/lib/utils/pyexec.o
 .text.pyb_set_repl_info
                0x0000000000000000       0x1c build/lib/utils/pyexec.o
 .text.pyexec_file
                0x0000000000000000        0xc build/lib/utils/pyexec.o
 .rodata.pyb_set_repl_info_obj
                0x0000000000000000        0x8 build/lib/utils/pyexec.o
 .text          0x0000000000000000        0x0 build/lib/libc/string0.o
 .data          0x0000000000000000        0x0 build/lib/libc/string0.o
 .bss           0x0000000000000000        0x0 build/lib/libc/string0.o
 .text.memchr   0x0000000000000000       0x1a build/lib/libc/string0.o
 .text.strcpy   0x0000000000000000       0x14 build/lib/libc/string0.o
 .text.stpcpy   0x0000000000000000       0x12 build/lib/libc/string0.o
 .text.strcat   0x0000000000000000       0x1e build/lib/libc/string0.o
 .text.strstr   0x0000000000000000       0x36 build/lib/libc/string0.o
 .text          0x0000000000000000        0x0 build/lib/mp-readline/readline.o
 .data          0x0000000000000000        0x0 build/lib/mp-readline/readline.o
 .bss           0x0000000000000000        0x0 build/lib/mp-readline/readline.o
 .text.readline_init0
                0x0000000000000000       0x14 build/lib/mp-readline/readline.o
 .text.readline_note_newline
                0x0000000000000000       0x18 build/lib/mp-readline/readline.o
 .text          0x0000000000000000        0x0 build/lib/libm/math.o
 .data          0x0000000000000000        0x0 build/lib/libm/math.o
 .bss           0x0000000000000000        0x0 build/lib/libm/math.o
 .text.__signbitf
                0x0000000000000000        0x4 build/lib/libm/math.o
 .text.__fpclassifyf
                0x0000000000000000       0x22 build/lib/libm/math.o
 .text          0x0000000000000000        0x0 build/lib/libm/acoshf.o
 .data          0x0000000000000000        0x0 build/lib/libm/acoshf.o
 .bss           0x0000000000000000        0x0 build/lib/libm/acoshf.o
 .text          0x0000000000000000        0x0 build/lib/libm/asinfacosf.o
 .data          0x0000000000000000        0x0 build/lib/libm/asinfacosf.o
 .bss           0x0000000000000000        0x0 build/lib/libm/asinfacosf.o
 .text          0x0000000000000000        0x0 build/lib/libm/asinhf.o
 .data          0x0000000000000000        0x0 build/lib/libm/asinhf.o
 .bss           0x0000000000000000        0x0 build/lib/libm/asinhf.o
 .text          0x0000000000000000        0x0 build/lib/libm/atan2f.o
 .data          0x0000000000000000        0x0 build/lib/libm/atan2f.o
 .bss           0x0000000000000000        0x0 build/lib/libm/atan2f.o
 .text          0x0000000000000000        0x0 build/lib/libm/atanf.o
 .data          0x0000000000000000        0x0 build/lib/libm/atanf.o
 .bss           0x0000000000000000        0x0 build/lib/libm/atanf.o
 .text          0x0000000000000000        0x0 build/lib/libm/atanhf.o
 .data          0x0000000000000000        0x0 build/lib/libm/atanhf.o
 .bss           0x0000000000000000        0x0 build/lib/libm/atanhf.o
 .text          0x0000000000000000        0x0 build/lib/libm/ef_rem_pio2.o
 .data          0x0000000000000000        0x0 build/lib/libm/ef_rem_pio2.o
 .bss           0x0000000000000000        0x0 build/lib/libm/ef_rem_pio2.o
 .text          0x0000000000000000        0x0 build/lib/libm/ef_sqrt.o
 .data          0x0000000000000000        0x0 build/lib/libm/ef_sqrt.o
 .bss           0x0000000000000000        0x0 build/lib/libm/ef_sqrt.o
 .text          0x0000000000000000        0x0 build/lib/libm/erf_lgamma.o
 .data          0x0000000000000000        0x0 build/lib/libm/erf_lgamma.o
 .bss           0x0000000000000000        0x0 build/lib/libm/erf_lgamma.o
 .text          0x0000000000000000        0x0 build/lib/libm/fmodf.o
 .data          0x0000000000000000        0x0 build/lib/libm/fmodf.o
 .bss           0x0000000000000000        0x0 build/lib/libm/fmodf.o
 .text          0x0000000000000000        0x0 build/lib/libm/kf_cos.o
 .data          0x0000000000000000        0x0 build/lib/libm/kf_cos.o
 .bss           0x0000000000000000        0x0 build/lib/libm/kf_cos.o
 .text          0x0000000000000000        0x0 build/lib/libm/kf_rem_pio2.o
 .data          0x0000000000000000        0x0 build/lib/libm/kf_rem_pio2.o
 .bss           0x0000000000000000        0x0 build/lib/libm/kf_rem_pio2.o
 .text          0x0000000000000000        0x0 build/lib/libm/kf_sin.o
 .data          0x0000000000000000        0x0 build/lib/libm/kf_sin.o
 .bss           0x0000000000000000        0x0 build/lib/libm/kf_sin.o
 .text          0x0000000000000000        0x0 build/lib/libm/kf_tan.o
 .data          0x0000000000000000        0x0 build/lib/libm/kf_tan.o
 .bss           0x0000000000000000        0x0 build/lib/libm/kf_tan.o
 .text          0x0000000000000000        0x0 build/lib/libm/log1pf.o
 .data          0x0000000000000000        0x0 build/lib/libm/log1pf.o
 .bss           0x0000000000000000        0x0 build/lib/libm/log1pf.o
 .text          0x0000000000000000        0x0 build/lib/libm/nearbyintf.o
 .data          0x0000000000000000        0x0 build/lib/libm/nearbyintf.o
 .bss           0x0000000000000000        0x0 build/lib/libm/nearbyintf.o
 .text          0x0000000000000000        0x0 build/lib/libm/sf_cos.o
 .data          0x0000000000000000        0x0 build/lib/libm/sf_cos.o
 .bss           0x0000000000000000        0x0 build/lib/libm/sf_cos.o
 .text          0x0000000000000000        0x0 build/lib/libm/sf_erf.o
 .data          0x0000000000000000        0x0 build/lib/libm/sf_erf.o
 .bss           0x0000000000000000        0x0 build/lib/libm/sf_erf.o
 .text          0x0000000000000000        0x0 build/lib/libm/sf_frexp.o
 .data          0x0000000000000000        0x0 build/lib/libm/sf_frexp.o
 .bss           0x0000000000000000        0x0 build/lib/libm/sf_frexp.o
 .text          0x0000000000000000        0x0 build/lib/libm/sf_ldexp.o
 .data          0x0000000000000000        0x0 build/lib/libm/sf_ldexp.o
 .bss           0x0000000000000000        0x0 build/lib/libm/sf_ldexp.o
 .text          0x0000000000000000        0x0 build/lib/libm/sf_modf.o
 .data          0x0000000000000000        0x0 build/lib/libm/sf_modf.o
 .bss           0x0000000000000000        0x0 build/lib/libm/sf_modf.o
 .text          0x0000000000000000        0x0 build/lib/libm/sf_sin.o
 .data          0x0000000000000000        0x0 build/lib/libm/sf_sin.o
 .bss           0x0000000000000000        0x0 build/lib/libm/sf_sin.o
 .text          0x0000000000000000        0x0 build/lib/libm/sf_tan.o
 .data          0x0000000000000000        0x0 build/lib/libm/sf_tan.o
 .bss           0x0000000000000000        0x0 build/lib/libm/sf_tan.o
 .text          0x0000000000000000        0x0 build/lib/libm/wf_lgamma.o
 .data          0x0000000000000000        0x0 build/lib/libm/wf_lgamma.o
 .bss           0x0000000000000000        0x0 build/lib/libm/wf_lgamma.o
 .text          0x0000000000000000        0x0 build/lib/libm/wf_tgamma.o
 .data          0x0000000000000000        0x0 build/lib/libm/wf_tgamma.o
 .bss           0x0000000000000000        0x0 build/lib/libm/wf_tgamma.o
 .data          0x0000000000000000        0x0 /opt/gcc-arm-none-eabi-7-2018-q2-update/bin/../lib/gcc/arm-none-eabi/7.3.1/thumb/v6-m/libgcc.a(_udivsi3.o)
 .bss           0x0000000000000000        0x0 /opt/gcc-arm-none-eabi-7-2018-q2-update/bin/../lib/gcc/arm-none-eabi/7.3.1/thumb/v6-m/libgcc.a(_udivsi3.o)
 .data          0x0000000000000000        0x0 /opt/gcc-arm-none-eabi-7-2018-q2-update/bin/../lib/gcc/arm-none-eabi/7.3.1/thumb/v6-m/libgcc.a(_divsi3.o)
 .bss           0x0000000000000000        0x0 /opt/gcc-arm-none-eabi-7-2018-q2-update/bin/../lib/gcc/arm-none-eabi/7.3.1/thumb/v6-m/libgcc.a(_divsi3.o)
 .data          0x0000000000000000        0x0 /opt/gcc-arm-none-eabi-7-2018-q2-update/bin/../lib/gcc/arm-none-eabi/7.3.1/thumb/v6-m/libgcc.a(_dvmd_tls.o)
 .bss           0x0000000000000000        0x0 /opt/gcc-arm-none-eabi-7-2018-q2-update/bin/../lib/gcc/arm-none-eabi/7.3.1/thumb/v6-m/libgcc.a(_dvmd_tls.o)
 .text          0x0000000000000000       0x7c /opt/gcc-arm-none-eabi-7-2018-q2-update/bin/../lib/gcc/arm-none-eabi/7.3.1/thumb/v6-m/libgcc.a(_arm_cmpdf2.o)
 .data          0x0000000000000000        0x0 /opt/gcc-arm-none-eabi-7-2018-q2-update/bin/../lib/gcc/arm-none-eabi/7.3.1/thumb/v6-m/libgcc.a(_arm_cmpdf2.o)
 .bss           0x0000000000000000        0x0 /opt/gcc-arm-none-eabi-7-2018-q2-update/bin/../lib/gcc/arm-none-eabi/7.3.1/thumb/v6-m/libgcc.a(_arm_cmpdf2.o)
 .ARM.attributes
                0x0000000000000000       0x1e /opt/gcc-arm-none-eabi-7-2018-q2-update/bin/../lib/gcc/arm-none-eabi/7.3.1/thumb/v6-m/libgcc.a(_arm_cmpdf2.o)
 .data          0x0000000000000000        0x0 /opt/gcc-arm-none-eabi-7-2018-q2-update/bin/../lib/gcc/arm-none-eabi/7.3.1/thumb/v6-m/libgcc.a(_arm_cmpsf2.o)
 .bss           0x0000000000000000        0x0 /opt/gcc-arm-none-eabi-7-2018-q2-update/bin/../lib/gcc/arm-none-eabi/7.3.1/thumb/v6-m/libgcc.a(_arm_cmpsf2.o)
 .data          0x0000000000000000        0x0 /opt/gcc-arm-none-eabi-7-2018-q2-update/bin/../lib/gcc/arm-none-eabi/7.3.1/thumb/v6-m/libgcc.a(_fixunssfsi.o)
 .bss           0x0000000000000000        0x0 /opt/gcc-arm-none-eabi-7-2018-q2-update/bin/../lib/gcc/arm-none-eabi/7.3.1/thumb/v6-m/libgcc.a(_fixunssfsi.o)
 .text          0x0000000000000000       0x64 /opt/gcc-arm-none-eabi-7-2018-q2-update/bin/../lib/gcc/arm-none-eabi/7.3.1/thumb/v6-m/libgcc.a(_floatdisf.o)
 .data          0x0000000000000000        0x0 /opt/gcc-arm-none-eabi-7-2018-q2-update/bin/../lib/gcc/arm-none-eabi/7.3.1/thumb/v6-m/libgcc.a(_floatdisf.o)
 .bss           0x0000000000000000        0x0 /opt/gcc-arm-none-eabi-7-2018-q2-update/bin/../lib/gcc/arm-none-eabi/7.3.1/thumb/v6-m/libgcc.a(_floatdisf.o)
 .debug_frame   0x0000000000000000       0x2c /opt/gcc-arm-none-eabi-7-2018-q2-update/bin/../lib/gcc/arm-none-eabi/7.3.1/thumb/v6-m/libgcc.a(_floatdisf.o)
 .ARM.attributes
                0x0000000000000000       0x2c /opt/gcc-arm-none-eabi-7-2018-q2-update/bin/../lib/gcc/arm-none-eabi/7.3.1/thumb/v6-m/libgcc.a(_floatdisf.o)
 .text          0x0000000000000000       0x2c /opt/gcc-arm-none-eabi-7-2018-q2-update/bin/../lib/gcc/arm-none-eabi/7.3.1/thumb/v6-m/libgcc.a(_floatdidf.o)
 .data          0x0000000000000000        0x0 /opt/gcc-arm-none-eabi-7-2018-q2-update/bin/../lib/gcc/arm-none-eabi/7.3.1/thumb/v6-m/libgcc.a(_floatdidf.o)
 .bss           0x0000000000000000        0x0 /opt/gcc-arm-none-eabi-7-2018-q2-update/bin/../lib/gcc/arm-none-eabi/7.3.1/thumb/v6-m/libgcc.a(_floatdidf.o)
 .debug_frame   0x0000000000000000       0x2c /opt/gcc-arm-none-eabi-7-2018-q2-update/bin/../lib/gcc/arm-none-eabi/7.3.1/thumb/v6-m/libgcc.a(_floatdidf.o)
 .ARM.attributes
                0x0000000000000000       0x2c /opt/gcc-arm-none-eabi-7-2018-q2-update/bin/../lib/gcc/arm-none-eabi/7.3.1/thumb/v6-m/libgcc.a(_floatdidf.o)
 .text          0x0000000000000000       0x48 /opt/gcc-arm-none-eabi-7-2018-q2-update/bin/../lib/gcc/arm-none-eabi/7.3.1/thumb/v6-m/libgcc.a(_floatundisf.o)
 .data          0x0000000000000000        0x0 /opt/gcc-arm-none-eabi-7-2018-q2-update/bin/../lib/gcc/arm-none-eabi/7.3.1/thumb/v6-m/libgcc.a(_floatundisf.o)
 .bss           0x0000000000000000        0x0 /opt/gcc-arm-none-eabi-7-2018-q2-update/bin/../lib/gcc/arm-none-eabi/7.3.1/thumb/v6-m/libgcc.a(_floatundisf.o)
 .debug_frame   0x0000000000000000       0x2c /opt/gcc-arm-none-eabi-7-2018-q2-update/bin/../lib/gcc/arm-none-eabi/7.3.1/thumb/v6-m/libgcc.a(_floatundisf.o)
 .ARM.attributes
                0x0000000000000000       0x2c /opt/gcc-arm-none-eabi-7-2018-q2-update/bin/../lib/gcc/arm-none-eabi/7.3.1/thumb/v6-m/libgcc.a(_floatundisf.o)
 .text          0x0000000000000000       0x2c /opt/gcc-arm-none-eabi-7-2018-q2-update/bin/../lib/gcc/arm-none-eabi/7.3.1/thumb/v6-m/libgcc.a(_floatundidf.o)
 .data          0x0000000000000000        0x0 /opt/gcc-arm-none-eabi-7-2018-q2-update/bin/../lib/gcc/arm-none-eabi/7.3.1/thumb/v6-m/libgcc.a(_floatundidf.o)
 .bss           0x0000000000000000        0x0 /opt/gcc-arm-none-eabi-7-2018-q2-update/bin/../lib/gcc/arm-none-eabi/7.3.1/thumb/v6-m/libgcc.a(_floatundidf.o)
 .debug_frame   0x0000000000000000       0x2c /opt/gcc-arm-none-eabi-7-2018-q2-update/bin/../lib/gcc/arm-none-eabi/7.3.1/thumb/v6-m/libgcc.a(_floatundidf.o)
 .ARM.attributes
                0x0000000000000000       0x2c /opt/gcc-arm-none-eabi-7-2018-q2-update/bin/../lib/gcc/arm-none-eabi/7.3.1/thumb/v6-m/libgcc.a(_floatundidf.o)
 .data          0x0000000000000000        0x0 /opt/gcc-arm-none-eabi-7-2018-q2-update/bin/../lib/gcc/arm-none-eabi/7.3.1/thumb/v6-m/libgcc.a(addsf3.o)
 .bss           0x0000000000000000        0x0 /opt/gcc-arm-none-eabi-7-2018-q2-update/bin/../lib/gcc/arm-none-eabi/7.3.1/thumb/v6-m/libgcc.a(addsf3.o)
 .data          0x0000000000000000        0x0 /opt/gcc-arm-none-eabi-7-2018-q2-update/bin/../lib/gcc/arm-none-eabi/7.3.1/thumb/v6-m/libgcc.a(divsf3.o)
 .bss           0x0000000000000000        0x0 /opt/gcc-arm-none-eabi-7-2018-q2-update/bin/../lib/gcc/arm-none-eabi/7.3.1/thumb/v6-m/libgcc.a(divsf3.o)
 .data          0x0000000000000000        0x0 /opt/gcc-arm-none-eabi-7-2018-q2-update/bin/../lib/gcc/arm-none-eabi/7.3.1/thumb/v6-m/libgcc.a(eqsf2.o)
 .bss           0x0000000000000000        0x0 /opt/gcc-arm-none-eabi-7-2018-q2-update/bin/../lib/gcc/arm-none-eabi/7.3.1/thumb/v6-m/libgcc.a(eqsf2.o)
 .data          0x0000000000000000        0x0 /opt/gcc-arm-none-eabi-7-2018-q2-update/bin/../lib/gcc/arm-none-eabi/7.3.1/thumb/v6-m/libgcc.a(gesf2.o)
 .bss           0x0000000000000000        0x0 /opt/gcc-arm-none-eabi-7-2018-q2-update/bin/../lib/gcc/arm-none-eabi/7.3.1/thumb/v6-m/libgcc.a(gesf2.o)
 .data          0x0000000000000000        0x0 /opt/gcc-arm-none-eabi-7-2018-q2-update/bin/../lib/gcc/arm-none-eabi/7.3.1/thumb/v6-m/libgcc.a(lesf2.o)
 .bss           0x0000000000000000        0x0 /opt/gcc-arm-none-eabi-7-2018-q2-update/bin/../lib/gcc/arm-none-eabi/7.3.1/thumb/v6-m/libgcc.a(lesf2.o)
 .data          0x0000000000000000        0x0 /opt/gcc-arm-none-eabi-7-2018-q2-update/bin/../lib/gcc/arm-none-eabi/7.3.1/thumb/v6-m/libgcc.a(mulsf3.o)
 .bss           0x0000000000000000        0x0 /opt/gcc-arm-none-eabi-7-2018-q2-update/bin/../lib/gcc/arm-none-eabi/7.3.1/thumb/v6-m/libgcc.a(mulsf3.o)
 .data          0x0000000000000000        0x0 /opt/gcc-arm-none-eabi-7-2018-q2-update/bin/../lib/gcc/arm-none-eabi/7.3.1/thumb/v6-m/libgcc.a(subsf3.o)
 .bss           0x0000000000000000        0x0 /opt/gcc-arm-none-eabi-7-2018-q2-update/bin/../lib/gcc/arm-none-eabi/7.3.1/thumb/v6-m/libgcc.a(subsf3.o)
 .data          0x0000000000000000        0x0 /opt/gcc-arm-none-eabi-7-2018-q2-update/bin/../lib/gcc/arm-none-eabi/7.3.1/thumb/v6-m/libgcc.a(unordsf2.o)
 .bss           0x0000000000000000        0x0 /opt/gcc-arm-none-eabi-7-2018-q2-update/bin/../lib/gcc/arm-none-eabi/7.3.1/thumb/v6-m/libgcc.a(unordsf2.o)
 .data          0x0000000000000000        0x0 /opt/gcc-arm-none-eabi-7-2018-q2-update/bin/../lib/gcc/arm-none-eabi/7.3.1/thumb/v6-m/libgcc.a(fixsfsi.o)
 .bss           0x0000000000000000        0x0 /opt/gcc-arm-none-eabi-7-2018-q2-update/bin/../lib/gcc/arm-none-eabi/7.3.1/thumb/v6-m/libgcc.a(fixsfsi.o)
 .data          0x0000000000000000        0x0 /opt/gcc-arm-none-eabi-7-2018-q2-update/bin/../lib/gcc/arm-none-eabi/7.3.1/thumb/v6-m/libgcc.a(floatsisf.o)
 .bss           0x0000000000000000        0x0 /opt/gcc-arm-none-eabi-7-2018-q2-update/bin/../lib/gcc/arm-none-eabi/7.3.1/thumb/v6-m/libgcc.a(floatsisf.o)
 .data          0x0000000000000000        0x0 /opt/gcc-arm-none-eabi-7-2018-q2-update/bin/../lib/gcc/arm-none-eabi/7.3.1/thumb/v6-m/libgcc.a(floatunsisf.o)
 .bss           0x0000000000000000        0x0 /opt/gcc-arm-none-eabi-7-2018-q2-update/bin/../lib/gcc/arm-none-eabi/7.3.1/thumb/v6-m/libgcc.a(floatunsisf.o)
 .text          0x0000000000000000      0x638 /opt/gcc-arm-none-eabi-7-2018-q2-update/bin/../lib/gcc/arm-none-eabi/7.3.1/thumb/v6-m/libgcc.a(adddf3.o)
 .data          0x0000000000000000        0x0 /opt/gcc-arm-none-eabi-7-2018-q2-update/bin/../lib/gcc/arm-none-eabi/7.3.1/thumb/v6-m/libgcc.a(adddf3.o)
 .bss           0x0000000000000000        0x0 /opt/gcc-arm-none-eabi-7-2018-q2-update/bin/../lib/gcc/arm-none-eabi/7.3.1/thumb/v6-m/libgcc.a(adddf3.o)
 .debug_frame   0x0000000000000000       0x38 /opt/gcc-arm-none-eabi-7-2018-q2-update/bin/../lib/gcc/arm-none-eabi/7.3.1/thumb/v6-m/libgcc.a(adddf3.o)
 .ARM.attributes
                0x0000000000000000       0x2c /opt/gcc-arm-none-eabi-7-2018-q2-update/bin/../lib/gcc/arm-none-eabi/7.3.1/thumb/v6-m/libgcc.a(adddf3.o)
 .text          0x0000000000000000       0x78 /opt/gcc-arm-none-eabi-7-2018-q2-update/bin/../lib/gcc/arm-none-eabi/7.3.1/thumb/v6-m/libgcc.a(eqdf2.o)
 .data          0x0000000000000000        0x0 /opt/gcc-arm-none-eabi-7-2018-q2-update/bin/../lib/gcc/arm-none-eabi/7.3.1/thumb/v6-m/libgcc.a(eqdf2.o)
 .bss           0x0000000000000000        0x0 /opt/gcc-arm-none-eabi-7-2018-q2-update/bin/../lib/gcc/arm-none-eabi/7.3.1/thumb/v6-m/libgcc.a(eqdf2.o)
 .debug_frame   0x0000000000000000       0x38 /opt/gcc-arm-none-eabi-7-2018-q2-update/bin/../lib/gcc/arm-none-eabi/7.3.1/thumb/v6-m/libgcc.a(eqdf2.o)
 .ARM.attributes
                0x0000000000000000       0x2c /opt/gcc-arm-none-eabi-7-2018-q2-update/bin/../lib/gcc/arm-none-eabi/7.3.1/thumb/v6-m/libgcc.a(eqdf2.o)
 .text          0x0000000000000000       0xc8 /opt/gcc-arm-none-eabi-7-2018-q2-update/bin/../lib/gcc/arm-none-eabi/7.3.1/thumb/v6-m/libgcc.a(gedf2.o)
 .data          0x0000000000000000        0x0 /opt/gcc-arm-none-eabi-7-2018-q2-update/bin/../lib/gcc/arm-none-eabi/7.3.1/thumb/v6-m/libgcc.a(gedf2.o)
 .bss           0x0000000000000000        0x0 /opt/gcc-arm-none-eabi-7-2018-q2-update/bin/../lib/gcc/arm-none-eabi/7.3.1/thumb/v6-m/libgcc.a(gedf2.o)
 .debug_frame   0x0000000000000000       0x38 /opt/gcc-arm-none-eabi-7-2018-q2-update/bin/../lib/gcc/arm-none-eabi/7.3.1/thumb/v6-m/libgcc.a(gedf2.o)
 .ARM.attributes
                0x0000000000000000       0x2c /opt/gcc-arm-none-eabi-7-2018-q2-update/bin/../lib/gcc/arm-none-eabi/7.3.1/thumb/v6-m/libgcc.a(gedf2.o)
 .text          0x0000000000000000       0xd0 /opt/gcc-arm-none-eabi-7-2018-q2-update/bin/../lib/gcc/arm-none-eabi/7.3.1/thumb/v6-m/libgcc.a(ledf2.o)
 .data          0x0000000000000000        0x0 /opt/gcc-arm-none-eabi-7-2018-q2-update/bin/../lib/gcc/arm-none-eabi/7.3.1/thumb/v6-m/libgcc.a(ledf2.o)
 .bss           0x0000000000000000        0x0 /opt/gcc-arm-none-eabi-7-2018-q2-update/bin/../lib/gcc/arm-none-eabi/7.3.1/thumb/v6-m/libgcc.a(ledf2.o)
 .debug_frame   0x0000000000000000       0x38 /opt/gcc-arm-none-eabi-7-2018-q2-update/bin/../lib/gcc/arm-none-eabi/7.3.1/thumb/v6-m/libgcc.a(ledf2.o)
 .ARM.attributes
                0x0000000000000000       0x2c /opt/gcc-arm-none-eabi-7-2018-q2-update/bin/../lib/gcc/arm-none-eabi/7.3.1/thumb/v6-m/libgcc.a(ledf2.o)
 .text          0x0000000000000000      0x4e4 /opt/gcc-arm-none-eabi-7-2018-q2-update/bin/../lib/gcc/arm-none-eabi/7.3.1/thumb/v6-m/libgcc.a(muldf3.o)
 .data          0x0000000000000000        0x0 /opt/gcc-arm-none-eabi-7-2018-q2-update/bin/../lib/gcc/arm-none-eabi/7.3.1/thumb/v6-m/libgcc.a(muldf3.o)
 .bss           0x0000000000000000        0x0 /opt/gcc-arm-none-eabi-7-2018-q2-update/bin/../lib/gcc/arm-none-eabi/7.3.1/thumb/v6-m/libgcc.a(muldf3.o)
 .rodata        0x0000000000000000       0x40 /opt/gcc-arm-none-eabi-7-2018-q2-update/bin/../lib/gcc/arm-none-eabi/7.3.1/thumb/v6-m/libgcc.a(muldf3.o)
 .debug_frame   0x0000000000000000       0x3c /opt/gcc-arm-none-eabi-7-2018-q2-update/bin/../lib/gcc/arm-none-eabi/7.3.1/thumb/v6-m/libgcc.a(muldf3.o)
 .ARM.attributes
                0x0000000000000000       0x2c /opt/gcc-arm-none-eabi-7-2018-q2-update/bin/../lib/gcc/arm-none-eabi/7.3.1/thumb/v6-m/libgcc.a(muldf3.o)
 .data          0x0000000000000000        0x0 /opt/gcc-arm-none-eabi-7-2018-q2-update/bin/../lib/gcc/arm-none-eabi/7.3.1/thumb/v6-m/libgcc.a(floatsidf.o)
 .bss           0x0000000000000000        0x0 /opt/gcc-arm-none-eabi-7-2018-q2-update/bin/../lib/gcc/arm-none-eabi/7.3.1/thumb/v6-m/libgcc.a(floatsidf.o)
 .text          0x0000000000000000       0x64 /opt/gcc-arm-none-eabi-7-2018-q2-update/bin/../lib/gcc/arm-none-eabi/7.3.1/thumb/v6-m/libgcc.a(floatunsidf.o)
 .data          0x0000000000000000        0x0 /opt/gcc-arm-none-eabi-7-2018-q2-update/bin/../lib/gcc/arm-none-eabi/7.3.1/thumb/v6-m/libgcc.a(floatunsidf.o)
 .bss           0x0000000000000000        0x0 /opt/gcc-arm-none-eabi-7-2018-q2-update/bin/../lib/gcc/arm-none-eabi/7.3.1/thumb/v6-m/libgcc.a(floatunsidf.o)
 .debug_frame   0x0000000000000000       0x28 /opt/gcc-arm-none-eabi-7-2018-q2-update/bin/../lib/gcc/arm-none-eabi/7.3.1/thumb/v6-m/libgcc.a(floatunsidf.o)
 .ARM.attributes
                0x0000000000000000       0x2c /opt/gcc-arm-none-eabi-7-2018-q2-update/bin/../lib/gcc/arm-none-eabi/7.3.1/thumb/v6-m/libgcc.a(floatunsidf.o)
 .data          0x0000000000000000        0x0 /opt/gcc-arm-none-eabi-7-2018-q2-update/bin/../lib/gcc/arm-none-eabi/7.3.1/thumb/v6-m/libgcc.a(extendsfdf2.o)
 .bss           0x0000000000000000        0x0 /opt/gcc-arm-none-eabi-7-2018-q2-update/bin/../lib/gcc/arm-none-eabi/7.3.1/thumb/v6-m/libgcc.a(extendsfdf2.o)
 .data          0x0000000000000000        0x0 /opt/gcc-arm-none-eabi-7-2018-q2-update/bin/../lib/gcc/arm-none-eabi/7.3.1/thumb/v6-m/libgcc.a(truncdfsf2.o)
 .bss           0x0000000000000000        0x0 /opt/gcc-arm-none-eabi-7-2018-q2-update/bin/../lib/gcc/arm-none-eabi/7.3.1/thumb/v6-m/libgcc.a(truncdfsf2.o)
 .data          0x0000000000000000        0x0 /opt/gcc-arm-none-eabi-7-2018-q2-update/bin/../lib/gcc/arm-none-eabi/7.3.1/thumb/v6-m/libgcc.a(_clzsi2.o)
 .bss           0x0000000000000000        0x0 /opt/gcc-arm-none-eabi-7-2018-q2-update/bin/../lib/gcc/arm-none-eabi/7.3.1/thumb/v6-m/libgcc.a(_clzsi2.o)

Memory Configuration

Name             Origin             Length             Attributes
FLASH            0x0000000008000000 0x0000000000040000 xr
SRAM             0x0000000020000000 0x0000000000010000 rw
RAM              0x0000000060000000 0x0000000000030000 rw
*default*        0x0000000000000000 0xffffffffffffffff

Linker script and memory map

                0x0000000000004000                _minimum_stack_size = 0x4000
                0x0000000000020000                _minimum_heap_size = 0x20000
                0x0000000020010000                _estack = (ORIGIN (SRAM) + LENGTH (SRAM))
                0x0000000020000000                _sram_start = ORIGIN (SRAM)
                0x0000000020010000                _sram_end = (ORIGIN (SRAM) + LENGTH (SRAM))
                0x0000000060000000                _ram_start = ORIGIN (RAM)
                0x0000000060030000                _ram_end = (ORIGIN (RAM) + LENGTH (RAM))

.startup        0x0000000008000000       0x10
                0x0000000008000000                . = ALIGN (0x4)
                0x0000000008000000                _svec = .
 *(.startup)
 .startup       0x0000000008000000       0x10 build/machine.o
                0x0000000008000000                startup_vector
                0x0000000008000010                . = ALIGN (0x4)

.text           0x0000000008000010    0x2c574
                0x0000000008000010                . = ALIGN (0x4)
 *(.text*)
 .text.nlr_push_tail
                0x0000000008000010       0x14 build/py/nlr.o
                0x0000000008000010                nlr_push_tail
 .text.nlr_pop  0x0000000008000024       0x10 build/py/nlr.o
                0x0000000008000024                nlr_pop
 .text.nlr_push
                0x0000000008000034       0x28 build/py/nlrthumb.o
                0x0000000008000034                nlr_push
 .text.nlr_jump
                0x000000000800005c       0x44 build/py/nlrthumb.o
                0x000000000800005c                nlr_jump
 .text.m_malloc
                0x00000000080000a0       0x40 build/py/malloc.o
                0x00000000080000a0                m_malloc
 .text.m_malloc_maybe
                0x00000000080000e0       0x30 build/py/malloc.o
                0x00000000080000e0                m_malloc_maybe
 .text.m_malloc0
                0x0000000008000110        0x8 build/py/malloc.o
                0x0000000008000110                m_malloc0
 .text.m_realloc
                0x0000000008000118       0x44 build/py/malloc.o
                0x0000000008000118                m_realloc
 .text.m_realloc_maybe
                0x000000000800015c       0x40 build/py/malloc.o
                0x000000000800015c                m_realloc_maybe
 .text.m_free   0x000000000800019c       0x1c build/py/malloc.o
                0x000000000800019c                m_free
 .text.m_get_total_bytes_allocated
                0x00000000080001b8       0x10 build/py/malloc.o
                0x00000000080001b8                m_get_total_bytes_allocated
 .text.m_get_current_bytes_allocated
                0x00000000080001c8       0x10 build/py/malloc.o
                0x00000000080001c8                m_get_current_bytes_allocated
 .text.m_get_peak_bytes_allocated
                0x00000000080001d8       0x10 build/py/malloc.o
                0x00000000080001d8                m_get_peak_bytes_allocated
 .text.gc_mark_subtree
                0x00000000080001e8       0xf0 build/py/gc.o
 .text.gc_init  0x00000000080002d8       0x80 build/py/gc.o
                0x00000000080002d8                gc_init
 .text.gc_lock  0x0000000008000358       0x14 build/py/gc.o
                0x0000000008000358                gc_lock
 .text.gc_unlock
                0x000000000800036c       0x14 build/py/gc.o
                0x000000000800036c                gc_unlock
 .text.gc_is_locked
                0x0000000008000380       0x14 build/py/gc.o
                0x0000000008000380                gc_is_locked
 .text.gc_collect_start
                0x0000000008000394      0x114 build/py/gc.o
                0x0000000008000394                gc_collect_start
 .text.gc_collect_root
                0x00000000080004a8       0x88 build/py/gc.o
                0x00000000080004a8                gc_collect_root
 .text.gc_collect_end
                0x0000000008000530      0x19c build/py/gc.o
                0x0000000008000530                gc_collect_end
 .text.gc_info  0x00000000080006cc      0x118 build/py/gc.o
                0x00000000080006cc                gc_info
 .text.gc_alloc
                0x00000000080007e4      0x1cc build/py/gc.o
                0x00000000080007e4                gc_alloc
 .text.gc_free  0x00000000080009b0       0x84 build/py/gc.o
                0x00000000080009b0                gc_free
 .text.gc_nbytes
                0x0000000008000a34       0x6c build/py/gc.o
                0x0000000008000a34                gc_nbytes
 .text.gc_realloc
                0x0000000008000aa0      0x2a8 build/py/gc.o
                0x0000000008000aa0                gc_realloc
 .text.gc_dump_info
                0x0000000008000d48      0x13c build/py/gc.o
                0x0000000008000d48                gc_dump_info
 .text.gc_dump_alloc_table
                0x0000000008000e84      0x1c4 build/py/gc.o
                0x0000000008000e84                gc_dump_alloc_table
 .text.mp_pystack_init
                0x0000000008001048       0x10 build/py/pystack.o
                0x0000000008001048                mp_pystack_init
 .text.mp_pystack_alloc
                0x0000000008001058       0x30 build/py/pystack.o
                0x0000000008001058                mp_pystack_alloc
 .text.find_qstr
                0x0000000008001088       0x1c build/py/qstr.o
 .text.qstr_compute_hash
                0x00000000080010a4       0x24 build/py/qstr.o
                0x00000000080010a4                qstr_compute_hash
 .text.qstr_init
                0x00000000080010c8       0x18 build/py/qstr.o
                0x00000000080010c8                qstr_init
 .text.qstr_find_strn
                0x00000000080010e0       0x6c build/py/qstr.o
                0x00000000080010e0                qstr_find_strn
 .text.qstr_from_strn
                0x000000000800114c      0x128 build/py/qstr.o
                0x000000000800114c                qstr_from_strn
 .text.qstr_from_str
                0x0000000008001274       0x12 build/py/qstr.o
                0x0000000008001274                qstr_from_str
 .text.qstr_hash
                0x0000000008001286       0x10 build/py/qstr.o
                0x0000000008001286                qstr_hash
 .text.qstr_len
                0x0000000008001296        0xa build/py/qstr.o
                0x0000000008001296                qstr_len
 .text.qstr_str
                0x00000000080012a0        0xa build/py/qstr.o
                0x00000000080012a0                qstr_str
 .text.qstr_data
                0x00000000080012aa       0x10 build/py/qstr.o
                0x00000000080012aa                qstr_data
 *fill*         0x00000000080012ba        0x2 
 .text.qstr_pool_info
                0x00000000080012bc       0x78 build/py/qstr.o
                0x00000000080012bc                qstr_pool_info
 .text.qstr_dump_data
                0x0000000008001334       0x44 build/py/qstr.o
                0x0000000008001334                qstr_dump_data
 .text.vstr_ensure_extra
                0x0000000008001378       0x38 build/py/vstr.o
 .text.vstr_add_strn
                0x00000000080013b0       0x24 build/py/vstr.o
                0x00000000080013b0                vstr_add_strn
 .text.vstr_ins_blank_bytes.constprop.2
                0x00000000080013d4       0x30 build/py/vstr.o
 .text.vstr_init
                0x0000000008001404       0x22 build/py/vstr.o
                0x0000000008001404                vstr_init
 .text.vstr_init_len
                0x0000000008001426       0x10 build/py/vstr.o
                0x0000000008001426                vstr_init_len
 .text.vstr_init_fixed_buf
                0x0000000008001436       0x12 build/py/vstr.o
                0x0000000008001436                vstr_init_fixed_buf
 .text.vstr_init_print
                0x0000000008001448       0x18 build/py/vstr.o
                0x0000000008001448                vstr_init_print
 .text.vstr_clear
                0x0000000008001460       0x18 build/py/vstr.o
                0x0000000008001460                vstr_clear
 .text.vstr_new
                0x0000000008001478       0x16 build/py/vstr.o
                0x0000000008001478                vstr_new
 .text.vstr_free
                0x000000000800148e       0x1e build/py/vstr.o
                0x000000000800148e                vstr_free
 .text.vstr_extend
                0x00000000080014ac       0x30 build/py/vstr.o
                0x00000000080014ac                vstr_extend
 .text.vstr_add_len
                0x00000000080014dc       0x16 build/py/vstr.o
                0x00000000080014dc                vstr_add_len
 .text.vstr_null_terminated_str
                0x00000000080014f2       0x1e build/py/vstr.o
                0x00000000080014f2                vstr_null_terminated_str
 .text.vstr_add_byte
                0x0000000008001510        0xe build/py/vstr.o
                0x0000000008001510                vstr_add_byte
 *fill*         0x000000000800151e        0x2 
 .text.vstr_add_char
                0x0000000008001520       0x98 build/py/vstr.o
                0x0000000008001520                vstr_add_char
 .text.vstr_add_str
                0x00000000080015b8       0x18 build/py/vstr.o
                0x00000000080015b8                vstr_add_str
 .text.vstr_ins_byte
                0x00000000080015d0        0xc build/py/vstr.o
                0x00000000080015d0                vstr_ins_byte
 .text.vstr_ins_char
                0x00000000080015dc        0xc build/py/vstr.o
                0x00000000080015dc                vstr_ins_char
 .text.vstr_cut_tail_bytes
                0x00000000080015e8       0x10 build/py/vstr.o
                0x00000000080015e8                vstr_cut_tail_bytes
 .text.vstr_cut_out_bytes
                0x00000000080015f8       0x2e build/py/vstr.o
                0x00000000080015f8                vstr_cut_out_bytes
 .text.plat_print_strn
                0x0000000008001626        0xc build/py/mpprint.o
 .text.mp_print_str
                0x0000000008001632       0x1e build/py/mpprint.o
                0x0000000008001632                mp_print_str
 .text.mp_print_strn
                0x0000000008001650       0xb8 build/py/mpprint.o
                0x0000000008001650                mp_print_strn
 .text.mp_print_int
                0x0000000008001708       0xda build/py/mpprint.o
 *fill*         0x00000000080017e2        0x2 
 .text.mp_print_mp_int
                0x00000000080017e4      0x240 build/py/mpprint.o
                0x00000000080017e4                mp_print_mp_int
 .text.mp_print_float
                0x0000000008001a24       0x8a build/py/mpprint.o
                0x0000000008001a24                mp_print_float
 *fill*         0x0000000008001aae        0x2 
 .text.mp_vprintf
                0x0000000008001ab0      0x2a0 build/py/mpprint.o
                0x0000000008001ab0                mp_vprintf
 .text.mp_printf
                0x0000000008001d50       0x16 build/py/mpprint.o
                0x0000000008001d50                mp_printf
 .text.utf8_get_char
                0x0000000008001d66       0x36 build/py/unicode.o
                0x0000000008001d66                utf8_get_char
 .text.utf8_next_char
                0x0000000008001d9c       0x12 build/py/unicode.o
                0x0000000008001d9c                utf8_next_char
 .text.utf8_ptr_to_index
                0x0000000008001dae       0x1e build/py/unicode.o
                0x0000000008001dae                utf8_ptr_to_index
 .text.utf8_charlen
                0x0000000008001dcc       0x20 build/py/unicode.o
                0x0000000008001dcc                utf8_charlen
 .text.unichar_isspace
                0x0000000008001dec       0x18 build/py/unicode.o
                0x0000000008001dec                unichar_isspace
 .text.unichar_isalpha
                0x0000000008001e04       0x18 build/py/unicode.o
                0x0000000008001e04                unichar_isalpha
 .text.unichar_isdigit
                0x0000000008001e1c       0x18 build/py/unicode.o
                0x0000000008001e1c                unichar_isdigit
 .text.unichar_isxdigit
                0x0000000008001e34       0x18 build/py/unicode.o
                0x0000000008001e34                unichar_isxdigit
 .text.unichar_isident
                0x0000000008001e4c       0x20 build/py/unicode.o
                0x0000000008001e4c                unichar_isident
 .text.unichar_isupper
                0x0000000008001e6c       0x18 build/py/unicode.o
                0x0000000008001e6c                unichar_isupper
 .text.unichar_islower
                0x0000000008001e84       0x18 build/py/unicode.o
                0x0000000008001e84                unichar_islower
 .text.unichar_tolower
                0x0000000008001e9c       0x12 build/py/unicode.o
                0x0000000008001e9c                unichar_tolower
 .text.unichar_toupper
                0x0000000008001eae       0x12 build/py/unicode.o
                0x0000000008001eae                unichar_toupper
 .text.unichar_xdigit_value
                0x0000000008001ec0        0xe build/py/unicode.o
                0x0000000008001ec0                unichar_xdigit_value
 .text.utf8_check
                0x0000000008001ece       0x4e build/py/unicode.o
                0x0000000008001ece                utf8_check
 .text.mpn_remove_trailing_zeros
                0x0000000008001f1c       0x14 build/py/mpz.o
 .text.mpn_shr  0x0000000008001f30       0x3e build/py/mpz.o
 .text.mpn_add  0x0000000008001f6e       0x58 build/py/mpz.o
 .text.mpn_sub  0x0000000008001fc6       0x50 build/py/mpz.o
 *fill*         0x0000000008002016        0x2 
 .text.mpn_xor_neg
                0x0000000008002018       0x70 build/py/mpz.o
 .text.mpz_need_dig
                0x0000000008002088       0x32 build/py/mpz.o
 .text.mpz_clone
                0x00000000080020ba       0x4c build/py/mpz.o
 .text.mpn_cmp.part.1
                0x0000000008002106       0x2c build/py/mpz.o
 .text.mpz_free
                0x0000000008002132       0x1c build/py/mpz.o
 .text.mpz_set_from_int.part.4
                0x000000000800214e       0x3a build/py/mpz.o
 .text.mpz_init_zero
                0x0000000008002188        0xa build/py/mpz.o
                0x0000000008002188                mpz_init_zero
 .text.mpz_deinit
                0x0000000008002192       0x1a build/py/mpz.o
                0x0000000008002192                mpz_deinit
 .text.mpz_set  0x00000000080021ac       0x2e build/py/mpz.o
                0x00000000080021ac                mpz_set
 .text.mpz_set_from_int
                0x00000000080021da       0x10 build/py/mpz.o
                0x00000000080021da                mpz_set_from_int
 .text.mpz_init_from_int
                0x00000000080021ea       0x14 build/py/mpz.o
                0x00000000080021ea                mpz_init_from_int
 .text.mpz_init_fixed_from_int
                0x00000000080021fe       0x2a build/py/mpz.o
                0x00000000080021fe                mpz_init_fixed_from_int
 .text.mpz_set_from_ll
                0x0000000008002228       0x58 build/py/mpz.o
                0x0000000008002228                mpz_set_from_ll
 .text.mpz_set_from_float
                0x0000000008002280       0xbe build/py/mpz.o
                0x0000000008002280                mpz_set_from_float
 .text.mpz_set_from_str
                0x000000000800233e       0xa4 build/py/mpz.o
                0x000000000800233e                mpz_set_from_str
 .text.mpz_set_from_bytes
                0x00000000080023e2       0x6a build/py/mpz.o
                0x00000000080023e2                mpz_set_from_bytes
 .text.mpz_cmp  0x000000000800244c       0x46 build/py/mpz.o
                0x000000000800244c                mpz_cmp
 .text.mpz_abs_inpl
                0x0000000008002492       0x16 build/py/mpz.o
                0x0000000008002492                mpz_abs_inpl
 .text.mpz_neg_inpl
                0x00000000080024a8       0x20 build/py/mpz.o
                0x00000000080024a8                mpz_neg_inpl
 .text.mpz_not_inpl
                0x00000000080024c8       0x6e build/py/mpz.o
                0x00000000080024c8                mpz_not_inpl
 *fill*         0x0000000008002536        0x2 
 .text.mpz_shl_inpl
                0x0000000008002538       0xd0 build/py/mpz.o
                0x0000000008002538                mpz_shl_inpl
 .text.mpz_shr_inpl
                0x0000000008002608       0xc2 build/py/mpz.o
                0x0000000008002608                mpz_shr_inpl
 .text.mpz_add_inpl
                0x00000000080026ca       0x74 build/py/mpz.o
                0x00000000080026ca                mpz_add_inpl
 .text.mpz_sub_inpl
                0x000000000800273e       0x82 build/py/mpz.o
                0x000000000800273e                mpz_sub_inpl
 .text.mpz_and_inpl
                0x00000000080027c0      0x136 build/py/mpz.o
                0x00000000080027c0                mpz_and_inpl
 .text.mpz_or_inpl
                0x00000000080028f6      0x128 build/py/mpz.o
                0x00000000080028f6                mpz_or_inpl
 .text.mpz_xor_inpl
                0x0000000008002a1e       0xda build/py/mpz.o
                0x0000000008002a1e                mpz_xor_inpl
 .text.mpz_mul_inpl
                0x0000000008002af8      0x106 build/py/mpz.o
                0x0000000008002af8                mpz_mul_inpl
 .text.mpz_pow_inpl
                0x0000000008002bfe       0x84 build/py/mpz.o
                0x0000000008002bfe                mpz_pow_inpl
 *fill*         0x0000000008002c82        0x2 
 .text.mpz_divmod_inpl
                0x0000000008002c84      0x2b0 build/py/mpz.o
                0x0000000008002c84                mpz_divmod_inpl
 .text.mpz_pow3_inpl
                0x0000000008002f34       0xb6 build/py/mpz.o
                0x0000000008002f34                mpz_pow3_inpl
 .text.mpz_hash
                0x0000000008002fea       0x28 build/py/mpz.o
                0x0000000008002fea                mpz_hash
 *fill*         0x0000000008003012        0x2 
 .text.mpz_as_int_checked
                0x0000000008003014       0x38 build/py/mpz.o
                0x0000000008003014                mpz_as_int_checked
 .text.mpz_as_bytes
                0x000000000800304c       0x8e build/py/mpz.o
                0x000000000800304c                mpz_as_bytes
 .text.mpz_as_float
                0x00000000080030da       0x3c build/py/mpz.o
                0x00000000080030da                mpz_as_float
 .text.mpz_as_str_inpl
                0x0000000008003116      0x120 build/py/mpz.o
                0x0000000008003116                mpz_as_str_inpl
 .text.mp_reader_mem_readbyte
                0x0000000008003236       0x16 build/py/reader.o
 .text.mp_reader_mem_close
                0x000000000800324c       0x1a build/py/reader.o
 *fill*         0x0000000008003266        0x2 
 .text.mp_reader_new_mem
                0x0000000008003268       0x30 build/py/reader.o
                0x0000000008003268                mp_reader_new_mem
 .text.is_string_or_bytes
                0x0000000008003298       0x50 build/py/lexer.o
 .text.next_char
                0x00000000080032e8       0x60 build/py/lexer.o
 .text.skip_whitespace
                0x0000000008003348       0x66 build/py/lexer.o
 *fill*         0x00000000080033ae        0x2 
 .text.mp_lexer_to_next
                0x00000000080033b0      0x570 build/py/lexer.o
                0x00000000080033b0                mp_lexer_to_next
 .text.mp_lexer_new
                0x0000000008003920       0x7a build/py/lexer.o
                0x0000000008003920                mp_lexer_new
 .text.mp_lexer_new_from_str_len
                0x000000000800399a       0x1a build/py/lexer.o
                0x000000000800399a                mp_lexer_new_from_str_len
 .text.mp_lexer_new_from_file
                0x00000000080039b4       0x20 build/py/lexer.o
                0x00000000080039b4                mp_lexer_new_from_file
 .text.mp_lexer_free
                0x00000000080039d4       0x28 build/py/lexer.o
                0x00000000080039d4                mp_lexer_free
 .text.pop_result
                0x00000000080039fc        0xe build/py/parse.o
 *fill*         0x0000000008003a0a        0x2 
 .text.peek_result
                0x0000000008003a0c       0x14 build/py/parse.o
 .text.parser_alloc
                0x0000000008003a20       0x70 build/py/parse.o
 .text.push_result_node
                0x0000000008003a90       0x30 build/py/parse.o
 .text.push_rule
                0x0000000008003ac0       0x46 build/py/parse.o
 .text.push_rule_from_arg
                0x0000000008003b06       0x10 build/py/parse.o
 *fill*         0x0000000008003b16        0x2 
 .text.push_result_token
                0x0000000008003b18       0xe0 build/py/parse.o
 .text.mp_parse_node_is_const_false
                0x0000000008003bf8       0x18 build/py/parse.o
                0x0000000008003bf8                mp_parse_node_is_const_false
 .text.mp_parse_node_is_const_true
                0x0000000008003c10       0x1a build/py/parse.o
                0x0000000008003c10                mp_parse_node_is_const_true
 *fill*         0x0000000008003c2a        0x2 
 .text.mp_parse_node_get_int_maybe
                0x0000000008003c2c       0x50 build/py/parse.o
                0x0000000008003c2c                mp_parse_node_get_int_maybe
 .text.push_result_rule
                0x0000000008003c7c      0x3cc build/py/parse.o
 .text.mp_parse_node_extract_list
                0x0000000008004048       0x28 build/py/parse.o
                0x0000000008004048                mp_parse_node_extract_list
 .text.mp_parse
                0x0000000008004070      0x368 build/py/parse.o
                0x0000000008004070                mp_parse
 .text.mp_parse_tree_clear
                0x00000000080043d8       0x18 build/py/parse.o
                0x00000000080043d8                mp_parse_tree_clear
 .text.scope_new
                0x00000000080043f0       0x4c build/py/scope.o
                0x00000000080043f0                scope_new
 .text.scope_free
                0x000000000800443c       0x18 build/py/scope.o
                0x000000000800443c                scope_free
 .text.scope_find
                0x0000000008004454       0x20 build/py/scope.o
                0x0000000008004454                scope_find
 .text.scope_find_or_add_id
                0x0000000008004474       0x46 build/py/scope.o
                0x0000000008004474                scope_find_or_add_id
 .text.scope_find_global
                0x00000000080044ba       0x12 build/py/scope.o
                0x00000000080044ba                scope_find_global
 .text.scope_find_local_and_close_over
                0x00000000080044cc       0x58 build/py/scope.o
                0x00000000080044cc                scope_find_local_and_close_over
 .text.apply_to_single_or_list
                0x0000000008004524       0x3c build/py/compile.o
 .text.compile_del_stmt
                0x0000000008004560       0x14 build/py/compile.o
 .text.compile_import_name
                0x0000000008004574       0x14 build/py/compile.o
 .text.scope_new_and_link
                0x0000000008004588       0x2c build/py/compile.o
 .text.compile_trailer_period
                0x00000000080045b4       0x10 build/py/compile.o
 .text.compile_const_object
                0x00000000080045c4        0xc build/py/compile.o
 .text.close_over_variables_etc
                0x00000000080045d0       0xa0 build/py/compile.o
 .text.compile_funcdef_lambdef
                0x0000000008004670       0x5c build/py/compile.o
 .text.compile_lambdef
                0x00000000080046cc       0x28 build/py/compile.o
 .text.compile_funcdef_helper
                0x00000000080046f4       0x2a build/py/compile.o
 .text.compile_increase_except_level
                0x000000000800471e       0x1e build/py/compile.o
 .text.compile_decrease_except_level
                0x000000000800473c       0x10 build/py/compile.o
 .text.compile_error_set_line.isra.0
                0x000000000800474c       0x14 build/py/compile.o
 .text.compile_syntax_error
                0x0000000008004760       0x28 build/py/compile.o
 .text.compile_star_expr
                0x0000000008004788       0x10 build/py/compile.o
 .text.compile_break_cont_stmt
                0x0000000008004798       0x40 build/py/compile.o
 .text.compile_scope_func_lambda_param.isra.4
                0x00000000080047d8       0xa8 build/py/compile.o
 .text.compile_scope_lambda_param
                0x0000000008004880        0xc build/py/compile.o
 .text.compile_scope_func_param
                0x000000000800488c        0xc build/py/compile.o
 .text.compile_yield_from.isra.5
                0x0000000008004898       0x1e build/py/compile.o
 .text.compile_await_object_method
                0x00000000080048b6       0x22 build/py/compile.o
 .text.compile_load_id
                0x00000000080048d8       0x24 build/py/compile.o
 .text.compile_store_id
                0x00000000080048fc       0x24 build/py/compile.o
 .text.compile_funcdef
                0x0000000008004920       0x16 build/py/compile.o
 *fill*         0x0000000008004936        0x2 
 .text.compile_delete_id
                0x0000000008004938       0x24 build/py/compile.o
 .text.compile_node
                0x000000000800495c       0x94 build/py/compile.o
 .text.c_assign
                0x00000000080049f0      0x184 build/py/compile.o
 .text.c_assign_tuple
                0x0000000008004b74       0xd4 build/py/compile.o
 .text.c_if_cond
                0x0000000008004c48       0xe4 build/py/compile.o
 .text.compile_scope_comp_iter
                0x0000000008004d2c       0xb2 build/py/compile.o
 *fill*         0x0000000008004dde        0x2 
 .text.check_for_doc_string
                0x0000000008004de0       0xa8 build/py/compile.o
 .text.compile_scope
                0x0000000008004e88      0x1bc build/py/compile.o
 .text.compile_dictorsetmaker_item
                0x0000000008005044       0x16 build/py/compile.o
 .text.compile_subscript
                0x000000000800505a       0x84 build/py/compile.o
 .text.compile_trailer_bracket
                0x00000000080050de       0x14 build/py/compile.o
 .text.c_tuple  0x00000000080050f2       0x42 build/py/compile.o
 .text.compile_generic_tuple
                0x0000000008005134        0xc build/py/compile.o
 .text.compile_while_stmt
                0x0000000008005140       0x8c build/py/compile.o
 .text.compile_yield_stmt
                0x00000000080051cc       0x12 build/py/compile.o
 *fill*         0x00000000080051de        0x2 
 .text.c_del_stmt
                0x00000000080051e0      0x104 build/py/compile.o
 .text.compile_generic_all_nodes
                0x00000000080052e4       0x36 build/py/compile.o
 .text.compile_power
                0x000000000800531a       0x12 build/py/compile.o
 .text.compile_if_stmt
                0x000000000800532c       0xe4 build/py/compile.o
 .text.compile_comprehension
                0x0000000008005410       0x4a build/py/compile.o
 .text.compile_atom_bracket
                0x000000000800545a       0x88 build/py/compile.o
 *fill*         0x00000000080054e2        0x2 
 .text.compile_trailer_paren_helper
                0x00000000080054e4      0x158 build/py/compile.o
 .text.compile_classdef_helper
                0x000000000800563c       0x56 build/py/compile.o
 .text.compile_classdef
                0x0000000008005692       0x16 build/py/compile.o
 .text.compile_trailer_paren
                0x00000000080056a8        0xe build/py/compile.o
 *fill*         0x00000000080056b6        0x2 
 .text.compile_decorated
                0x00000000080056b8      0x108 build/py/compile.o
 .text.compile_atom_brace
                0x00000000080057c0      0x130 build/py/compile.o
 .text.compile_funcdef_lambdef_param
                0x00000000080058f0       0xa4 build/py/compile.o
 .text.compile_atom_expr_normal
                0x0000000008005994      0x12c build/py/compile.o
 .text.compile_term
                0x0000000008005ac0       0x4c build/py/compile.o
 .text.compile_binary_op
                0x0000000008005b0c       0x3a build/py/compile.o
 *fill*         0x0000000008005b46        0x2 
 .text.compile_expr_stmt
                0x0000000008005b48      0x1b8 build/py/compile.o
 .text.compile_factor_2
                0x0000000008005d00       0x2a build/py/compile.o
 .text.compile_not_test_2
                0x0000000008005d2a       0x14 build/py/compile.o
 .text.compile_or_and_test
                0x0000000008005d3e       0x50 build/py/compile.o
 *fill*         0x0000000008005d8e        0x2 
 .text.compile_comparison
                0x0000000008005d90       0xc8 build/py/compile.o
 .text.compile_test_if_expr
                0x0000000008005e58       0x50 build/py/compile.o
 .text.compile_for_stmt
                0x0000000008005ea8      0x2a0 build/py/compile.o
 .text.compile_with_stmt_helper
                0x0000000008006148       0x8a build/py/compile.o
 .text.compile_with_stmt
                0x00000000080061d2       0x20 build/py/compile.o
 *fill*         0x00000000080061f2        0x2 
 .text.compile_try_except
                0x00000000080061f4      0x180 build/py/compile.o
 .text.compile_try_finally
                0x0000000008006374       0x72 build/py/compile.o
 .text.compile_try_stmt
                0x00000000080063e6       0x6a build/py/compile.o
 .text.compile_async_with_stmt_helper
                0x0000000008006450      0x1e6 build/py/compile.o
 .text.compile_async_stmt
                0x0000000008006636      0x15a build/py/compile.o
 .text.compile_yield_expr
                0x0000000008006790       0x5c build/py/compile.o
 .text.compile_return_stmt
                0x00000000080067ec       0x70 build/py/compile.o
 .text.compile_atom_paren
                0x000000000800685c       0x3e build/py/compile.o
 *fill*         0x000000000800689a        0x2 
 .text.compile_atom_expr_await
                0x000000000800689c       0x2c build/py/compile.o
 .text.compile_assert_stmt
                0x00000000080068c8       0x5c build/py/compile.o
 .text.compile_raise_stmt
                0x0000000008006924       0x3a build/py/compile.o
 *fill*         0x000000000800695e        0x2 
 .text.compile_global_nonlocal_stmt
                0x0000000008006960       0xc0 build/py/compile.o
 .text.do_import_name.isra.18
                0x0000000008006a20      0x100 build/py/compile.o
 .text.compile_import_from
                0x0000000008006b20      0x11c build/py/compile.o
 .text.compile_dotted_as_name
                0x0000000008006c3c       0x2c build/py/compile.o
 .text.mp_compile
                0x0000000008006c68      0x25a build/py/compile.o
                0x0000000008006c68                mp_compile
 .text.mp_emit_common_get_id_for_load
                0x0000000008006ec2       0x22 build/py/emitcommon.o
                0x0000000008006ec2                mp_emit_common_get_id_for_load
 .text.mp_emit_common_get_id_for_modification
                0x0000000008006ee4       0x32 build/py/emitcommon.o
                0x0000000008006ee4                mp_emit_common_get_id_for_modification
 .text.mp_emit_common_id_op
                0x0000000008006f16       0x3c build/py/emitcommon.o
                0x0000000008006f16                mp_emit_common_id_op
 .text.emit_write_uint
                0x0000000008006f52       0x3e build/py/emitbc.o
 .text.emit_get_cur_to_write_code_info
                0x0000000008006f90       0x1a build/py/emitbc.o
 .text.emit_write_code_info_byte
                0x0000000008006faa        0xe build/py/emitbc.o
 .text.emit_get_cur_to_write_bytecode
                0x0000000008006fb8       0x1e build/py/emitbc.o
 .text.emit_write_bytecode_byte
                0x0000000008006fd6        0xe build/py/emitbc.o
 .text.emit_write_bytecode_byte_uint
                0x0000000008006fe4       0x1c build/py/emitbc.o
 .text.emit_write_bytecode_byte_raw_code
                0x0000000008007000       0x2a build/py/emitbc.o
 .text.mp_emit_bc_delete_local
                0x000000000800702a        0xc build/py/emitbc.o
                0x000000000800702a                mp_emit_bc_delete_local
 .text.emit_write_bytecode_byte_qstr
                0x0000000008007036       0x16 build/py/emitbc.o
 .text.emit_write_bytecode_byte_unsigned_label
                0x000000000800704c       0x2a build/py/emitbc.o
 *fill*         0x0000000008007076        0x2 
 .text.emit_write_bytecode_byte_signed_label
                0x0000000008007078       0x30 build/py/emitbc.o
 .text.emit_write_bytecode_byte_obj.constprop.8
                0x00000000080070a8       0x26 build/py/emitbc.o
 .text.emit_bc_new
                0x00000000080070ce        0xa build/py/emitbc.o
                0x00000000080070ce                emit_bc_new
 .text.emit_bc_set_max_num_labels
                0x00000000080070d8       0x10 build/py/emitbc.o
                0x00000000080070d8                emit_bc_set_max_num_labels
 .text.emit_bc_free
                0x00000000080070e8       0x18 build/py/emitbc.o
                0x00000000080070e8                emit_bc_free
 .text.mp_emit_bc_start_pass
                0x0000000008007100      0x124 build/py/emitbc.o
                0x0000000008007100                mp_emit_bc_start_pass
 .text.mp_emit_bc_end_pass
                0x0000000008007224       0x58 build/py/emitbc.o
                0x0000000008007224                mp_emit_bc_end_pass
 .text.mp_emit_bc_last_emit_was_return_value
                0x000000000800727c        0xa build/py/emitbc.o
                0x000000000800727c                mp_emit_bc_last_emit_was_return_value
 .text.mp_emit_bc_adjust_stack_size
                0x0000000008007286       0x1c build/py/emitbc.o
                0x0000000008007286                mp_emit_bc_adjust_stack_size
 .text.mp_emit_bc_load_local
                0x00000000080072a2       0x32 build/py/emitbc.o
                0x00000000080072a2                mp_emit_bc_load_local
 .text.mp_emit_bc_load_global
                0x00000000080072d4       0x24 build/py/emitbc.o
                0x00000000080072d4                mp_emit_bc_load_global
 .text.mp_emit_bc_store_local
                0x00000000080072f8       0x34 build/py/emitbc.o
                0x00000000080072f8                mp_emit_bc_store_local
 .text.mp_emit_bc_store_global
                0x000000000800732c       0x20 build/py/emitbc.o
                0x000000000800732c                mp_emit_bc_store_global
 .text.mp_emit_bc_delete_global
                0x000000000800734c       0x1c build/py/emitbc.o
                0x000000000800734c                mp_emit_bc_delete_global
 .text.emit_bc_call_function_method_helper
                0x0000000008007368       0x3c build/py/emitbc.o
 .text.mp_emit_bc_set_source_line
                0x00000000080073a4       0x98 build/py/emitbc.o
                0x00000000080073a4                mp_emit_bc_set_source_line
 .text.mp_emit_bc_label_assign
                0x000000000800743c       0x20 build/py/emitbc.o
                0x000000000800743c                mp_emit_bc_label_assign
 .text.mp_emit_bc_import
                0x000000000800745c       0x38 build/py/emitbc.o
                0x000000000800745c                mp_emit_bc_import
 .text.mp_emit_bc_load_const_tok
                0x0000000008007494       0x38 build/py/emitbc.o
                0x0000000008007494                mp_emit_bc_load_const_tok
 .text.mp_emit_bc_load_const_small_int
                0x00000000080074cc       0x90 build/py/emitbc.o
                0x00000000080074cc                mp_emit_bc_load_const_small_int
 .text.mp_emit_bc_load_const_str
                0x000000000800755c       0x18 build/py/emitbc.o
                0x000000000800755c                mp_emit_bc_load_const_str
 .text.mp_emit_bc_load_const_obj
                0x0000000008007574       0x16 build/py/emitbc.o
                0x0000000008007574                mp_emit_bc_load_const_obj
 .text.mp_emit_bc_load_null
                0x000000000800758a       0x14 build/py/emitbc.o
                0x000000000800758a                mp_emit_bc_load_null
 .text.mp_emit_bc_load_method
                0x000000000800759e       0x24 build/py/emitbc.o
                0x000000000800759e                mp_emit_bc_load_method
 .text.mp_emit_bc_load_build_class
                0x00000000080075c2       0x14 build/py/emitbc.o
                0x00000000080075c2                mp_emit_bc_load_build_class
 .text.mp_emit_bc_dup_top
                0x00000000080075d6       0x14 build/py/emitbc.o
                0x00000000080075d6                mp_emit_bc_dup_top
 .text.mp_emit_bc_dup_top_two
                0x00000000080075ea       0x14 build/py/emitbc.o
                0x00000000080075ea                mp_emit_bc_dup_top_two
 .text.mp_emit_bc_pop_top
                0x00000000080075fe       0x16 build/py/emitbc.o
                0x00000000080075fe                mp_emit_bc_pop_top
 .text.mp_emit_bc_rot_two
                0x0000000008007614       0x14 build/py/emitbc.o
                0x0000000008007614                mp_emit_bc_rot_two
 .text.mp_emit_bc_attr
                0x0000000008007628       0x42 build/py/emitbc.o
                0x0000000008007628                mp_emit_bc_attr
 .text.mp_emit_bc_rot_three
                0x000000000800766a       0x14 build/py/emitbc.o
                0x000000000800766a                mp_emit_bc_rot_three
 .text.mp_emit_bc_subscr
                0x000000000800767e       0x34 build/py/emitbc.o
                0x000000000800767e                mp_emit_bc_subscr
 .text.mp_emit_bc_jump
                0x00000000080076b2       0x18 build/py/emitbc.o
                0x00000000080076b2                mp_emit_bc_jump
 .text.mp_emit_bc_pop_jump_if
                0x00000000080076ca       0x22 build/py/emitbc.o
                0x00000000080076ca                mp_emit_bc_pop_jump_if
 .text.mp_emit_bc_jump_if_or_pop
                0x00000000080076ec       0x22 build/py/emitbc.o
                0x00000000080076ec                mp_emit_bc_jump_if_or_pop
 *fill*         0x000000000800770e        0x2 
 .text.mp_emit_bc_unwind_jump
                0x0000000008007710       0x64 build/py/emitbc.o
                0x0000000008007710                mp_emit_bc_unwind_jump
 .text.mp_emit_bc_setup_block
                0x0000000008007774       0x24 build/py/emitbc.o
                0x0000000008007774                mp_emit_bc_setup_block
 .text.mp_emit_bc_end_finally
                0x0000000008007798       0x16 build/py/emitbc.o
                0x0000000008007798                mp_emit_bc_end_finally
 .text.mp_emit_bc_get_iter
                0x00000000080077ae       0x26 build/py/emitbc.o
                0x00000000080077ae                mp_emit_bc_get_iter
 .text.mp_emit_bc_for_iter
                0x00000000080077d4       0x18 build/py/emitbc.o
                0x00000000080077d4                mp_emit_bc_for_iter
 .text.mp_emit_bc_for_iter_end
                0x00000000080077ec        0xc build/py/emitbc.o
                0x00000000080077ec                mp_emit_bc_for_iter_end
 .text.mp_emit_bc_pop_block
                0x00000000080077f8       0x14 build/py/emitbc.o
                0x00000000080077f8                mp_emit_bc_pop_block
 .text.mp_emit_bc_with_cleanup
                0x000000000800780c       0x36 build/py/emitbc.o
                0x000000000800780c                mp_emit_bc_with_cleanup
 .text.mp_emit_bc_pop_except
                0x0000000008007842       0x14 build/py/emitbc.o
                0x0000000008007842                mp_emit_bc_pop_except
 .text.mp_emit_bc_unary_op
                0x0000000008007856       0x1a build/py/emitbc.o
                0x0000000008007856                mp_emit_bc_unary_op
 .text.mp_emit_bc_binary_op
                0x0000000008007870       0x44 build/py/emitbc.o
                0x0000000008007870                mp_emit_bc_binary_op
 .text.mp_emit_bc_build
                0x00000000080078b4       0x28 build/py/emitbc.o
                0x00000000080078b4                mp_emit_bc_build
 .text.mp_emit_bc_store_map
                0x00000000080078dc       0x16 build/py/emitbc.o
                0x00000000080078dc                mp_emit_bc_store_map
 .text.mp_emit_bc_store_comp
                0x00000000080078f2       0x34 build/py/emitbc.o
                0x00000000080078f2                mp_emit_bc_store_comp
 .text.mp_emit_bc_unpack_sequence
                0x0000000008007926       0x18 build/py/emitbc.o
                0x0000000008007926                mp_emit_bc_unpack_sequence
 .text.mp_emit_bc_unpack_ex
                0x000000000800793e       0x1c build/py/emitbc.o
                0x000000000800793e                mp_emit_bc_unpack_ex
 .text.mp_emit_bc_make_function
                0x000000000800795a       0x2a build/py/emitbc.o
                0x000000000800795a                mp_emit_bc_make_function
 .text.mp_emit_bc_make_closure
                0x0000000008007984       0x36 build/py/emitbc.o
                0x0000000008007984                mp_emit_bc_make_closure
 .text.mp_emit_bc_call_function
                0x00000000080079ba       0x12 build/py/emitbc.o
                0x00000000080079ba                mp_emit_bc_call_function
 .text.mp_emit_bc_call_method
                0x00000000080079cc       0x14 build/py/emitbc.o
                0x00000000080079cc                mp_emit_bc_call_method
 .text.mp_emit_bc_return_value
                0x00000000080079e0       0x1a build/py/emitbc.o
                0x00000000080079e0                mp_emit_bc_return_value
 .text.mp_emit_bc_raise_varargs
                0x00000000080079fa       0x1c build/py/emitbc.o
                0x00000000080079fa                mp_emit_bc_raise_varargs
 .text.mp_emit_bc_yield
                0x0000000008007a16       0x22 build/py/emitbc.o
                0x0000000008007a16                mp_emit_bc_yield
 .text.mp_emit_bc_start_except_handler
                0x0000000008007a38        0xa build/py/emitbc.o
                0x0000000008007a38                mp_emit_bc_start_except_handler
 .text.mp_emit_bc_end_except_handler
                0x0000000008007a42        0xc build/py/emitbc.o
                0x0000000008007a42                mp_emit_bc_end_except_handler
 *fill*         0x0000000008007a4e        0x2 
 .text.mp_format_float
                0x0000000008007a50      0x4b8 build/py/formatfloat.o
                0x0000000008007a50                mp_format_float
 .text.mp_parse_num_base
                0x0000000008007f08       0x7a build/py/parsenumbase.o
                0x0000000008007f08                mp_parse_num_base
 *fill*         0x0000000008007f82        0x2 
 .text.unlikely.raise_exc
                0x0000000008007f84       0x20 build/py/parsenum.o
 .text.mp_parse_num_integer
                0x0000000008007fa4      0x128 build/py/parsenum.o
                0x0000000008007fa4                mp_parse_num_integer
 .text.mp_parse_num_decimal
                0x00000000080080cc      0x2a8 build/py/parsenum.o
                0x00000000080080cc                mp_parse_num_decimal
 .text.mp_emit_glue_new_raw_code
                0x0000000008008374       0x18 build/py/emitglue.o
                0x0000000008008374                mp_emit_glue_new_raw_code
 .text.mp_emit_glue_assign_bytecode
                0x000000000800838c       0x2c build/py/emitglue.o
                0x000000000800838c                mp_emit_glue_assign_bytecode
 .text.mp_make_function_from_raw_code
                0x00000000080083b8       0x20 build/py/emitglue.o
                0x00000000080083b8                mp_make_function_from_raw_code
 .text.mp_make_closure_from_raw_code
                0x00000000080083d8       0x2a build/py/emitglue.o
                0x00000000080083d8                mp_make_closure_from_raw_code
 .text.read_bytes
                0x0000000008008402       0x1a build/py/persistentcode.o
 .text.read_uint
                0x000000000800841c       0x1e build/py/persistentcode.o
 .text.load_qstr
                0x000000000800843a       0x30 build/py/persistentcode.o
 *fill*         0x000000000800846a        0x2 
 .text.load_raw_code
                0x000000000800846c      0x1a0 build/py/persistentcode.o
 .text.mp_raw_code_load
                0x000000000800860c       0x44 build/py/persistentcode.o
                0x000000000800860c                mp_raw_code_load
 .text.mp_raw_code_load_file
                0x0000000008008650       0x14 build/py/persistentcode.o
                0x0000000008008650                mp_raw_code_load_file
 .text.mp_init  0x0000000008008664       0x78 build/py/runtime.o
                0x0000000008008664                mp_init
 .text.mp_deinit
                0x00000000080086dc        0x2 build/py/runtime.o
                0x00000000080086dc                mp_deinit
 *fill*         0x00000000080086de        0x2 
 .text.mp_load_global
                0x00000000080086e0       0x68 build/py/runtime.o
                0x00000000080086e0                mp_load_global
 .text.mp_load_name
                0x0000000008008748       0x30 build/py/runtime.o
                0x0000000008008748                mp_load_name
 .text.mp_load_build_class
                0x0000000008008778       0x2c build/py/runtime.o
                0x0000000008008778                mp_load_build_class
 .text.mp_store_name
                0x00000000080087a4       0x18 build/py/runtime.o
                0x00000000080087a4                mp_store_name
 .text.mp_delete_name
                0x00000000080087bc       0x18 build/py/runtime.o
                0x00000000080087bc                mp_delete_name
 .text.mp_store_global
                0x00000000080087d4       0x18 build/py/runtime.o
                0x00000000080087d4                mp_store_global
 .text.mp_delete_global
                0x00000000080087ec       0x18 build/py/runtime.o
                0x00000000080087ec                mp_delete_global
 .text.mp_unary_op
                0x0000000008008804      0x108 build/py/runtime.o
                0x0000000008008804                mp_unary_op
 .text.mp_call_function_n_kw
                0x000000000800890c       0x3c build/py/runtime.o
                0x000000000800890c                mp_call_function_n_kw
 .text.mp_call_function_0
                0x0000000008008948        0xe build/py/runtime.o
                0x0000000008008948                mp_call_function_0
 .text.mp_call_function_1
                0x0000000008008956       0x10 build/py/runtime.o
                0x0000000008008956                mp_call_function_1
 *fill*         0x0000000008008966        0x2 
 .text.checked_fun_call
                0x0000000008008968       0x40 build/py/runtime.o
 .text.mp_call_method_n_kw
                0x00000000080089a8       0x1e build/py/runtime.o
                0x00000000080089a8                mp_call_method_n_kw
 *fill*         0x00000000080089c6        0x2 
 .text.mp_convert_member_lookup
                0x00000000080089c8       0xac build/py/runtime.o
                0x00000000080089c8                mp_convert_member_lookup
 .text.mp_load_method_maybe
                0x0000000008008a74       0x68 build/py/runtime.o
                0x0000000008008a74                mp_load_method_maybe
 .text.mp_load_method
                0x0000000008008adc       0x50 build/py/runtime.o
                0x0000000008008adc                mp_load_method
 .text.mp_load_attr
                0x0000000008008b2c       0x18 build/py/runtime.o
                0x0000000008008b2c                mp_load_attr
 .text.mp_load_method_protected
                0x0000000008008b44       0x44 build/py/runtime.o
                0x0000000008008b44                mp_load_method_protected
 .text.mp_store_attr
                0x0000000008008b88       0x48 build/py/runtime.o
                0x0000000008008b88                mp_store_attr
 .text.mp_getiter
                0x0000000008008bd0       0x70 build/py/runtime.o
                0x0000000008008bd0                mp_getiter
 .text.mp_iternext_allow_raise
                0x0000000008008c40       0x4c build/py/runtime.o
                0x0000000008008c40                mp_iternext_allow_raise
 .text.mp_iternext
                0x0000000008008c8c       0x80 build/py/runtime.o
                0x0000000008008c8c                mp_iternext
 .text.mp_call_prepare_args_n_kw_var
                0x0000000008008d0c      0x274 build/py/runtime.o
                0x0000000008008d0c                mp_call_prepare_args_n_kw_var
 .text.mp_call_method_n_kw_var
                0x0000000008008f80       0x24 build/py/runtime.o
                0x0000000008008f80                mp_call_method_n_kw_var
 .text.mp_unpack_sequence
                0x0000000008008fa4       0xa8 build/py/runtime.o
                0x0000000008008fa4                mp_unpack_sequence
 .text.mp_unpack_ex
                0x000000000800904c      0x108 build/py/runtime.o
                0x000000000800904c                mp_unpack_ex
 .text.mp_make_raise_obj
                0x0000000008009154       0x3c build/py/runtime.o
                0x0000000008009154                mp_make_raise_obj
 .text.mp_resume
                0x0000000008009190       0xdc build/py/runtime.o
                0x0000000008009190                mp_resume
 .text.mp_import_name
                0x000000000800926c       0x24 build/py/runtime.o
                0x000000000800926c                mp_import_name
 .text.mp_import_from
                0x0000000008009290       0xb4 build/py/runtime.o
                0x0000000008009290                mp_import_from
 .text.mp_import_all
                0x0000000008009344       0x3a build/py/runtime.o
                0x0000000008009344                mp_import_all
 *fill*         0x000000000800937e        0x2 
 .text.mp_parse_compile_execute
                0x0000000008009380       0x6c build/py/runtime.o
                0x0000000008009380                mp_parse_compile_execute
 .text.mp_raise_msg
                0x00000000080093ec       0x14 build/py/runtime.o
                0x00000000080093ec                mp_raise_msg
 .text.m_malloc_fail
                0x0000000008009400       0x2c build/py/runtime.o
                0x0000000008009400                m_malloc_fail
 .text.mp_raise_ValueError
                0x000000000800942c       0x10 build/py/runtime.o
                0x000000000800942c                mp_raise_ValueError
 .text.mp_binary_op
                0x000000000800943c      0x3b0 build/py/runtime.o
                0x000000000800943c                mp_binary_op
 .text.mp_raise_TypeError
                0x00000000080097ec       0x10 build/py/runtime.o
                0x00000000080097ec                mp_raise_TypeError
 .text.mp_raise_OSError
                0x00000000080097fc       0x18 build/py/runtime.o
                0x00000000080097fc                mp_raise_OSError
 .text.mp_raise_NotImplementedError
                0x0000000008009814       0x10 build/py/runtime.o
                0x0000000008009814                mp_raise_NotImplementedError
 .text.mp_raise_recursion_depth
                0x0000000008009824       0x14 build/py/runtime.o
                0x0000000008009824                mp_raise_recursion_depth
 .text.mp_call_function_1_protected
                0x0000000008009838       0x38 build/py/runtime_utils.o
                0x0000000008009838                mp_call_function_1_protected
 .text.mp_sched_lock
                0x0000000008009870       0x24 build/py/scheduler.o
                0x0000000008009870                mp_sched_lock
 .text.mp_sched_unlock
                0x0000000008009894       0x38 build/py/scheduler.o
                0x0000000008009894                mp_sched_unlock
 .text.mp_handle_pending_tail
                0x00000000080098cc       0x34 build/py/scheduler.o
                0x00000000080098cc                mp_handle_pending_tail
 .text.mp_handle_pending
                0x0000000008009900       0x38 build/py/scheduler.o
                0x0000000008009900                mp_handle_pending
 .text.mp_sched_schedule
                0x0000000008009938       0x3c build/py/scheduler.o
                0x0000000008009938                mp_sched_schedule
 .text.mp_stack_set_top
                0x0000000008009974        0xc build/py/stackctrl.o
                0x0000000008009974                mp_stack_set_top
 .text.mp_stack_usage
                0x0000000008009980       0x14 build/py/stackctrl.o
                0x0000000008009980                mp_stack_usage
 .text.mp_stack_set_limit
                0x0000000008009994        0xc build/py/stackctrl.o
                0x0000000008009994                mp_stack_set_limit
 .text.mp_stack_check
                0x00000000080099a0       0x1c build/py/stackctrl.o
                0x00000000080099a0                mp_stack_check
 .text.mp_arg_check_num_sig
                0x00000000080099bc       0x60 build/py/argcheck.o
                0x00000000080099bc                mp_arg_check_num_sig
 .text.mp_arg_parse_all
                0x0000000008009a1c       0xc8 build/py/argcheck.o
                0x0000000008009a1c                mp_arg_parse_all
 .text.mp_arg_parse_all_kw_array
                0x0000000008009ae4       0x2c build/py/argcheck.o
                0x0000000008009ae4                mp_arg_parse_all_kw_array
 .text.mp_arg_error_unimpl_kw
                0x0000000008009b10        0xc build/py/argcheck.o
                0x0000000008009b10                mp_arg_error_unimpl_kw
 .text.mp_warning
                0x0000000008009b1c       0x3c build/py/warning.o
                0x0000000008009b1c                mp_warning
 .text.mp_map_init
                0x0000000008009b58       0x1c build/py/map.o
                0x0000000008009b58                mp_map_init
 .text.mp_map_init_fixed_table
                0x0000000008009b74       0x1a build/py/map.o
                0x0000000008009b74                mp_map_init_fixed_table
 .text.mp_map_deinit
                0x0000000008009b8e       0x22 build/py/map.o
                0x0000000008009b8e                mp_map_deinit
 .text.mp_map_clear
                0x0000000008009bb0       0x2e build/py/map.o
                0x0000000008009bb0                mp_map_clear
 *fill*         0x0000000008009bde        0x2 
 .text.mp_map_lookup
                0x0000000008009be0      0x200 build/py/map.o
                0x0000000008009be0                mp_map_lookup
 .text.mp_map_rehash
                0x0000000008009de0       0x74 build/py/map.o
 .text.mp_set_init
                0x0000000008009e54       0x14 build/py/map.o
                0x0000000008009e54                mp_set_init
 .text.mp_set_lookup
                0x0000000008009e68       0xde build/py/map.o
                0x0000000008009e68                mp_set_lookup
 *fill*         0x0000000008009f46        0x2 
 .text.mp_set_rehash
                0x0000000008009f48       0x64 build/py/map.o
 .text.mp_set_remove_first
                0x0000000008009fac       0x3e build/py/map.o
                0x0000000008009fac                mp_set_remove_first
 .text.mp_set_clear
                0x0000000008009fea       0x18 build/py/map.o
                0x0000000008009fea                mp_set_clear
 .text.mp_identity
                0x000000000800a002        0x2 build/py/obj.o
                0x000000000800a002                mp_identity
 .text.mp_obj_get_type
                0x000000000800a004       0x20 build/py/obj.o
                0x000000000800a004                mp_obj_get_type
 .text.mp_obj_get_type_str
                0x000000000800a024        0xe build/py/obj.o
                0x000000000800a024                mp_obj_get_type_str
 *fill*         0x000000000800a032        0x2 
 .text.mp_obj_print_helper
                0x000000000800a034       0x34 build/py/obj.o
                0x000000000800a034                mp_obj_print_helper
 .text.mp_obj_print
                0x000000000800a068       0x14 build/py/obj.o
                0x000000000800a068                mp_obj_print
 .text.mp_obj_print_exception
                0x000000000800a07c       0x90 build/py/obj.o
                0x000000000800a07c                mp_obj_print_exception
 .text.mp_obj_is_callable
                0x000000000800a10c       0x24 build/py/obj.o
                0x000000000800a10c                mp_obj_is_callable
 .text.mp_obj_equal
                0x000000000800a130       0xe8 build/py/obj.o
                0x000000000800a130                mp_obj_equal
 .text.mp_obj_get_int
                0x000000000800a218       0x58 build/py/obj.o
                0x000000000800a218                mp_obj_get_int
 .text.mp_obj_get_int_truncated
                0x000000000800a270       0x24 build/py/obj.o
                0x000000000800a270                mp_obj_get_int_truncated
 .text.mp_obj_get_int_maybe
                0x000000000800a294       0x4c build/py/obj.o
                0x000000000800a294                mp_obj_get_int_maybe
 .text.mp_obj_get_float_maybe
                0x000000000800a2e0       0x60 build/py/obj.o
                0x000000000800a2e0                mp_obj_get_float_maybe
 .text.mp_obj_get_float
                0x000000000800a340       0x30 build/py/obj.o
                0x000000000800a340                mp_obj_get_float
 .text.mp_obj_get_complex
                0x000000000800a370       0x8c build/py/obj.o
                0x000000000800a370                mp_obj_get_complex
 .text.mp_obj_get_array
                0x000000000800a3fc       0x44 build/py/obj.o
                0x000000000800a3fc                mp_obj_get_array
 .text.mp_obj_get_array_fixed_n
                0x000000000800a440       0x28 build/py/obj.o
                0x000000000800a440                mp_obj_get_array_fixed_n
 .text.mp_get_index
                0x000000000800a468       0x84 build/py/obj.o
                0x000000000800a468                mp_get_index
 .text.mp_obj_id
                0x000000000800a4ec       0x1e build/py/obj.o
                0x000000000800a4ec                mp_obj_id
 *fill*         0x000000000800a50a        0x2 
 .text.mp_obj_len_maybe
                0x000000000800a50c       0x34 build/py/obj.o
                0x000000000800a50c                mp_obj_len_maybe
 .text.mp_obj_is_true
                0x000000000800a540       0x64 build/py/obj.o
                0x000000000800a540                mp_obj_is_true
 .text.mp_obj_len
                0x000000000800a5a4       0x2c build/py/obj.o
                0x000000000800a5a4                mp_obj_len
 .text.mp_obj_subscr
                0x000000000800a5d0       0x64 build/py/obj.o
                0x000000000800a5d0                mp_obj_subscr
 .text.mp_identity_getiter
                0x000000000800a634        0x2 build/py/obj.o
                0x000000000800a634                mp_identity_getiter
 .text.mp_get_buffer
                0x000000000800a636       0x22 build/py/obj.o
                0x000000000800a636                mp_get_buffer
 .text.mp_get_buffer_raise
                0x000000000800a658       0x18 build/py/obj.o
                0x000000000800a658                mp_get_buffer_raise
 .text.mp_generic_unary_op
                0x000000000800a670       0x10 build/py/obj.o
                0x000000000800a670                mp_generic_unary_op
 .text.array_unary_op
                0x000000000800a680       0x2c build/py/objarray.o
 .text.array_iterator_new
                0x000000000800a6ac       0x28 build/py/objarray.o
 .text.array_get_buffer
                0x000000000800a6d4       0x54 build/py/objarray.o
 .text.array_new
                0x000000000800a728       0x44 build/py/objarray.o
 .text.array_extend
                0x000000000800a76c       0x74 build/py/objarray.o
 .text.array_append
                0x000000000800a7e0       0x70 build/py/objarray.o
 .text.array_it_iternext
                0x000000000800a850       0x26 build/py/objarray.o
 *fill*         0x000000000800a876        0x2 
 .text.array_subscr
                0x000000000800a878      0x250 build/py/objarray.o
 .text.array_binary_op
                0x000000000800aac8      0x138 build/py/objarray.o
 .text.array_construct
                0x000000000800ac00       0xb4 build/py/objarray.o
 .text.array_make_new
                0x000000000800acb4       0x30 build/py/objarray.o
 .text.array_print
                0x000000000800ace4       0x8c build/py/objarray.o
 .text.bytearray_make_new
                0x000000000800ad70       0x60 build/py/objarray.o
 .text.mp_obj_new_memoryview
                0x000000000800add0       0x24 build/py/objarray.o
                0x000000000800add0                mp_obj_new_memoryview
 .text.memoryview_make_new
                0x000000000800adf4       0x64 build/py/objarray.o
 .text.mp_obj_new_bytearray_by_ref
                0x000000000800ae58       0x20 build/py/objarray.o
                0x000000000800ae58                mp_obj_new_bytearray_by_ref
 .text.mp_obj_attrtuple_attr
                0x000000000800ae78       0x2a build/py/objattrtuple.o
 *fill*         0x000000000800aea2        0x2 
 .text.mp_obj_attrtuple_print_helper
                0x000000000800aea4       0x5c build/py/objattrtuple.o
                0x000000000800aea4                mp_obj_attrtuple_print_helper
 .text.mp_obj_attrtuple_print
                0x000000000800af00       0x12 build/py/objattrtuple.o
 .text.bool_binary_op
                0x000000000800af12       0x10 build/py/objbool.o
 .text.bool_unary_op
                0x000000000800af22       0x1a build/py/objbool.o
 .text.bool_make_new
                0x000000000800af3c       0x30 build/py/objbool.o
 .text.bool_print
                0x000000000800af6c       0x30 build/py/objbool.o
 .text.bound_meth_print
                0x000000000800af9c       0x40 build/py/objboundmeth.o
 .text.bound_meth_attr
                0x000000000800afdc       0x1e build/py/objboundmeth.o
 *fill*         0x000000000800affa        0x2 
 .text.mp_call_method_self_n_kw
                0x000000000800affc       0x3c build/py/objboundmeth.o
                0x000000000800affc                mp_call_method_self_n_kw
 .text.bound_meth_call
                0x000000000800b038       0x12 build/py/objboundmeth.o
 *fill*         0x000000000800b04a        0x2 
 .text.mp_obj_new_bound_meth
                0x000000000800b04c       0x1c build/py/objboundmeth.o
                0x000000000800b04c                mp_obj_new_bound_meth
 .text.cell_print
                0x000000000800b068       0x3c build/py/objcell.o
 .text.mp_obj_cell_get
                0x000000000800b0a4        0x4 build/py/objcell.o
                0x000000000800b0a4                mp_obj_cell_get
 .text.mp_obj_cell_set
                0x000000000800b0a8        0x4 build/py/objcell.o
                0x000000000800b0a8                mp_obj_cell_set
 .text.mp_obj_new_cell
                0x000000000800b0ac       0x18 build/py/objcell.o
                0x000000000800b0ac                mp_obj_new_cell
 .text.closure_call
                0x000000000800b0c4       0x94 build/py/objclosure.o
 .text.closure_print
                0x000000000800b158       0x70 build/py/objclosure.o
 .text.mp_obj_new_closure
                0x000000000800b1c8       0x30 build/py/objclosure.o
                0x000000000800b1c8                mp_obj_new_closure
 .text.complex_attr
                0x000000000800b1f8       0x28 build/py/objcomplex.o
 .text.complex_print
                0x000000000800b220       0xa0 build/py/objcomplex.o
 .text.mp_obj_new_complex
                0x000000000800b2c0       0x1c build/py/objcomplex.o
                0x000000000800b2c0                mp_obj_new_complex
 .text.complex_unary_op
                0x000000000800b2dc       0x9c build/py/objcomplex.o
 .text.complex_make_new
                0x000000000800b378       0xb8 build/py/objcomplex.o
 .text.mp_obj_complex_get
                0x000000000800b430        0xa build/py/objcomplex.o
                0x000000000800b430                mp_obj_complex_get
 *fill*         0x000000000800b43a        0x2 
 .text.mp_obj_complex_binary_op
                0x000000000800b43c      0x25c build/py/objcomplex.o
                0x000000000800b43c                mp_obj_complex_binary_op
 .text.complex_binary_op
                0x000000000800b698        0xe build/py/objcomplex.o
 *fill*         0x000000000800b6a6        0x2 
 .text.deque_make_new
                0x000000000800b6a8       0x60 build/py/objdeque.o
 .text.deque_unary_op
                0x000000000800b708       0x44 build/py/objdeque.o
 .text.deque_popleft
                0x000000000800b74c       0x38 build/py/objdeque.o
 .text.mp_obj_deque_append
                0x000000000800b784       0x4c build/py/objdeque.o
 .text.dict_view_getiter
                0x000000000800b7d0       0x18 build/py/objdict.o
 .text.dict_getiter
                0x000000000800b7e8       0x18 build/py/objdict.o
 .text.dict_values
                0x000000000800b800       0x1c build/py/objdict.o
 .text.mp_ensure_not_fixed
                0x000000000800b81c       0x10 build/py/objdict.o
 .text.dict_clear
                0x000000000800b82c       0x18 build/py/objdict.o
 .text.dict_unary_op
                0x000000000800b844       0x3c build/py/objdict.o
 .text.dict_get_helper
                0x000000000800b880       0x5c build/py/objdict.o
 .text.dict_setdefault
                0x000000000800b8dc        0xa build/py/objdict.o
 .text.dict_pop
                0x000000000800b8e6        0xa build/py/objdict.o
 .text.dict_get
                0x000000000800b8f0        0xa build/py/objdict.o
 .text.dict_iter_next
                0x000000000800b8fa       0x2a build/py/objdict.o
 .text.dict_view_it_iternext
                0x000000000800b924       0x3a build/py/objdict.o
 *fill*         0x000000000800b95e        0x2 
 .text.dict_view_print
                0x000000000800b960       0x78 build/py/objdict.o
 .text.dict_update
                0x000000000800b9d8       0xe8 build/py/objdict.o
 .text.dict_popitem
                0x000000000800bac0       0x48 build/py/objdict.o
 .text.dict_binary_op
                0x000000000800bb08       0xdc build/py/objdict.o
 .text.dict_view_binary_op
                0x000000000800bbe4       0x1a build/py/objdict.o
 *fill*         0x000000000800bbfe        0x2 
 .text.dict_print
                0x000000000800bc00       0xa4 build/py/objdict.o
 .text.dict_items
                0x000000000800bca4       0x1c build/py/objdict.o
 .text.dict_keys
                0x000000000800bcc0       0x1c build/py/objdict.o
 .text.mp_obj_dict_get
                0x000000000800bcdc       0x24 build/py/objdict.o
                0x000000000800bcdc                mp_obj_dict_get
 .text.mp_obj_dict_init
                0x000000000800bd00       0x10 build/py/objdict.o
                0x000000000800bd00                mp_obj_dict_init
 .text.mp_obj_new_dict
                0x000000000800bd10       0x16 build/py/objdict.o
                0x000000000800bd10                mp_obj_new_dict
 *fill*         0x000000000800bd26        0x2 
 .text.dict_fromkeys
                0x000000000800bd28       0x4c build/py/objdict.o
 .text.dict_copy
                0x000000000800bd74       0x56 build/py/objdict.o
 *fill*         0x000000000800bdca        0x2 
 .text.dict_make_new
                0x000000000800bdcc       0x50 build/py/objdict.o
 .text.mp_obj_dict_len
                0x000000000800be1c        0x6 build/py/objdict.o
                0x000000000800be1c                mp_obj_dict_len
 .text.mp_obj_dict_store
                0x000000000800be22       0x1c build/py/objdict.o
                0x000000000800be22                mp_obj_dict_store
 .text.mp_obj_dict_delete
                0x000000000800be3e       0x16 build/py/objdict.o
                0x000000000800be3e                mp_obj_dict_delete
 .text.dict_subscr
                0x000000000800be54       0x40 build/py/objdict.o
 .text.enumerate_iternext
                0x000000000800be94       0x28 build/py/objenumerate.o
 .text.enumerate_make_new
                0x000000000800bebc       0x3c build/py/objenumerate.o
 .text.mp_obj_exception_print
                0x000000000800bef8       0xa4 build/py/objexcept.o
                0x000000000800bef8                mp_obj_exception_print
 .text.mp_obj_exception_make_new
                0x000000000800bf9c       0x78 build/py/objexcept.o
                0x000000000800bf9c                mp_obj_exception_make_new
 .text.exc_add_strn
                0x000000000800c014       0x58 build/py/objexcept.o
 .text.mp_init_emergency_exception_buf
                0x000000000800c06c        0x2 build/py/objexcept.o
                0x000000000800c06c                mp_init_emergency_exception_buf
 *fill*         0x000000000800c06e        0x2 
 .text.mp_obj_exception_get_value
                0x000000000800c070       0x14 build/py/objexcept.o
                0x000000000800c070                mp_obj_exception_get_value
 .text.mp_obj_exception_attr
                0x000000000800c084       0x48 build/py/objexcept.o
                0x000000000800c084                mp_obj_exception_attr
 .text.mp_obj_new_exception_args
                0x000000000800c0cc        0xc build/py/objexcept.o
                0x000000000800c0cc                mp_obj_new_exception_args
 .text.mp_obj_new_exception
                0x000000000800c0d8        0xc build/py/objexcept.o
                0x000000000800c0d8                mp_obj_new_exception
 .text.mp_obj_new_exception_arg1
                0x000000000800c0e4        0xe build/py/objexcept.o
                0x000000000800c0e4                mp_obj_new_exception_arg1
 *fill*         0x000000000800c0f2        0x2 
 .text.mp_obj_new_exception_msg_varg
                0x000000000800c0f4       0x94 build/py/objexcept.o
                0x000000000800c0f4                mp_obj_new_exception_msg_varg
 .text.mp_obj_new_exception_msg
                0x000000000800c188        0x8 build/py/objexcept.o
                0x000000000800c188                mp_obj_new_exception_msg
 .text.mp_obj_is_exception_type
                0x000000000800c190       0x30 build/py/objexcept.o
                0x000000000800c190                mp_obj_is_exception_type
 .text.mp_obj_is_exception_instance
                0x000000000800c1c0        0xc build/py/objexcept.o
                0x000000000800c1c0                mp_obj_is_exception_instance
 .text.mp_obj_exception_match
                0x000000000800c1cc       0x20 build/py/objexcept.o
                0x000000000800c1cc                mp_obj_exception_match
 .text.mp_obj_exception_clear_traceback
                0x000000000800c1ec       0x1c build/py/objexcept.o
                0x000000000800c1ec                mp_obj_exception_clear_traceback
 .text.mp_obj_exception_add_traceback
                0x000000000800c208       0x80 build/py/objexcept.o
                0x000000000800c208                mp_obj_exception_add_traceback
 .text.mp_obj_exception_get_traceback
                0x000000000800c288       0x2c build/py/objexcept.o
                0x000000000800c288                mp_obj_exception_get_traceback
 .text.filter_iternext
                0x000000000800c2b4       0x34 build/py/objfilter.o
 .text.filter_make_new
                0x000000000800c2e8       0x30 build/py/objfilter.o
 .text.float_print
                0x000000000800c318       0x58 build/py/objfloat.o
 .text.mp_obj_float_divmod
                0x000000000800c370       0xdc build/py/objfloat.o
 .text.mp_float_hash
                0x000000000800c44c       0x46 build/py/objfloat.o
                0x000000000800c44c                mp_float_hash
 *fill*         0x000000000800c492        0x2 
 .text.mp_obj_new_float
                0x000000000800c494       0x18 build/py/objfloat.o
                0x000000000800c494                mp_obj_new_float
 .text.float_make_new
                0x000000000800c4ac       0x54 build/py/objfloat.o
 .text.float_unary_op
                0x000000000800c500       0x58 build/py/objfloat.o
 .text.mp_obj_float_get
                0x000000000800c558        0x4 build/py/objfloat.o
                0x000000000800c558                mp_obj_float_get
 .text.mp_obj_float_binary_op
                0x000000000800c55c      0x230 build/py/objfloat.o
                0x000000000800c55c                mp_obj_float_binary_op
 .text.float_binary_op
                0x000000000800c78c       0x24 build/py/objfloat.o
 .text.fun_builtin_0_call
                0x000000000800c7b0       0x14 build/py/objfun.o
 .text.fun_builtin_1_call
                0x000000000800c7c4       0x1c build/py/objfun.o
 .text.fun_builtin_2_call
                0x000000000800c7e0       0x1c build/py/objfun.o
 .text.fun_builtin_3_call
                0x000000000800c7fc       0x1c build/py/objfun.o
 .text.fun_bc_call
                0x000000000800c818       0x78 build/py/objfun.o
 .text.fun_builtin_var_call
                0x000000000800c890       0x40 build/py/objfun.o
 .text.mp_obj_code_get_name
                0x000000000800c8d0       0x10 build/py/objfun.o
                0x000000000800c8d0                mp_obj_code_get_name
 .text.mp_obj_fun_get_name
                0x000000000800c8e0       0x14 build/py/objfun.o
                0x000000000800c8e0                mp_obj_fun_get_name
 .text.mp_obj_fun_bc_attr
                0x000000000800c8f4       0x1c build/py/objfun.o
                0x000000000800c8f4                mp_obj_fun_bc_attr
 .text.fun_bc_print
                0x000000000800c910       0x20 build/py/objfun.o
 .text.mp_obj_fun_bc_prepare_codestate
                0x000000000800c930       0x54 build/py/objfun.o
                0x000000000800c930                mp_obj_fun_bc_prepare_codestate
 .text.mp_obj_new_fun_bc
                0x000000000800c984       0x5c build/py/objfun.o
                0x000000000800c984                mp_obj_new_fun_bc
 .text.gen_wrap_call
                0x000000000800c9e0       0x50 build/py/objgenerator.o
 .text.gen_instance_pend_throw
                0x000000000800ca30       0x1c build/py/objgenerator.o
 .text.gen_instance_print
                0x000000000800ca4c       0x20 build/py/objgenerator.o
 .text.unlikely.gen_instance_throw.part.0
                0x000000000800ca6c       0x10 build/py/objgenerator.o
 .text.mp_obj_gen_resume
                0x000000000800ca7c       0xcc build/py/objgenerator.o
                0x000000000800ca7c                mp_obj_gen_resume
 .text.gen_resume_and_raise
                0x000000000800cb48       0x3c build/py/objgenerator.o
 .text.gen_instance_throw
                0x000000000800cb84       0x24 build/py/objgenerator.o
 .text.gen_instance_send
                0x000000000800cba8       0x12 build/py/objgenerator.o
 *fill*         0x000000000800cbba        0x2 
 .text.gen_instance_iternext
                0x000000000800cbbc       0x10 build/py/objgenerator.o
 .text.gen_instance_close
                0x000000000800cbcc       0x4c build/py/objgenerator.o
 .text.it_iternext
                0x000000000800cc18       0x54 build/py/objgetitemiter.o
 .text.mp_obj_new_getitem_iter
                0x000000000800cc6c       0x18 build/py/objgetitemiter.o
                0x000000000800cc6c                mp_obj_new_getitem_iter
 .text.int_to_bytes
                0x000000000800cc84       0x80 build/py/objint.o
 .text.int_from_bytes
                0x000000000800cd04       0x6c build/py/objint.o
 .text.mp_obj_new_int_from_float
                0x000000000800cd70       0x80 build/py/objint.o
                0x000000000800cd70                mp_obj_new_int_from_float
 .text.mp_obj_int_make_new
                0x000000000800cdf0       0x90 build/py/objint.o
 .text.mp_int_format_size
                0x000000000800ce80       0x38 build/py/objint.o
                0x000000000800ce80                mp_int_format_size
 .text.mp_obj_int_formatted
                0x000000000800ceb8      0x116 build/py/objint.o
                0x000000000800ceb8                mp_obj_int_formatted
 .text.mp_obj_int_print
                0x000000000800cfce       0x3e build/py/objint.o
                0x000000000800cfce                mp_obj_int_print
 .text.mp_obj_int_binary_op_extra_cases
                0x000000000800d00c       0x64 build/py/objint.o
                0x000000000800d00c                mp_obj_int_binary_op_extra_cases
 .text.mp_obj_int_new_mpz
                0x000000000800d070       0x1c build/py/objint_mpz.o
                0x000000000800d070                mp_obj_int_new_mpz
 .text.mp_obj_int_formatted_impl
                0x000000000800d08c       0x54 build/py/objint_mpz.o
                0x000000000800d08c                mp_obj_int_formatted_impl
 .text.mp_obj_int_from_bytes_impl
                0x000000000800d0e0       0x1e build/py/objint_mpz.o
                0x000000000800d0e0                mp_obj_int_from_bytes_impl
 .text.mp_obj_int_to_bytes_impl
                0x000000000800d0fe       0x20 build/py/objint_mpz.o
                0x000000000800d0fe                mp_obj_int_to_bytes_impl
 .text.mp_obj_int_sign
                0x000000000800d11e       0x28 build/py/objint_mpz.o
                0x000000000800d11e                mp_obj_int_sign
 *fill*         0x000000000800d146        0x2 
 .text.mp_obj_int_unary_op
                0x000000000800d148       0x80 build/py/objint_mpz.o
                0x000000000800d148                mp_obj_int_unary_op
 .text.mp_obj_new_int_from_ll
                0x000000000800d1c8       0x1e build/py/objint_mpz.o
                0x000000000800d1c8                mp_obj_new_int_from_ll
 .text.mp_obj_new_int
                0x000000000800d1e6       0x18 build/py/objint_mpz.o
                0x000000000800d1e6                mp_obj_new_int
 .text.mp_obj_new_int_from_ull
                0x000000000800d1fe       0x1e build/py/objint_mpz.o
                0x000000000800d1fe                mp_obj_new_int_from_ull
 .text.mp_obj_int_pow3
                0x000000000800d21c       0xd0 build/py/objint_mpz.o
                0x000000000800d21c                mp_obj_int_pow3
 .text.mp_obj_new_int_from_uint
                0x000000000800d2ec       0x16 build/py/objint_mpz.o
                0x000000000800d2ec                mp_obj_new_int_from_uint
 .text.mp_obj_new_int_from_str_len
                0x000000000800d302       0x2e build/py/objint_mpz.o
                0x000000000800d302                mp_obj_new_int_from_str_len
 .text.mp_obj_int_get_truncated
                0x000000000800d330       0x12 build/py/objint_mpz.o
                0x000000000800d330                mp_obj_int_get_truncated
 *fill*         0x000000000800d342        0x2 
 .text.mp_obj_int_get_checked
                0x000000000800d344       0x2c build/py/objint_mpz.o
                0x000000000800d344                mp_obj_int_get_checked
 .text.mp_obj_int_binary_op
                0x000000000800d370      0x288 build/py/objint_mpz.o
                0x000000000800d370                mp_obj_int_binary_op
 .text.mp_obj_int_as_float_impl
                0x000000000800d5f8        0xa build/py/objint_mpz.o
                0x000000000800d5f8                mp_obj_int_as_float_impl
 *fill*         0x000000000800d602        0x2 
 .text.list_getiter
                0x000000000800d604       0x1c build/py/objlist.o
 .text.list_reverse
                0x000000000800d620       0x38 build/py/objlist.o
 .text.list_it_iternext
                0x000000000800d658       0x1c build/py/objlist.o
 .text.mp_obj_list_append
                0x000000000800d674       0x50 build/py/objlist.o
                0x000000000800d674                mp_obj_list_append
 .text.list_insert
                0x000000000800d6c4       0x4c build/py/objlist.o
 .text.list_clear
                0x000000000800d710       0x2c build/py/objlist.o
 .text.mp_quicksort
                0x000000000800d73c       0xd0 build/py/objlist.o
 .text.mp_obj_list_sort
                0x000000000800d80c       0x5c build/py/objlist.o
                0x000000000800d80c                mp_obj_list_sort
 .text.list_index
                0x000000000800d868       0x12 build/py/objlist.o
 *fill*         0x000000000800d87a        0x2 
 .text.list_pop
                0x000000000800d87c       0x7c build/py/objlist.o
 .text.mp_obj_list_remove
                0x000000000800d8f8       0x20 build/py/objlist.o
                0x000000000800d8f8                mp_obj_list_remove
 .text.list_extend_from_iter
                0x000000000800d918       0x24 build/py/objlist.o
 .text.list_count
                0x000000000800d93c        0xe build/py/objlist.o
 *fill*         0x000000000800d94a        0x2 
 .text.list_print
                0x000000000800d94c       0x54 build/py/objlist.o
 .text.list_unary_op
                0x000000000800d9a0       0x38 build/py/objlist.o
 .text.list_extend
                0x000000000800d9d8       0x74 build/py/objlist.o
 .text.mp_obj_list_init
                0x000000000800da4c       0x34 build/py/objlist.o
                0x000000000800da4c                mp_obj_list_init
 .text.list_new
                0x000000000800da80       0x16 build/py/objlist.o
 *fill*         0x000000000800da96        0x2 
 .text.list_binary_op
                0x000000000800da98       0xd8 build/py/objlist.o
 .text.list_make_new
                0x000000000800db70       0x2a build/py/objlist.o
 .text.mp_obj_new_list
                0x000000000800db9a       0x22 build/py/objlist.o
                0x000000000800db9a                mp_obj_new_list
 .text.list_copy
                0x000000000800dbbc        0xc build/py/objlist.o
 .text.mp_obj_list_get
                0x000000000800dbc8        0xa build/py/objlist.o
                0x000000000800dbc8                mp_obj_list_get
 .text.mp_obj_list_set_len
                0x000000000800dbd2        0x4 build/py/objlist.o
                0x000000000800dbd2                mp_obj_list_set_len
 .text.mp_obj_list_store
                0x000000000800dbd6       0x1a build/py/objlist.o
                0x000000000800dbd6                mp_obj_list_store
 .text.list_subscr
                0x000000000800dbf0      0x1b8 build/py/objlist.o
 .text.map_iternext
                0x000000000800dda8       0x48 build/py/objmap.o
 .text.map_make_new
                0x000000000800ddf0       0x4c build/py/objmap.o
 .text.module_print
                0x000000000800de3c       0x5c build/py/objmodule.o
 .text.module_attr
                0x000000000800de98       0x68 build/py/objmodule.o
 .text.mp_obj_new_module
                0x000000000800df00       0x44 build/py/objmodule.o
                0x000000000800df00                mp_obj_new_module
 .text.mp_module_register
                0x000000000800df44       0x1c build/py/objmodule.o
                0x000000000800df44                mp_module_register
 .text.mp_module_call_init
                0x000000000800df60       0x2a build/py/objmodule.o
                0x000000000800df60                mp_module_call_init
 *fill*         0x000000000800df8a        0x2 
 .text.mp_module_get
                0x000000000800df8c       0x3c build/py/objmodule.o
                0x000000000800df8c                mp_module_get
 .text.object___init__
                0x000000000800dfc8        0x8 build/py/objobject.o
 .text.object___new__
                0x000000000800dfd0       0x30 build/py/objobject.o
 .text.object_make_new
                0x000000000800e000       0x18 build/py/objobject.o
 .text.polymorph_it_iternext
                0x000000000800e018        0x8 build/py/objpolyiter.o
 .text.property_deleter
                0x000000000800e020       0x16 build/py/objproperty.o
 .text.property_setter
                0x000000000800e036       0x1a build/py/objproperty.o
 .text.property_getter
                0x000000000800e050       0x1a build/py/objproperty.o
 *fill*         0x000000000800e06a        0x2 
 .text.property_make_new
                0x000000000800e06c       0x38 build/py/objproperty.o
 .text.mp_obj_property_get
                0x000000000800e0a4        0x4 build/py/objproperty.o
                0x000000000800e0a4                mp_obj_property_get
 .text.none_print
                0x000000000800e0a8       0x18 build/py/objnone.o
 .text.namedtuple_asdict
                0x000000000800e0c0       0x48 build/py/objnamedtuple.o
 .text.namedtuple_print
                0x000000000800e108       0x24 build/py/objnamedtuple.o
 .text.mp_obj_namedtuple_find_field
                0x000000000800e12c       0x20 build/py/objnamedtuple.o
                0x000000000800e12c                mp_obj_namedtuple_find_field
 .text.namedtuple_attr
                0x000000000800e14c       0x40 build/py/objnamedtuple.o
 .text.namedtuple_make_new
                0x000000000800e18c       0xb0 build/py/objnamedtuple.o
 .text.mp_obj_new_namedtuple_base
                0x000000000800e23c       0x38 build/py/objnamedtuple.o
                0x000000000800e23c                mp_obj_new_namedtuple_base
 .text.new_namedtuple_type
                0x000000000800e274       0x90 build/py/objnamedtuple.o
 .text.range_it_iternext
                0x000000000800e304       0x32 build/py/objrange.o
 .text.range_len
                0x000000000800e336       0x20 build/py/objrange.o
 *fill*         0x000000000800e356        0x2 
 .text.range_unary_op
                0x000000000800e358       0x34 build/py/objrange.o
 .text.range_getiter
                0x000000000800e38c       0x18 build/py/objrange.o
 .text.range_subscr
                0x000000000800e3a4       0x84 build/py/objrange.o
 .text.range_make_new
                0x000000000800e428       0x60 build/py/objrange.o
 .text.range_print
                0x000000000800e488       0x38 build/py/objrange.o
 .text.range_binary_op
                0x000000000800e4c0       0x60 build/py/objrange.o
 .text.range_attr
                0x000000000800e520       0x38 build/py/objrange.o
 .text.reversed_iternext
                0x000000000800e558       0x1e build/py/objreversed.o
 *fill*         0x000000000800e576        0x2 
 .text.reversed_make_new
                0x000000000800e578       0x50 build/py/objreversed.o
 .text.is_set_or_frozenset
                0x000000000800e5c8       0x24 build/py/objset.o
 .text.set_getiter
                0x000000000800e5ec       0x1c build/py/objset.o
 .text.set_add  0x000000000800e608       0x14 build/py/objset.o
 .text.set_discard
                0x000000000800e61c       0x14 build/py/objset.o
 .text.set_update_int
                0x000000000800e630       0x26 build/py/objset.o
 *fill*         0x000000000800e656        0x2 
 .text.set_update
                0x000000000800e658       0x24 build/py/objset.o
 .text.set_symmetric_difference_update
                0x000000000800e67c       0x2c build/py/objset.o
 .text.set_isdisjoint
                0x000000000800e6a8       0x3c build/py/objset.o
 .text.set_copy
                0x000000000800e6e4       0x2a build/py/objset.o
 .text.set_union
                0x000000000800e70e       0x14 build/py/objset.o
 .text.set_symmetric_difference
                0x000000000800e722       0x14 build/py/objset.o
 *fill*         0x000000000800e736        0x2 
 .text.set_clear
                0x000000000800e738       0x10 build/py/objset.o
 .text.set_diff_int
                0x000000000800e748       0x50 build/py/objset.o
 .text.set_diff_update
                0x000000000800e798       0x10 build/py/objset.o
 .text.set_diff
                0x000000000800e7a8        0xa build/py/objset.o
 *fill*         0x000000000800e7b2        0x2 
 .text.set_print
                0x000000000800e7b4       0xb4 build/py/objset.o
 .text.set_remove
                0x000000000800e868       0x28 build/py/objset.o
 .text.set_pop  0x000000000800e890       0x20 build/py/objset.o
 .text.set_it_iternext
                0x000000000800e8b0       0x2a build/py/objset.o
 *fill*         0x000000000800e8da        0x2 
 .text.set_unary_op
                0x000000000800e8dc       0x74 build/py/objset.o
 .text.mp_obj_new_set
                0x000000000800e950       0x38 build/py/objset.o
                0x000000000800e950                mp_obj_new_set
 .text.set_intersect_int.part.4
                0x000000000800e988       0x64 build/py/objset.o
 .text.set_intersect_update
                0x000000000800e9ec       0x18 build/py/objset.o
 .text.set_intersect
                0x000000000800ea04       0x14 build/py/objset.o
 .text.mp_obj_set_store
                0x000000000800ea18        0xc build/py/objset.o
                0x000000000800ea18                mp_obj_set_store
 .text.set_make_new
                0x000000000800ea24       0x4c build/py/objset.o
 .text.set_issubset_internal
                0x000000000800ea70       0xb4 build/py/objset.o
 .text.set_issuperset
                0x000000000800eb24       0x10 build/py/objset.o
 .text.set_issubset
                0x000000000800eb34        0xa build/py/objset.o
 *fill*         0x000000000800eb3e        0x2 
 .text.set_binary_op
                0x000000000800eb40      0x12c build/py/objset.o
 .text.singleton_print
                0x000000000800ec6c       0x10 build/py/objsingleton.o
 .text.slice_print
                0x000000000800ec7c       0x54 build/py/objslice.o
 .text.slice_attr
                0x000000000800ecd0       0x30 build/py/objslice.o
 .text.mp_obj_new_slice
                0x000000000800ed00       0x20 build/py/objslice.o
                0x000000000800ed00                mp_obj_new_slice
 .text.mp_obj_slice_get
                0x000000000800ed20       0x10 build/py/objslice.o
                0x000000000800ed20                mp_obj_slice_get
 .text.arg_looks_integer
                0x000000000800ed30       0x38 build/py/objstr.o
 .text.arg_looks_numeric
                0x000000000800ed68       0x28 build/py/objstr.o
 .text.mp_obj_new_bytes_iterator
                0x000000000800ed90       0x1c build/py/objstr.o
 .text.bytes_it_iternext
                0x000000000800edac       0x38 build/py/objstr.o
 .text.unlikely.bad_implicit_conversion
                0x000000000800ede4       0x3c build/py/objstr.o
 .text.str_count
                0x000000000800ee20       0xe8 build/py/objstr.o
 .text.str_uni_istype
                0x000000000800ef08       0x84 build/py/objstr.o
 .text.str_isspace
                0x000000000800ef8c       0x10 build/py/objstr.o
 .text.str_isalpha
                0x000000000800ef9c       0x10 build/py/objstr.o
 .text.str_isdigit
                0x000000000800efac       0x10 build/py/objstr.o
 .text.str_isupper
                0x000000000800efbc       0x10 build/py/objstr.o
 .text.str_islower
                0x000000000800efcc       0x10 build/py/objstr.o
 .text.str_to_int
                0x000000000800efdc       0x30 build/py/objstr.o
 .text.mp_obj_str_get_buffer
                0x000000000800f00c       0x3c build/py/objstr.o
                0x000000000800f00c                mp_obj_str_get_buffer
 .text.mp_str_print_quoted
                0x000000000800f048       0xc8 build/py/objstr.o
                0x000000000800f048                mp_str_print_quoted
 .text.mp_str_print_json
                0x000000000800f110       0x74 build/py/objstr.o
                0x000000000800f110                mp_str_print_json
 .text.str_print
                0x000000000800f184       0x60 build/py/objstr.o
 .text.find_subbytes
                0x000000000800f1e4       0x3e build/py/objstr.o
                0x000000000800f1e4                find_subbytes
 *fill*         0x000000000800f222        0x2 
 .text.str_finder
                0x000000000800f224       0xf8 build/py/objstr.o
 .text.str_find
                0x000000000800f31c        0xc build/py/objstr.o
 .text.str_rfind
                0x000000000800f328        0xe build/py/objstr.o
 .text.str_index
                0x000000000800f336        0xc build/py/objstr.o
 .text.str_rindex
                0x000000000800f342        0xe build/py/objstr.o
 .text.mp_obj_new_str_copy
                0x000000000800f350       0x3c build/py/objstr.o
                0x000000000800f350                mp_obj_new_str_copy
 .text.mp_obj_new_str_via_qstr
                0x000000000800f38c        0xe build/py/objstr.o
                0x000000000800f38c                mp_obj_new_str_via_qstr
 *fill*         0x000000000800f39a        0x2 
 .text.mp_obj_new_str_from_vstr
                0x000000000800f39c       0x6c build/py/objstr.o
                0x000000000800f39c                mp_obj_new_str_from_vstr
 .text.str_join
                0x000000000800f408      0x10c build/py/objstr.o
 .text.str_center
                0x000000000800f514       0x6a build/py/objstr.o
 .text.str_replace
                0x000000000800f57e      0x186 build/py/objstr.o
 .text.str_caseconv
                0x000000000800f704       0x52 build/py/objstr.o
 *fill*         0x000000000800f756        0x2 
 .text.str_lower
                0x000000000800f758       0x10 build/py/objstr.o
 .text.str_upper
                0x000000000800f768       0x10 build/py/objstr.o
 .text.mp_obj_new_str
                0x000000000800f778       0x28 build/py/objstr.o
                0x000000000800f778                mp_obj_new_str
 .text.mp_obj_str_make_new
                0x000000000800f7a0       0xcc build/py/objstr.o
                0x000000000800f7a0                mp_obj_str_make_new
 .text.bytes_decode
                0x000000000800f86c       0x28 build/py/objstr.o
 .text.mp_obj_new_bytes
                0x000000000800f894       0x14 build/py/objstr.o
                0x000000000800f894                mp_obj_new_bytes
 .text.bytes_make_new.part.4
                0x000000000800f8a8      0x118 build/py/objstr.o
 .text.bytes_make_new
                0x000000000800f9c0       0x20 build/py/objstr.o
 .text.str_encode
                0x000000000800f9e0       0x2c build/py/objstr.o
 .text.mp_obj_new_str_of_type
                0x000000000800fa0c       0x20 build/py/objstr.o
                0x000000000800fa0c                mp_obj_new_str_of_type
 .text.str_splitlines
                0x000000000800fa2c       0xa0 build/py/objstr.o
 .text.str_uni_strip
                0x000000000800facc      0x124 build/py/objstr.o
 .text.str_strip
                0x000000000800fbf0        0xe build/py/objstr.o
 .text.str_lstrip
                0x000000000800fbfe        0xe build/py/objstr.o
 .text.str_rstrip
                0x000000000800fc0c        0xe build/py/objstr.o
 *fill*         0x000000000800fc1a        0x2 
 .text.str_partitioner
                0x000000000800fc1c       0xcc build/py/objstr.o
 .text.str_partition
                0x000000000800fce8        0xa build/py/objstr.o
 .text.str_rpartition
                0x000000000800fcf2        0xc build/py/objstr.o
 *fill*         0x000000000800fcfe        0x2 
 .text.bytes_subscr
                0x000000000800fd00       0x84 build/py/objstr.o
 .text.mp_obj_str_equal
                0x000000000800fd84       0x90 build/py/objstr.o
                0x000000000800fd84                mp_obj_str_equal
 .text.mp_obj_str_get_qstr
                0x000000000800fe14       0x2c build/py/objstr.o
                0x000000000800fe14                mp_obj_str_get_qstr
 .text.mp_obj_str_get_str
                0x000000000800fe40       0x30 build/py/objstr.o
                0x000000000800fe40                mp_obj_str_get_str
 .text.mp_obj_str_get_data
                0x000000000800fe70       0x38 build/py/objstr.o
                0x000000000800fe70                mp_obj_str_get_data
 .text.mp_obj_str_binary_op
                0x000000000800fea8      0x544 build/py/objstr.o
                0x000000000800fea8                mp_obj_str_binary_op
 .text.mp_obj_str_split
                0x00000000080103ec      0x14c build/py/objstr.o
                0x00000000080103ec                mp_obj_str_split
 .text.str_rsplit
                0x0000000008010538      0x124 build/py/objstr.o
 .text.str_startswith
                0x000000000801065c       0x74 build/py/objstr.o
 .text.str_endswith
                0x00000000080106d0       0x60 build/py/objstr.o
 .text.mp_obj_str_format_helper
                0x0000000008010730      0x558 build/py/objstr.o
 .text.mp_obj_str_format
                0x0000000008010c88       0x4c build/py/objstr.o
                0x0000000008010c88                mp_obj_str_format
 .text.mp_obj_str_intern_checked
                0x0000000008010cd4       0x10 build/py/objstr.o
                0x0000000008010cd4                mp_obj_str_intern_checked
 .text.mp_obj_new_str_iterator
                0x0000000008010ce4       0x1c build/py/objstrunicode.o
 .text.str_it_iternext
                0x0000000008010d00       0x44 build/py/objstrunicode.o
 .text.uni_unary_op
                0x0000000008010d44       0x4c build/py/objstrunicode.o
 .text.uni_print
                0x0000000008010d90      0x120 build/py/objstrunicode.o
 .text.str_index_to_ptr
                0x0000000008010eb0       0xc4 build/py/objstrunicode.o
                0x0000000008010eb0                str_index_to_ptr
 .text.str_subscr
                0x0000000008010f74       0xdc build/py/objstrunicode.o
 .text.stringio___exit__
                0x0000000008011050        0xa build/py/objstringio.o
 *fill*         0x000000000801105a        0x2 
 .text.stringio_print
                0x000000000801105c       0x24 build/py/objstringio.o
 .text.stringio_write
                0x0000000008011080       0xa4 build/py/objstringio.o
 .text.stringio_make_new
                0x0000000008011124       0xa4 build/py/objstringio.o
 .text.stringio_ioctl
                0x00000000080111c8       0x5e build/py/objstringio.o
 *fill*         0x0000000008011226        0x2 
 .text.stringio_getvalue
                0x0000000008011228       0x34 build/py/objstringio.o
 .text.stringio_read
                0x000000000801125c       0x3c build/py/objstringio.o
 .text.tuple_it_iternext
                0x0000000008011298       0x1c build/py/objtuple.o
 .text.mp_obj_tuple_getiter
                0x00000000080112b4       0x1c build/py/objtuple.o
                0x00000000080112b4                mp_obj_tuple_getiter
 .text.mp_obj_tuple_print
                0x00000000080112d0       0x78 build/py/objtuple.o
                0x00000000080112d0                mp_obj_tuple_print
 .text.tuple_index
                0x0000000008011348       0x14 build/py/objtuple.o
 .text.tuple_count
                0x000000000801135c       0x10 build/py/objtuple.o
 .text.mp_obj_tuple_unary_op
                0x000000000801136c       0x5c build/py/objtuple.o
                0x000000000801136c                mp_obj_tuple_unary_op
 .text.mp_obj_new_tuple
                0x00000000080113c8       0x3c build/py/objtuple.o
                0x00000000080113c8                mp_obj_new_tuple
 .text.mp_obj_tuple_binary_op
                0x0000000008011404      0x100 build/py/objtuple.o
                0x0000000008011404                mp_obj_tuple_binary_op
 .text.mp_obj_tuple_subscr
                0x0000000008011504       0x74 build/py/objtuple.o
                0x0000000008011504                mp_obj_tuple_subscr
 .text.mp_obj_tuple_make_new
                0x0000000008011578       0x84 build/py/objtuple.o
 .text.mp_obj_tuple_get
                0x00000000080115fc        0xa build/py/objtuple.o
                0x00000000080115fc                mp_obj_tuple_get
 .text.mp_obj_tuple_del
                0x0000000008011606        0xe build/py/objtuple.o
                0x0000000008011606                mp_obj_tuple_del
 .text.instance_count_native_bases
                0x0000000008011614       0x58 build/py/objtype.o
 .text.native_base_init_wrapper
                0x000000000801166c       0x2c build/py/objtype.o
 .text.mp_obj_class_lookup
                0x0000000008011698       0xf0 build/py/objtype.o
 .text.super_attr
                0x0000000008011788       0xa0 build/py/objtype.o
 .text.static_class_method_make_new
                0x0000000008011828       0x24 build/py/objtype.o
 .text.super_make_new
                0x000000000801184c       0x40 build/py/objtype.o
 .text.type_print
                0x000000000801188c       0x10 build/py/objtype.o
 .text.instance_subscr
                0x000000000801189c       0x78 build/py/objtype.o
 .text.instance_binary_op
                0x0000000008011914       0x74 build/py/objtype.o
 .text.instance_unary_op
                0x0000000008011988       0xa0 build/py/objtype.o
 .text.instance_print
                0x0000000008011a28       0xbc build/py/objtype.o
 .text.super_print
                0x0000000008011ae4       0x40 build/py/objtype.o
 .text.mp_obj_instance_attr
                0x0000000008011b24      0x230 build/py/objtype.o
 .text.type_call
                0x0000000008011d54       0x24 build/py/objtype.o
 .text.instance_get_buffer
                0x0000000008011d78       0x4a build/py/objtype.o
 .text.instance_getiter
                0x0000000008011dc2       0x56 build/py/objtype.o
 .text.check_for_special_accessors
                0x0000000008011e18       0x50 build/py/objtype.o
 .text.type_attr
                0x0000000008011e68       0xa4 build/py/objtype.o
 .text.mp_obj_instance_call
                0x0000000008011f0c       0x70 build/py/objtype.o
                0x0000000008011f0c                mp_obj_instance_call
 .text.mp_obj_new_instance
                0x0000000008011f7c       0x2c build/py/objtype.o
                0x0000000008011f7c                mp_obj_new_instance
 .text.mp_obj_instance_make_new
                0x0000000008011fa8      0x15c build/py/objtype.o
                0x0000000008011fa8                mp_obj_instance_make_new
 .text.mp_obj_instance_is_callable
                0x0000000008012104       0x30 build/py/objtype.o
                0x0000000008012104                mp_obj_instance_is_callable
 .text.mp_obj_new_type
                0x0000000008012134      0x194 build/py/objtype.o
                0x0000000008012134                mp_obj_new_type
 .text.type_make_new
                0x00000000080122c8       0x40 build/py/objtype.o
 .text.mp_load_super_method
                0x0000000008012308       0x20 build/py/objtype.o
                0x0000000008012308                mp_load_super_method
 .text.mp_obj_is_subclass_fast
                0x0000000008012328       0x60 build/py/objtype.o
                0x0000000008012328                mp_obj_is_subclass_fast
 .text.mp_obj_is_subclass
                0x0000000008012388       0x78 build/py/objtype.o
 .text.mp_builtin_issubclass
                0x0000000008012400       0x24 build/py/objtype.o
 .text.mp_builtin_isinstance
                0x0000000008012424       0x10 build/py/objtype.o
 .text.mp_instance_cast_to_native_base
                0x0000000008012434       0x1a build/py/objtype.o
                0x0000000008012434                mp_instance_cast_to_native_base
 .text.zip_iternext
                0x000000000801244e       0x40 build/py/objzip.o
 *fill*         0x000000000801248e        0x2 
 .text.zip_make_new
                0x0000000008012490       0x44 build/py/objzip.o
 .text.op_getitem
                0x00000000080124d4       0x16 build/py/opmethods.o
 .text.op_setitem
                0x00000000080124ea       0x18 build/py/opmethods.o
 .text.op_delitem
                0x0000000008012502       0x16 build/py/opmethods.o
 .text.op_contains
                0x0000000008012518       0x16 build/py/opmethods.o
 .text.mp_seq_multiply
                0x000000000801252e       0x26 build/py/sequence.o
                0x000000000801252e                mp_seq_multiply
 .text.mp_seq_get_fast_slice_indexes
                0x0000000008012554       0xf8 build/py/sequence.o
                0x0000000008012554                mp_seq_get_fast_slice_indexes
 .text.mp_seq_extract_slice
                0x000000000801264c       0x46 build/py/sequence.o
                0x000000000801264c                mp_seq_extract_slice
 .text.mp_seq_cmp_bytes
                0x0000000008012692       0x6c build/py/sequence.o
                0x0000000008012692                mp_seq_cmp_bytes
 *fill*         0x00000000080126fe        0x2 
 .text.mp_seq_cmp_objs
                0x0000000008012700       0x98 build/py/sequence.o
                0x0000000008012700                mp_seq_cmp_objs
 .text.mp_seq_index_obj
                0x0000000008012798       0x68 build/py/sequence.o
                0x0000000008012798                mp_seq_index_obj
 .text.mp_seq_count_obj
                0x0000000008012800       0x28 build/py/sequence.o
                0x0000000008012800                mp_seq_count_obj
 .text.mp_stream_close
                0x0000000008012828       0x24 build/py/stream.o
                0x0000000008012828                mp_stream_close
 .text.stream_flush
                0x000000000801284c       0x24 build/py/stream.o
 .text.stream_unbuffered_readline
                0x0000000008012870       0x8c build/py/stream.o
 .text.stream_unbuffered_readlines
                0x00000000080128fc       0x2e build/py/stream.o
 .text.stream_seek
                0x000000000801292a       0x54 build/py/stream.o
 .text.stream_tell
                0x000000000801297e       0x16 build/py/stream.o
 .text.mp_stream_rw
                0x0000000008012994       0x5c build/py/stream.o
                0x0000000008012994                mp_stream_rw
 .text.stream_read_generic
                0x00000000080129f0      0x180 build/py/stream.o
 .text.stream_read
                0x0000000008012b70        0xa build/py/stream.o
 .text.stream_readinto
                0x0000000008012b7a       0x4a build/py/stream.o
 .text.mp_get_stream_raise
                0x0000000008012bc4       0x40 build/py/stream.o
                0x0000000008012bc4                mp_get_stream_raise
 .text.mp_stream_write
                0x0000000008012c04       0x20 build/py/stream.o
                0x0000000008012c04                mp_stream_write
 .text.stream_write_method
                0x0000000008012c24       0x60 build/py/stream.o
 .text.mp_stream_write_adaptor
                0x0000000008012c84        0xa build/py/stream.o
                0x0000000008012c84                mp_stream_write_adaptor
 .text.mp_stream_unbuffered_iter
                0x0000000008012c8e       0x1e build/py/stream.o
                0x0000000008012c8e                mp_stream_unbuffered_iter
 .text.mp_binary_get_size
                0x0000000008012cac       0xd0 build/py/binary.o
                0x0000000008012cac                mp_binary_get_size
 .text.mp_binary_get_val_array
                0x0000000008012d7c       0xae build/py/binary.o
                0x0000000008012d7c                mp_binary_get_val_array
 .text.mp_binary_get_int
                0x0000000008012e2a       0x52 build/py/binary.o
                0x0000000008012e2a                mp_binary_get_int
 .text.mp_binary_get_val
                0x0000000008012e7c       0xa8 build/py/binary.o
                0x0000000008012e7c                mp_binary_get_val
 .text.mp_binary_set_int
                0x0000000008012f24       0x26 build/py/binary.o
                0x0000000008012f24                mp_binary_set_int
 *fill*         0x0000000008012f4a        0x2 
 .text.mp_binary_set_val
                0x0000000008012f4c       0xec build/py/binary.o
                0x0000000008012f4c                mp_binary_set_val
 .text.mp_binary_set_val_array_from_int
                0x0000000008013038       0x7e build/py/binary.o
                0x0000000008013038                mp_binary_set_val_array_from_int
 *fill*         0x00000000080130b6        0x2 
 .text.mp_binary_set_val_array
                0x00000000080130b8       0x84 build/py/binary.o
                0x00000000080130b8                mp_binary_set_val_array
 .text.mp_import_stat_any
                0x000000000801313c       0x14 build/py/builtinimport.o
 .text.do_execute_raw_code
                0x0000000008013150       0x50 build/py/builtinimport.o
 .text.do_load_from_lexer
                0x00000000080131a0       0x22 build/py/builtinimport.o
 .text.do_load  0x00000000080131c2       0x4c build/py/builtinimport.o
 .text.stat_file_py_or_mpy
                0x000000000801320e       0x32 build/py/builtinimport.o
 .text.stat_dir_or_file
                0x0000000008013240       0x24 build/py/builtinimport.o
 .text.mp_builtin___import__
                0x0000000008013264      0x2f8 build/py/builtinimport.o
                0x0000000008013264                mp_builtin___import__
 .text.mp_obj_is_package
                0x000000000801355c       0x14 build/py/builtinimport.o
                0x000000000801355c                mp_obj_is_package
 .text.mp_builtin_compile
                0x0000000008013570       0x74 build/py/builtinevex.o
 .text.eval_exec_helper
                0x00000000080135e4       0xf0 build/py/builtinevex.o
 .text.mp_builtin_eval
                0x00000000080136d4        0xa build/py/builtinevex.o
 .text.mp_builtin_exec
                0x00000000080136de        0xa build/py/builtinevex.o
 .text.mp_builtin_execfile
                0x00000000080136e8        0xa build/py/builtinevex.o
 .text.mp_help_add_from_names
                0x00000000080136f2       0x2c build/py/builtinhelp.o
 .text.mp_help_add_from_map
                0x000000000801371e       0x28 build/py/builtinhelp.o
 *fill*         0x0000000008013746        0x2 
 .text.mp_builtin_help
                0x0000000008013748      0x19c build/py/builtinhelp.o
 .text.mp_builtin_globals
                0x00000000080138e4        0xc build/py/modbuiltins.o
 .text.mp_builtin_locals
                0x00000000080138f0        0xc build/py/modbuiltins.o
 .text.mp_builtin___build_class__
                0x00000000080138fc       0x74 build/py/modbuiltins.o
 .text.mp_builtin_abs
                0x0000000008013970        0xc build/py/modbuiltins.o
 .text.mp_builtin_hash
                0x000000000801397c        0xc build/py/modbuiltins.o
 .text.mp_builtin_iter
                0x0000000008013988        0xa build/py/modbuiltins.o
 *fill*         0x0000000008013992        0x2 
 .text.mp_builtin_all
                0x0000000008013994       0x30 build/py/modbuiltins.o
 .text.mp_builtin_any
                0x00000000080139c4       0x30 build/py/modbuiltins.o
 .text.mp_builtin_bin
                0x00000000080139f4       0x16 build/py/modbuiltins.o
 *fill*         0x0000000008013a0a        0x2 
 .text.mp_builtin_callable
                0x0000000008013a0c       0x1c build/py/modbuiltins.o
 .text.mp_builtin_chr
                0x0000000008013a28       0xa0 build/py/modbuiltins.o
 .text.mp_builtin_divmod
                0x0000000008013ac8        0xe build/py/modbuiltins.o
 .text.mp_builtin_hex
                0x0000000008013ad6       0x10 build/py/modbuiltins.o
 .text.mp_builtin_oct
                0x0000000008013ae6       0x10 build/py/modbuiltins.o
 .text.mp_builtin_sum
                0x0000000008013af6       0x34 build/py/modbuiltins.o
 *fill*         0x0000000008013b2a        0x2 
 .text.mp_builtin_min_max
                0x0000000008013b2c       0xe0 build/py/modbuiltins.o
 .text.mp_builtin_max
                0x0000000008013c0c        0xa build/py/modbuiltins.o
 .text.mp_builtin_min
                0x0000000008013c16        0xa build/py/modbuiltins.o
 .text.mp_builtin_ord
                0x0000000008013c20       0x64 build/py/modbuiltins.o
 .text.mp_builtin_print
                0x0000000008013c84       0x84 build/py/modbuiltins.o
 .text.mp_builtin_repr
                0x0000000008013d08       0x2c build/py/modbuiltins.o
 .text.mp_builtin_round
                0x0000000008013d34       0x6c build/py/modbuiltins.o
 .text.mp_builtin_sorted
                0x0000000008013da0       0x3c build/py/modbuiltins.o
 .text.mp_builtin_hasattr
                0x0000000008013ddc       0x2c build/py/modbuiltins.o
 .text.mp_builtin_getattr
                0x0000000008013e08       0x44 build/py/modbuiltins.o
 .text.mp_builtin_setattr
                0x0000000008013e4c       0x20 build/py/modbuiltins.o
 .text.mp_builtin_delattr
                0x0000000008013e6c        0xa build/py/modbuiltins.o
 *fill*         0x0000000008013e76        0x2 
 .text.mp_builtin_dir
                0x0000000008013e78       0x90 build/py/modbuiltins.o
 .text.mp_builtin_next
                0x0000000008013f08       0x1c build/py/modbuiltins.o
 .text.mp_builtin_pow
                0x0000000008013f24       0x22 build/py/modbuiltins.o
 *fill*         0x0000000008013f46        0x2 
 .text.mp_builtin___repl_print__
                0x0000000008013f48       0x4c build/py/modbuiltins.o
 .text.gc_disable
                0x0000000008013f94       0x18 build/py/modgc.o
 .text.gc_enable
                0x0000000008013fac       0x18 build/py/modgc.o
 .text.gc_isenabled
                0x0000000008013fc4       0x20 build/py/modgc.o
 .text.py_gc_collect
                0x0000000008013fe4       0x1c build/py/modgc.o
 .text.gc_mem_free
                0x0000000008014000       0x16 build/py/modgc.o
 .text.gc_mem_alloc
                0x0000000008014016       0x16 build/py/modgc.o
 .text.gc_threshold
                0x000000000801402c       0x3c build/py/modgc.o
 .text.resource_stream
                0x0000000008014068       0xd4 build/py/modio.o
 .text.fabs_funcf
                0x000000000801413c        0x6 build/py/modmath.o
 *fill*         0x0000000008014142        0x2 
 .text.log2f    0x0000000008014144       0x14 build/py/modmath.o
                0x0000000008014144                log2f
 .text.mp_math_isnan
                0x0000000008014158       0x20 build/py/modmath.o
 .text.mp_math_isfinite
                0x0000000008014178       0x38 build/py/modmath.o
 .text.mp_math_isinf
                0x00000000080141b0       0x38 build/py/modmath.o
 .text.mp_math_degrees
                0x00000000080141e8       0x18 build/py/modmath.o
 .text.mp_math_radians
                0x0000000008014200       0x18 build/py/modmath.o
 .text.mp_math_trunc
                0x0000000008014218       0x10 build/py/modmath.o
 .text.mp_math_modf
                0x0000000008014228       0x2a build/py/modmath.o
 .text.mp_math_ldexp
                0x0000000008014252       0x1e build/py/modmath.o
 .text.mp_math_frexp
                0x0000000008014270       0x2a build/py/modmath.o
 .text.mp_math_floor
                0x000000000801429a       0x10 build/py/modmath.o
 .text.copysign_funcf
                0x00000000080142aa        0xc build/py/modmath.o
 .text.mp_math_ceil
                0x00000000080142b6       0x10 build/py/modmath.o
 *fill*         0x00000000080142c6        0x2 
 .text.math_generic_1
                0x00000000080142c8       0x74 build/py/modmath.o
 .text.mp_math_lgamma
                0x000000000801433c       0x10 build/py/modmath.o
 .text.mp_math_gamma
                0x000000000801434c       0x10 build/py/modmath.o
 .text.mp_math_erfc
                0x000000000801435c       0x10 build/py/modmath.o
 .text.mp_math_erf
                0x000000000801436c       0x10 build/py/modmath.o
 .text.mp_math_fabs
                0x000000000801437c       0x10 build/py/modmath.o
 .text.mp_math_atan
                0x000000000801438c       0x10 build/py/modmath.o
 .text.mp_math_asin
                0x000000000801439c       0x10 build/py/modmath.o
 .text.mp_math_acos
                0x00000000080143ac       0x10 build/py/modmath.o
 .text.mp_math_tan
                0x00000000080143bc       0x10 build/py/modmath.o
 .text.mp_math_sin
                0x00000000080143cc       0x10 build/py/modmath.o
 .text.mp_math_cos
                0x00000000080143dc       0x10 build/py/modmath.o
 .text.mp_math_atanh
                0x00000000080143ec       0x10 build/py/modmath.o
 .text.mp_math_asinh
                0x00000000080143fc       0x10 build/py/modmath.o
 .text.mp_math_acosh
                0x000000000801440c       0x10 build/py/modmath.o
 .text.mp_math_tanh
                0x000000000801441c       0x10 build/py/modmath.o
 .text.mp_math_sinh
                0x000000000801442c       0x10 build/py/modmath.o
 .text.mp_math_cosh
                0x000000000801443c       0x10 build/py/modmath.o
 .text.mp_math_log10
                0x000000000801444c       0x10 build/py/modmath.o
 .text.mp_math_log2
                0x000000000801445c       0x10 build/py/modmath.o
 .text.mp_math_expm1
                0x000000000801446c       0x10 build/py/modmath.o
 .text.mp_math_exp
                0x000000000801447c       0x10 build/py/modmath.o
 .text.mp_math_sqrt
                0x000000000801448c       0x10 build/py/modmath.o
 .text.math_generic_2
                0x000000000801449c       0x8c build/py/modmath.o
 .text.mp_math_fmod
                0x0000000008014528       0x10 build/py/modmath.o
 .text.mp_math_copysign
                0x0000000008014538       0x10 build/py/modmath.o
 .text.mp_math_atan2
                0x0000000008014548       0x10 build/py/modmath.o
 .text.mp_math_pow
                0x0000000008014558       0x10 build/py/modmath.o
 .text.mp_math_log
                0x0000000008014568       0x74 build/py/modmath.o
 .text.mp_cmath_sin
                0x00000000080145dc       0x42 build/py/modcmath.o
 .text.mp_cmath_cos
                0x000000000801461e       0x46 build/py/modcmath.o
 .text.mp_cmath_sqrt
                0x0000000008014664       0x66 build/py/modcmath.o
 *fill*         0x00000000080146ca        0x2 
 .text.mp_cmath_log10
                0x00000000080146cc       0x54 build/py/modcmath.o
 .text.mp_cmath_log
                0x0000000008014720       0x48 build/py/modcmath.o
 .text.mp_cmath_exp
                0x0000000008014768       0x3a build/py/modcmath.o
 .text.mp_cmath_rect
                0x00000000080147a2       0x36 build/py/modcmath.o
 .text.mp_cmath_phase
                0x00000000080147d8       0x18 build/py/modcmath.o
 .text.mp_cmath_polar
                0x00000000080147f0       0x4c build/py/modcmath.o
 .text.mp_micropython_pystack_use
                0x000000000801483c       0x14 build/py/modmicropython.o
 .text.mp_micropython_mem_total
                0x0000000008014850        0xe build/py/modmicropython.o
 .text.mp_micropython_mem_current
                0x000000000801485e        0xe build/py/modmicropython.o
 .text.mp_micropython_mem_peak
                0x000000000801486c        0xe build/py/modmicropython.o
 .text.mp_micropython_stack_use
                0x000000000801487a        0xe build/py/modmicropython.o
 .text.mp_micropython_mem_info
                0x0000000008014888       0x5c build/py/modmicropython.o
                0x0000000008014888                mp_micropython_mem_info
 .text.mp_micropython_kbd_intr
                0x00000000080148e4       0x14 build/py/modmicropython.o
 .text.mp_micropython_heap_unlock
                0x00000000080148f8       0x10 build/py/modmicropython.o
 .text.mp_micropython_heap_lock
                0x0000000008014908       0x10 build/py/modmicropython.o
 .text.mp_micropython_qstr_info
                0x0000000008014918       0x40 build/py/modmicropython.o
 .text.mp_micropython_schedule
                0x0000000008014958       0x24 build/py/modmicropython.o
 .text.mp_micropython_opt_level
                0x000000000801497c       0x2c build/py/modmicropython.o
 .text.get_fmt_type
                0x00000000080149a8       0x24 build/py/modstruct.o
 .text.get_fmt_num
                0x00000000080149cc       0x2c build/py/modstruct.o
 .text.calc_size_items
                0x00000000080149f8       0x66 build/py/modstruct.o
 .text.struct_calcsize
                0x0000000008014a5e       0x16 build/py/modstruct.o
 .text.struct_unpack_from
                0x0000000008014a74       0xd8 build/py/modstruct.o
 .text.struct_pack_into_internal
                0x0000000008014b4c       0xa0 build/py/modstruct.o
 .text.struct_pack
                0x0000000008014bec       0x44 build/py/modstruct.o
 .text.struct_pack_into
                0x0000000008014c30       0x5c build/py/modstruct.o
 .text.mp_sys_exit
                0x0000000008014c8c       0x20 build/py/modsys.o
 .text.mp_sys_print_exception
                0x0000000008014cac       0x34 build/py/modsys.o
 .text.mp_sys_exc_info
                0x0000000008014ce0       0x38 build/py/modsys.o
 .text.mp_sys_getsizeof
                0x0000000008014d18        0xc build/py/modsys.o
 .text.mp_errno_to_str
                0x0000000008014d24       0x1c build/py/moduerrno.o
                0x0000000008014d24                mp_errno_to_str
 .text.mp_execute_bytecode
                0x0000000008014d40     0x12e4 build/py/vm.o
                0x0000000008014d40                mp_execute_bytecode
 .text.unlikely.fun_pos_args_mismatch
                0x0000000008016024       0x24 build/py/bc.o
 .text.mp_decode_uint
                0x0000000008016048       0x20 build/py/bc.o
                0x0000000008016048                mp_decode_uint
 .text.mp_decode_uint_value
                0x0000000008016068        0xc build/py/bc.o
                0x0000000008016068                mp_decode_uint_value
 .text.mp_decode_uint_skip
                0x0000000008016074        0xc build/py/bc.o
                0x0000000008016074                mp_decode_uint_skip
 .text.mp_setup_code_state
                0x0000000008016080      0x2d0 build/py/bc.o
                0x0000000008016080                mp_setup_code_state
 .text.mp_opcode_format
                0x0000000008016350       0x5c build/py/bc.o
                0x0000000008016350                mp_opcode_format
 .text.str_startswith_word
                0x00000000080163ac       0x36 build/py/repl.o
 *fill*         0x00000000080163e2        0x2 
 .text.mp_repl_continue_with_input
                0x00000000080163e4      0x184 build/py/repl.o
                0x00000000080163e4                mp_repl_continue_with_input
 .text.mp_repl_autocomplete
                0x0000000008016568      0x20c build/py/repl.o
                0x0000000008016568                mp_repl_autocomplete
 .text.mp_small_int_mul_overflow
                0x0000000008016774       0x68 build/py/smallint.o
                0x0000000008016774                mp_small_int_mul_overflow
 .text.mp_small_int_modulo
                0x00000000080167dc       0x20 build/py/smallint.o
                0x00000000080167dc                mp_small_int_modulo
 .text.mp_small_int_floor_divide
                0x00000000080167fc       0x1e build/py/smallint.o
                0x00000000080167fc                mp_small_int_floor_divide
 .text.mp_frozen_stat_helper
                0x000000000801681a       0x48 build/py/frozenmod.o
 *fill*         0x0000000008016862        0x2 
 .text.mp_find_frozen_str
                0x0000000008016864       0x68 build/py/frozenmod.o
                0x0000000008016864                mp_find_frozen_str
 .text.mp_frozen_stat
                0x00000000080168cc       0x24 build/py/frozenmod.o
                0x00000000080168cc                mp_frozen_stat
 .text.mp_find_frozen_module
                0x00000000080168f0       0x80 build/py/frozenmod.o
                0x00000000080168f0                mp_find_frozen_module
 .text.uctypes_struct_addressof
                0x0000000008016970       0x14 build/extmod/moductypes.o
 .text.uctypes_struct_bytearray_at
                0x0000000008016984       0x1c build/extmod/moductypes.o
 .text.uctypes_struct_bytes_at
                0x00000000080169a0       0x1a build/extmod/moductypes.o
 .text.get_aligned
                0x00000000080169ba       0x96 build/extmod/moductypes.o
 .text.uctypes_struct_make_new
                0x0000000008016a50       0x40 build/extmod/moductypes.o
 .text.uctypes_struct_print
                0x0000000008016a90       0x58 build/extmod/moductypes.o
 .text.set_aligned
                0x0000000008016ae8       0x70 build/extmod/moductypes.o
 .text.uctypes_struct_size
                0x0000000008016b58       0xec build/extmod/moductypes.o
 .text.uctypes_struct_sizeof
                0x0000000008016c44       0x40 build/extmod/moductypes.o
 .text.uctypes_struct_agg_size
                0x0000000008016c84       0x50 build/extmod/moductypes.o
 .text.uctypes_get_buffer
                0x0000000008016cd4       0x22 build/extmod/moductypes.o
 *fill*         0x0000000008016cf6        0x2 
 .text.uctypes_struct_subscr
                0x0000000008016cf8      0x138 build/extmod/moductypes.o
 .text.uctypes_struct_attr_op
                0x0000000008016e30      0x214 build/extmod/moductypes.o
 .text.uctypes_struct_attr
                0x0000000008017044       0x22 build/extmod/moductypes.o
 .text.ujson_stream_next
                0x0000000008017066       0x2a build/extmod/modujson.o
 .text.mod_ujson_load
                0x0000000008017090      0x2f8 build/extmod/modujson.o
 .text.mod_ujson_loads
                0x0000000008017388       0x38 build/extmod/modujson.o
 .text.mod_ujson_dump
                0x00000000080173c0       0x2c build/extmod/modujson.o
 .text.mod_ujson_dumps
                0x00000000080173ec       0x2c build/extmod/modujson.o
 .text.match_print
                0x0000000008017418       0x10 build/extmod/modure.o
 .text.re_print
                0x0000000008017428       0x10 build/extmod/modure.o
 .text._compilecode
                0x0000000008017438      0x35c build/extmod/modure.o
 .text.match_group
                0x0000000008017794       0x48 build/extmod/modure.o
 .text.match_groups
                0x00000000080177dc       0x3c build/extmod/modure.o
 .text.match_span_helper
                0x0000000008017818       0x60 build/extmod/modure.o
 .text.match_span
                0x0000000008017878       0x12 build/extmod/modure.o
 .text.match_start
                0x000000000801788a        0xc build/extmod/modure.o
 .text.match_end
                0x0000000008017896        0xc build/extmod/modure.o
 .text.re1_5_sizecode
                0x00000000080178a2       0x2c build/extmod/modure.o
                0x00000000080178a2                re1_5_sizecode
 *fill*         0x00000000080178ce        0x2 
 .text.re1_5_compilecode
                0x00000000080178d0       0x54 build/extmod/modure.o
                0x00000000080178d0                re1_5_compilecode
 .text.re1_5_dumpcode
                0x0000000008017924      0x138 build/extmod/modure.o
                0x0000000008017924                re1_5_dumpcode
 .text.mod_re_compile
                0x0000000008017a5c       0x5c build/extmod/modure.o
 .text._re1_5_classmatch
                0x0000000008017ab8       0x34 build/extmod/modure.o
                0x0000000008017ab8                _re1_5_classmatch
 .text._re1_5_namedclassmatch
                0x0000000008017aec       0x4a build/extmod/modure.o
                0x0000000008017aec                _re1_5_namedclassmatch
 .text.recursiveloop
                0x0000000008017b36      0x118 build/extmod/modure.o
 .text.re1_5_recursiveloopprog
                0x0000000008017c4e       0x1a build/extmod/modure.o
                0x0000000008017c4e                re1_5_recursiveloopprog
 .text.ure_exec.isra.3
                0x0000000008017c68       0x78 build/extmod/modure.o
 .text.re_match
                0x0000000008017ce0        0xa build/extmod/modure.o
 .text.re_search
                0x0000000008017cea        0xa build/extmod/modure.o
 .text.mod_re_match
                0x0000000008017cf4       0x1e build/extmod/modure.o
 .text.mod_re_search
                0x0000000008017d12       0x1e build/extmod/modure.o
 .text.re_split
                0x0000000008017d30       0xcc build/extmod/modure.o
 .text.re_sub_helper
                0x0000000008017dfc      0x198 build/extmod/modure.o
 .text.re_sub   0x0000000008017f94       0x10 build/extmod/modure.o
 .text.mod_re_sub
                0x0000000008017fa4       0x16 build/extmod/modure.o
 .text.tinf_build_tree
                0x0000000008017fba       0x66 build/extmod/moduzlib.o
 .text.read_src_stream
                0x0000000008018020       0x38 build/extmod/moduzlib.o
 .text.uzlib_get_byte
                0x0000000008018058       0x16 build/extmod/moduzlib.o
                0x0000000008018058                uzlib_get_byte
 .text.tinf_getbit
                0x000000000801806e       0x24 build/extmod/moduzlib.o
 .text.tinf_read_bits
                0x0000000008018092       0x2c build/extmod/moduzlib.o
 .text.tinf_decode_symbol
                0x00000000080180be       0x2a build/extmod/moduzlib.o
 .text.tinf_decode_trees
                0x00000000080180e8      0x10c build/extmod/moduzlib.o
 .text.tinf_get_le_uint32
                0x00000000080181f4       0x1e build/extmod/moduzlib.o
                0x00000000080181f4                tinf_get_le_uint32
 .text.tinf_get_be_uint32
                0x0000000008018212       0x1c build/extmod/moduzlib.o
                0x0000000008018212                tinf_get_be_uint32
 *fill*         0x000000000801822e        0x2 
 .text.uzlib_uncompress
                0x0000000008018230      0x280 build/extmod/moduzlib.o
                0x0000000008018230                uzlib_uncompress
 .text.uzlib_zlib_parse_header
                0x00000000080184b0       0x44 build/extmod/moduzlib.o
                0x00000000080184b0                uzlib_zlib_parse_header
 .text.tinf_skip_bytes
                0x00000000080184f4       0x14 build/extmod/moduzlib.o
                0x00000000080184f4                tinf_skip_bytes
 .text.tinf_get_uint16
                0x0000000008018508       0x18 build/extmod/moduzlib.o
                0x0000000008018508                tinf_get_uint16
 .text.uzlib_gzip_parse_header
                0x0000000008018520       0x8a build/extmod/moduzlib.o
                0x0000000008018520                uzlib_gzip_parse_header
 *fill*         0x00000000080185aa        0x2 
 .text.decompio_make_new
                0x00000000080185ac       0xb4 build/extmod/moduzlib.o
 .text.uzlib_adler32
                0x0000000008018660       0xcc build/extmod/moduzlib.o
                0x0000000008018660                uzlib_adler32
 .text.uzlib_crc32
                0x000000000801872c       0x38 build/extmod/moduzlib.o
                0x000000000801872c                uzlib_crc32
 .text.uzlib_uncompress_chksum
                0x0000000008018764       0x6a build/extmod/moduzlib.o
                0x0000000008018764                uzlib_uncompress_chksum
 *fill*         0x00000000080187ce        0x2 
 .text.decompio_read
                0x00000000080187d0       0x3c build/extmod/moduzlib.o
 .text.mod_uzlib_decompress
                0x000000000801880c       0xc4 build/extmod/moduzlib.o
 .text.get_heap
                0x00000000080188d0       0x20 build/extmod/moduheapq.o
 .text.heap_siftdown.isra.0
                0x00000000080188f0       0x48 build/extmod/moduheapq.o
 .text.heap_siftup
                0x0000000008018938       0x70 build/extmod/moduheapq.o
 .text.mod_uheapq_heapify
                0x00000000080189a8       0x24 build/extmod/moduheapq.o
 .text.mod_uheapq_heappush
                0x00000000080189cc       0x2c build/extmod/moduheapq.o
 .text.mod_uheapq_heappop
                0x00000000080189f8       0x40 build/extmod/moduheapq.o
 .text.utimeq_unary_op
                0x0000000008018a38       0x2c build/extmod/modutimeq.o
 .text.utimeq_make_new
                0x0000000008018a64       0x40 build/extmod/modutimeq.o
 .text.mod_utimeq_peektime
                0x0000000008018aa4       0x28 build/extmod/modutimeq.o
 .text.heap_siftdown.constprop.3
                0x0000000008018acc       0x90 build/extmod/modutimeq.o
 .text.mod_utimeq_heappop
                0x0000000008018b5c      0x114 build/extmod/modutimeq.o
 .text.mod_utimeq_heappush
                0x0000000008018c70       0x54 build/extmod/modutimeq.o
 .text.sha256_transform
                0x0000000008018cc4      0x16c build/extmod/moduhashlib.o
 .text.sha256_init
                0x0000000008018e30       0x50 build/extmod/moduhashlib.o
                0x0000000008018e30                sha256_init
 .text.sha256_update
                0x0000000008018e80       0x42 build/extmod/moduhashlib.o
                0x0000000008018e80                sha256_update
 *fill*         0x0000000008018ec2        0x2 
 .text.uhashlib_sha256_update
                0x0000000008018ec4       0x24 build/extmod/moduhashlib.o
 .text.uhashlib_sha256_make_new
                0x0000000008018ee8       0x30 build/extmod/moduhashlib.o
 .text.sha256_final
                0x0000000008018f18       0xcc build/extmod/moduhashlib.o
                0x0000000008018f18                sha256_final
 .text.uhashlib_sha256_digest
                0x0000000008018fe4       0x24 build/extmod/moduhashlib.o
 .text.mod_binascii_hexlify
                0x0000000008019008       0x88 build/extmod/modubinascii.o
                0x0000000008019008                mod_binascii_hexlify
 .text.mod_binascii_b2a_base64
                0x0000000008019090       0xf4 build/extmod/modubinascii.o
                0x0000000008019090                mod_binascii_b2a_base64
 .text.mod_binascii_unhexlify
                0x0000000008019184       0x84 build/extmod/modubinascii.o
                0x0000000008019184                mod_binascii_unhexlify
 .text.mod_binascii_a2b_base64
                0x0000000008019208       0xc4 build/extmod/modubinascii.o
                0x0000000008019208                mod_binascii_a2b_base64
 .text.mod_binascii_crc32
                0x00000000080192cc       0x32 build/extmod/modubinascii.o
                0x00000000080192cc                mod_binascii_crc32
 *fill*         0x00000000080192fe        0x2 
 .text.yasmarang
                0x0000000008019300       0x60 build/extmod/modurandom.o
 .text.yasmarang_randbelow
                0x0000000008019360       0x22 build/extmod/modurandom.o
 .text.mod_urandom_uniform
                0x0000000008019382       0x42 build/extmod/modurandom.o
 .text.mod_urandom_randint
                0x00000000080193c4       0x2a build/extmod/modurandom.o
 .text.mod_urandom_randrange
                0x00000000080193ee       0x6a build/extmod/modurandom.o
 .text.mod_urandom_seed
                0x0000000008019458       0x34 build/extmod/modurandom.o
 .text.mod_urandom_getrandbits
                0x000000000801948c       0x2c build/extmod/modurandom.o
 .text.mod_urandom_choice
                0x00000000080194b8       0x34 build/extmod/modurandom.o
 .text.mod_urandom_random
                0x00000000080194ec       0x1e build/extmod/modurandom.o
 .text.mp_vfs_proxy_call
                0x000000000801950a       0x3e build/extmod/vfs.o
 .text.mp_vfs_umount
                0x0000000008019548       0xa0 build/extmod/vfs.o
                0x0000000008019548                mp_vfs_umount
 .text.mp_vfs_getcwd
                0x00000000080195e8       0x74 build/extmod/vfs.o
                0x00000000080195e8                mp_vfs_getcwd
 .text.mp_vfs_ilistdir_it_iternext
                0x000000000801965c       0x70 build/extmod/vfs.o
 .text.mp_vfs_lookup_path
                0x00000000080196cc       0x8c build/extmod/vfs.o
                0x00000000080196cc                mp_vfs_lookup_path
 .text.mp_vfs_mount
                0x0000000008019758       0x9c build/extmod/vfs.o
                0x0000000008019758                mp_vfs_mount
 .text.lookup_path
                0x00000000080197f4       0x36 build/extmod/vfs.o
 *fill*         0x000000000801982a        0x2 
 .text.mp_vfs_open
                0x000000000801982c       0x30 build/extmod/vfs.o
                0x000000000801982c                mp_vfs_open
 .text.mp_vfs_chdir
                0x000000000801985c       0x48 build/extmod/vfs.o
                0x000000000801985c                mp_vfs_chdir
 .text.mp_vfs_ilistdir
                0x00000000080198a4       0x68 build/extmod/vfs.o
                0x00000000080198a4                mp_vfs_ilistdir
 .text.mp_vfs_listdir
                0x000000000801990c       0x32 build/extmod/vfs.o
                0x000000000801990c                mp_vfs_listdir
 *fill*         0x000000000801993e        0x2 
 .text.mp_vfs_mkdir
                0x0000000008019940       0x3c build/extmod/vfs.o
                0x0000000008019940                mp_vfs_mkdir
 .text.mp_vfs_remove
                0x000000000801997c       0x16 build/extmod/vfs.o
                0x000000000801997c                mp_vfs_remove
 .text.mp_vfs_rename
                0x0000000008019992       0x2e build/extmod/vfs.o
                0x0000000008019992                mp_vfs_rename
 .text.mp_vfs_rmdir
                0x00000000080199c0       0x16 build/extmod/vfs.o
                0x00000000080199c0                mp_vfs_rmdir
 *fill*         0x00000000080199d6        0x2 
 .text.mp_vfs_stat
                0x00000000080199d8       0x3c build/extmod/vfs.o
                0x00000000080199d8                mp_vfs_stat
 .text.mp_vfs_statvfs
                0x0000000008019a14       0x5c build/extmod/vfs.o
                0x0000000008019a14                mp_vfs_statvfs
 .text.mp_vfs_import_stat
                0x0000000008019a70       0x7c build/extmod/vfs.o
                0x0000000008019a70                mp_vfs_import_stat
 .text.mp_reader_vfs_close
                0x0000000008019aec       0x14 build/extmod/vfs_reader.o
 .text.mp_reader_vfs_readbyte
                0x0000000008019b00       0x46 build/extmod/vfs_reader.o
 *fill*         0x0000000008019b46        0x2 
 .text.mp_reader_new_file
                0x0000000008019b48       0x60 build/extmod/vfs_reader.o
                0x0000000008019b48                mp_reader_new_file
 .text.time_ticks_diff
                0x0000000008019ba8       0x1c build/extmod/utime_mphal.o
 .text.time_sleep
                0x0000000008019bc4       0x20 build/extmod/utime_mphal.o
 .text.time_sleep_ms
                0x0000000008019be4       0x18 build/extmod/utime_mphal.o
 .text.time_ticks_add
                0x0000000008019bfc       0x20 build/extmod/utime_mphal.o
 .text.time_ticks_ms
                0x0000000008019c1c       0x18 build/extmod/utime_mphal.o
 .text.time_ticks_cpu
                0x0000000008019c34       0x18 build/extmod/utime_mphal.o
 .text.strn_print_strn
                0x0000000008019c4c       0x22 build/lib/utils/printf.o
 *fill*         0x0000000008019c6e        0x2 
 .text.printf   0x0000000008019c70       0x1c build/lib/utils/printf.o
                0x0000000008019c70                printf
 .text.putchar  0x0000000008019c8c       0x14 build/lib/utils/printf.o
                0x0000000008019c8c                putchar
 .text.puts     0x0000000008019ca0       0x22 build/lib/utils/printf.o
                0x0000000008019ca0                puts
 *fill*         0x0000000008019cc2        0x2 
 .text.vsnprintf
                0x0000000008019cc4       0x38 build/lib/utils/printf.o
                0x0000000008019cc4                __GI_vsnprintf
                0x0000000008019cc4                vsnprintf
 .text.snprintf
                0x0000000008019cfc       0x16 build/lib/utils/printf.o
                0x0000000008019cfc                snprintf
 .text.debug_printer
                0x0000000008019d12       0x10 build/main.o
                0x0000000008019d12                debug_printer
 *fill*         0x0000000008019d22        0x2 
 .text.startup.main
                0x0000000008019d24       0xf4 build/main.o
                0x0000000008019d24                main
 .text.Signal_Handler
                0x0000000008019e18       0x3c build/machine.o
                0x0000000008019e18                Signal_Handler
 .text._start   0x0000000008019e54        0xc build/machine.o
                0x0000000008019e54                _start
 .text.Reset_Handler
                0x0000000008019e60       0x64 build/machine.o
                0x0000000008019e60                Reset_Handler
 .text.__fatal_error
                0x0000000008019ec4       0x10 build/machine.o
                0x0000000008019ec4                __fatal_error
 .text.Call_Handler
                0x0000000008019ed4        0xc build/machine.o
                0x0000000008019ed4                Call_Handler
 .text.nlr_jump_fail
                0x0000000008019ee0        0xc build/machine.o
                0x0000000008019ee0                nlr_jump_fail
 .text.mp_hal_stdin_rx_chr
                0x0000000008019eec       0x14 build/mphalport.o
                0x0000000008019eec                mp_hal_stdin_rx_chr
 .text.mp_hal_stdout_tx_strn
                0x0000000008019f00       0x48 build/mphalport.o
                0x0000000008019f00                mp_hal_stdout_tx_strn
 .text.mp_hal_delay_ms
                0x0000000008019f48       0x28 build/mphalport.o
                0x0000000008019f48                mp_hal_delay_ms
 .text.mp_hal_ticks_ms
                0x0000000008019f70        0xc build/mphalport.o
                0x0000000008019f70                mp_hal_ticks_ms
 .text.mp_hal_ticks_cpu
                0x0000000008019f7c        0xc build/mphalport.o
                0x0000000008019f7c                mp_hal_ticks_cpu
 .text.__syscall1
                0x0000000008019f88        0xe build/modmachine.o
 *fill*         0x0000000008019f96        0x2 
 .text.usystem_print_hook
                0x0000000008019f98       0x10 build/modmachine.o
 .text.usystem_repl_input
                0x0000000008019fa8       0x64 build/modmachine.o
 .text.usystem_repl_compile
                0x000000000801a00c       0x80 build/modmachine.o
 .text.usystem_repl_call
                0x000000000801a08c       0x58 build/modmachine.o
 .text.usystem_shutdown
                0x000000000801a0e4       0x14 build/modmachine.o
                0x000000000801a0e4                usystem_shutdown
 .text.usystem_reboot
                0x000000000801a0f8       0x14 build/modmachine.o
                0x000000000801a0f8                usystem_reboot
 .text.usystem_set_stdin_char
                0x000000000801a10c       0x34 build/modmachine.o
                0x000000000801a10c                usystem_set_stdin_char
 .text.usystem_debug
                0x000000000801a140       0x20 build/modmachine.o
                0x000000000801a140                usystem_debug
 .text.parse_2  0x000000000801a160       0x18 build/modmachine.o
                0x000000000801a160                parse_2
 .text.usystem_invoke
                0x000000000801a178       0xd0 build/modmachine.o
 .text.usystem_signal
                0x000000000801a248       0x10 build/modmachine.o
 .text.usystem_components
                0x000000000801a258       0x10 build/modmachine.o
 .text.usystem_methods
                0x000000000801a268       0x3e build/modmachine.o
 .text.usystem_annotations
                0x000000000801a2a6       0x46 build/modmachine.o
 .text.usystem_get_stdout_str
                0x000000000801a2ec       0x10 build/modmachine.o
                0x000000000801a2ec                usystem_get_stdout_str
 .text.umsgpack_dumps
                0x000000000801a2fc       0x14 build/modumsgpack.o
                0x000000000801a2fc                umsgpack_dumps
 .text.umsgpack_loads
                0x000000000801a310       0x14 build/modumsgpack.o
                0x000000000801a310                umsgpack_loads
 .text.gc_collect
                0x000000000801a324       0x24 build/gccollect.o
                0x000000000801a324                gc_collect
 .text.vfs_openpie_file___exit__
                0x000000000801a348        0xa build/openpie_vfs.o
 *fill*         0x000000000801a352        0x2 
 .text.vfs_openpie_file_print
                0x000000000801a354       0x20 build/openpie_vfs.o
 .text.unlikely.check_fd_is_open.isra.0.part.1
                0x000000000801a374       0x18 build/openpie_vfs.o
 .text.vfs_openpie_file_fileno
                0x000000000801a38c       0x12 build/openpie_vfs.o
 .text.SVC_CALL_VFS
                0x000000000801a39e        0xe build/openpie_vfs.o
                0x000000000801a39e                SVC_CALL_VFS
 .text.SVC_CALL_VFS_OUT
                0x000000000801a3ac       0x10 build/openpie_vfs.o
                0x000000000801a3ac                SVC_CALL_VFS_OUT
 .text.vfs_openpie_file_ioctl
                0x000000000801a3bc       0x7e build/openpie_vfs.o
 .text.vfs_openpie_file_write
                0x000000000801a43a       0x36 build/openpie_vfs.o
 .text.vfs_openpie_file_read
                0x000000000801a470       0x34 build/openpie_vfs.o
 .text.mp_vfs_openpie_file_open
                0x000000000801a4a4       0x5c build/openpie_vfs.o
                0x000000000801a4a4                mp_vfs_openpie_file_open
 .text.vfs_openpie_file_make_new
                0x000000000801a500       0x30 build/openpie_vfs.o
 .text.msgpack_load
                0x000000000801a530      0x138 build/msgpack.o
                0x000000000801a530                msgpack_load
 .text.msgpack_load_new
                0x000000000801a668       0x1c build/msgpack.o
                0x000000000801a668                msgpack_load_new
 .text.msgpack_loads
                0x000000000801a684       0x2c build/msgpack.o
                0x000000000801a684                msgpack_loads
 .text.msgpack_dump
                0x000000000801a6b0      0x154 build/msgpack.o
                0x000000000801a6b0                msgpack_dump
 .text.msgpack_dump_new
                0x000000000801a804       0x1c build/msgpack.o
                0x000000000801a804                msgpack_dump_new
 .text.msgpack_dump_close
                0x000000000801a820       0x18 build/msgpack.o
                0x000000000801a820                msgpack_dump_close
 .text.msgpack_dumps
                0x000000000801a838       0x1c build/msgpack.o
                0x000000000801a838                msgpack_dumps
 .text          0x000000000801a854       0x24 build/gchelper_m0.o
                0x000000000801a854                gc_helper_get_regs_and_sp
 .text.mpack_utf8_check_impl
                0x000000000801a878      0x11c build/lib/mpack/mpack-common.o
 .text.mpack_utf8_check
                0x000000000801a994        0xa build/lib/mpack/mpack-common.o
                0x000000000801a994                mpack_utf8_check
 .text.mpack_tag_make_bool
                0x000000000801a99e       0x14 build/lib/mpack/mpack-platform.o
                0x000000000801a99e                mpack_tag_make_bool
 .text.mpack_tag_make_float
                0x000000000801a9b2       0x14 build/lib/mpack/mpack-platform.o
                0x000000000801a9b2                mpack_tag_make_float
 .text.mpack_tag_make_array
                0x000000000801a9c6       0x14 build/lib/mpack/mpack-platform.o
                0x000000000801a9c6                mpack_tag_make_array
 .text.mpack_tag_make_map
                0x000000000801a9da       0x14 build/lib/mpack/mpack-platform.o
                0x000000000801a9da                mpack_tag_make_map
 .text.mpack_tag_make_str
                0x000000000801a9ee       0x14 build/lib/mpack/mpack-platform.o
                0x000000000801a9ee                mpack_tag_make_str
 .text.mpack_tag_make_bin
                0x000000000801aa02       0x14 build/lib/mpack/mpack-platform.o
                0x000000000801aa02                mpack_tag_make_bin
 .text.mpack_tag_make_ext
                0x000000000801aa16       0x14 build/lib/mpack/mpack-platform.o
                0x000000000801aa16                mpack_tag_make_ext
 .text.mpack_load_u32
                0x000000000801aa2a       0x18 build/lib/mpack/mpack-platform.o
                0x000000000801aa2a                mpack_load_u32
 .text.mpack_load_u64
                0x000000000801aa42       0x18 build/lib/mpack/mpack-platform.o
                0x000000000801aa42                mpack_load_u64
 .text.mpack_store_u32
                0x000000000801aa5a       0x10 build/lib/mpack/mpack-platform.o
                0x000000000801aa5a                mpack_store_u32
 .text.mpack_store_u64
                0x000000000801aa6a       0x1a build/lib/mpack/mpack-platform.o
                0x000000000801aa6a                mpack_store_u64
 .text.mpack_reader_ensure
                0x000000000801aa84       0x18 build/lib/mpack/mpack-platform.o
                0x000000000801aa84                mpack_reader_ensure
 .text.mpack_memmove
                0x000000000801aa9c       0x26 build/lib/mpack/mpack-platform.o
                0x000000000801aa9c                mpack_memmove
 .text.mpack_reader_init_data
                0x000000000801aac2       0x18 build/lib/mpack/mpack-reader.o
                0x000000000801aac2                mpack_reader_init_data
 .text.mpack_reader_remaining
                0x000000000801aada       0x1c build/lib/mpack/mpack-reader.o
                0x000000000801aada                mpack_reader_remaining
 .text.mpack_reader_flag_error
                0x000000000801aaf6       0x1a build/lib/mpack/mpack-reader.o
                0x000000000801aaf6                mpack_reader_flag_error
 .text.mpack_fill_range
                0x000000000801ab10       0x40 build/lib/mpack/mpack-reader.o
 .text.mpack_parse_tag.constprop.19
                0x000000000801ab50      0x4fa build/lib/mpack/mpack-reader.o
 .text.mpack_reader_ensure_straddle
                0x000000000801b04a       0x64 build/lib/mpack/mpack-reader.o
                0x000000000801b04a                mpack_reader_ensure_straddle
 .text.mpack_read_bytes_inplace
                0x000000000801b0ae       0x30 build/lib/mpack/mpack-reader.o
                0x000000000801b0ae                mpack_read_bytes_inplace
 .text.mpack_read_utf8_inplace
                0x000000000801b0de       0x4a build/lib/mpack/mpack-reader.o
                0x000000000801b0de                mpack_read_utf8_inplace
 .text.mpack_read_tag
                0x000000000801b128       0x52 build/lib/mpack/mpack-reader.o
                0x000000000801b128                mpack_read_tag
 .text.mpack_writer_flush_unchecked
                0x000000000801b17a       0x10 build/lib/mpack/mpack-writer.o
 .text.mpack_writer_init
                0x000000000801b18a       0x16 build/lib/mpack/mpack-writer.o
                0x000000000801b18a                mpack_writer_init
 .text.mpack_writer_flag_error
                0x000000000801b1a0       0x14 build/lib/mpack/mpack-writer.o
                0x000000000801b1a0                mpack_writer_flag_error
 .text.mpack_writer_set_flush
                0x000000000801b1b4       0x18 build/lib/mpack/mpack-writer.o
                0x000000000801b1b4                mpack_writer_set_flush
 .text.mpack_writer_init_growable
                0x000000000801b1cc       0x50 build/lib/mpack/mpack-writer.o
                0x000000000801b1cc                mpack_writer_init_growable
 .text.mpack_growable_writer_teardown
                0x000000000801b21c       0x68 build/lib/mpack/mpack-writer.o
 .text.mpack_growable_writer_flush
                0x000000000801b284       0x64 build/lib/mpack/mpack-writer.o
 .text.mpack_writer_ensure
                0x000000000801b2e8       0x40 build/lib/mpack/mpack-writer.o
 .text.mpack_write_byte_element
                0x000000000801b328       0x24 build/lib/mpack/mpack-writer.o
 .text.mpack_start_str_notrack
                0x000000000801b34c       0xa8 build/lib/mpack/mpack-writer.o
 .text.mpack_start_bin_notrack
                0x000000000801b3f4       0x84 build/lib/mpack/mpack-writer.o
 .text.mpack_write_native_straddle
                0x000000000801b478       0x4c build/lib/mpack/mpack-writer.o
 .text.mpack_write_native
                0x000000000801b4c4       0x24 build/lib/mpack/mpack-writer.o
 .text.mpack_writer_destroy
                0x000000000801b4e8       0x30 build/lib/mpack/mpack-writer.o
                0x000000000801b4e8                mpack_writer_destroy
 .text.mpack_write_nil
                0x000000000801b518        0xa build/lib/mpack/mpack-writer.o
                0x000000000801b518                mpack_write_nil
 .text.mpack_write_bool
                0x000000000801b522        0xe build/lib/mpack/mpack-writer.o
                0x000000000801b522                mpack_write_bool
 .text.mpack_write_u64
                0x000000000801b530       0xd8 build/lib/mpack/mpack-writer.o
                0x000000000801b530                mpack_write_u64
 .text.mpack_write_i64
                0x000000000801b608      0x104 build/lib/mpack/mpack-writer.o
                0x000000000801b608                mpack_write_i64
 .text.mpack_write_float
                0x000000000801b70c       0x32 build/lib/mpack/mpack-writer.o
                0x000000000801b70c                mpack_write_float
 *fill*         0x000000000801b73e        0x2 
 .text.mpack_start_array
                0x000000000801b740       0x84 build/lib/mpack/mpack-writer.o
                0x000000000801b740                mpack_start_array
 .text.mpack_start_map
                0x000000000801b7c4       0x84 build/lib/mpack/mpack-writer.o
                0x000000000801b7c4                mpack_start_map
 .text.mpack_write_str
                0x000000000801b848       0x1a build/lib/mpack/mpack-writer.o
                0x000000000801b848                mpack_write_str
 .text.mpack_write_bytes
                0x000000000801b862        0x8 build/lib/mpack/mpack-writer.o
                0x000000000801b862                mpack_write_bytes
 .text.mpack_write_bin
                0x000000000801b86a       0x1a build/lib/mpack/mpack-writer.o
                0x000000000801b86a                mpack_write_bin
 .text.stdio_obj___exit__
                0x000000000801b884        0x8 build/lib/utils/sys_stdio_mphal.o
 .text.stdio_obj_print
                0x000000000801b88c       0x10 build/lib/utils/sys_stdio_mphal.o
                0x000000000801b88c                stdio_obj_print
 .text.stdio_buffer_write
                0x000000000801b89c       0x10 build/lib/utils/sys_stdio_mphal.o
 .text.stdio_buffer_read
                0x000000000801b8ac       0x1a build/lib/utils/sys_stdio_mphal.o
 .text.stdio_write
                0x000000000801b8c6       0x24 build/lib/utils/sys_stdio_mphal.o
 .text.stdio_read
                0x000000000801b8ea       0x32 build/lib/utils/sys_stdio_mphal.o
 .text.mp_hal_stdout_tx_strn_cooked
                0x000000000801b91c       0x2c build/lib/utils/stdout_helpers.o
                0x000000000801b91c                mp_hal_stdout_tx_strn_cooked
 .text.mp_hal_stdout_tx_str
                0x000000000801b948       0x12 build/lib/utils/stdout_helpers.o
                0x000000000801b948                mp_hal_stdout_tx_str
 *fill*         0x000000000801b95a        0x2 
 .text.mp_hal_set_interrupt_char
                0x000000000801b95c       0x1c build/lib/utils/interrupt_char.o
                0x000000000801b95c                mp_hal_set_interrupt_char
 .text.parse_compile_execute
                0x000000000801b978      0x134 build/lib/utils/pyexec.o
 .text.pyexec_raw_repl
                0x000000000801baac       0xa0 build/lib/utils/pyexec.o
                0x000000000801baac                pyexec_raw_repl
 .text.pyexec_friendly_repl
                0x000000000801bb4c      0x110 build/lib/utils/pyexec.o
                0x000000000801bb4c                pyexec_friendly_repl
 .text.pyexec_frozen_module
                0x000000000801bc5c       0x3c build/lib/utils/pyexec.o
                0x000000000801bc5c                pyexec_frozen_module
 .text.memcpy   0x000000000801bc98       0x46 build/lib/libc/string0.o
                0x000000000801bc98                memcpy
 .text.memmove  0x000000000801bcde       0x24 build/lib/libc/string0.o
                0x000000000801bcde                memmove
 .text.memset   0x000000000801bd02       0x40 build/lib/libc/string0.o
                0x000000000801bd02                memset
 .text.memcmp   0x000000000801bd42       0x24 build/lib/libc/string0.o
                0x000000000801bd42                memcmp
 .text.strlen   0x000000000801bd66       0x12 build/lib/libc/string0.o
                0x000000000801bd66                strlen
 .text.strcmp   0x000000000801bd78       0x2e build/lib/libc/string0.o
                0x000000000801bd78                strcmp
 .text.strncmp  0x000000000801bda6       0x44 build/lib/libc/string0.o
                0x000000000801bda6                strncmp
 .text.strchr   0x000000000801bdea       0x18 build/lib/libc/string0.o
                0x000000000801bdea                strchr
 *fill*         0x000000000801be02        0x2 
 .text.mp_hal_move_cursor_back
                0x000000000801be04       0x30 build/lib/mp-readline/readline.o
 .text.readline_init
                0x000000000801be34       0x24 build/lib/mp-readline/readline.o
                0x000000000801be34                readline_init
 .text.readline_push_history
                0x000000000801be58       0x60 build/lib/mp-readline/readline.o
                0x000000000801be58                readline_push_history
 .text.readline_process_char
                0x000000000801beb8      0x274 build/lib/mp-readline/readline.o
                0x000000000801beb8                readline_process_char
 .text.readline
                0x000000000801c12c       0x14 build/lib/mp-readline/readline.o
                0x000000000801c12c                readline
 .text.scalbnf  0x000000000801c140       0x62 build/lib/libm/math.o
                0x000000000801c140                scalbnf
 *fill*         0x000000000801c1a2        0x2 
 .text.powf     0x000000000801c1a4      0x6a0 build/lib/libm/math.o
                0x000000000801c1a4                powf
 .text.expf     0x000000000801c844      0x158 build/lib/libm/math.o
                0x000000000801c844                expf
 .text.expm1f   0x000000000801c99c      0x298 build/lib/libm/math.o
                0x000000000801c99c                expm1f
 .text.tanhf    0x000000000801cc34       0x42 build/lib/libm/math.o
                0x000000000801cc34                tanhf
 *fill*         0x000000000801cc76        0x2 
 .text.__expo2f
                0x000000000801cc78       0x24 build/lib/libm/math.o
                0x000000000801cc78                __expo2f
 .text.logf     0x000000000801cc9c      0x154 build/lib/libm/math.o
                0x000000000801cc9c                logf
 .text.log10f   0x000000000801cdf0       0x14 build/lib/libm/math.o
                0x000000000801cdf0                log10f
 .text.coshf    0x000000000801ce04       0x90 build/lib/libm/math.o
                0x000000000801ce04                coshf
 .text.sinhf    0x000000000801ce94       0xa0 build/lib/libm/math.o
                0x000000000801ce94                sinhf
 .text.ceilf    0x000000000801cf34       0x58 build/lib/libm/math.o
                0x000000000801cf34                ceilf
 .text.floorf   0x000000000801cf8c       0x58 build/lib/libm/math.o
                0x000000000801cf8c                floorf
 .text.truncf   0x000000000801cfe4       0x30 build/lib/libm/math.o
                0x000000000801cfe4                truncf
 .text.acoshf   0x000000000801d014       0xa0 build/lib/libm/acoshf.o
                0x000000000801d014                acoshf
 .text.R        0x000000000801d0b4       0x50 build/lib/libm/asinfacosf.o
 .text.asinf    0x000000000801d104       0xc4 build/lib/libm/asinfacosf.o
                0x000000000801d104                asinf
 .text.acosf    0x000000000801d1c8      0x120 build/lib/libm/asinfacosf.o
                0x000000000801d1c8                acosf
 .text.asinhf   0x000000000801d2e8       0xc8 build/lib/libm/asinhf.o
                0x000000000801d2e8                asinhf
 .text.atan2f   0x000000000801d3b0      0x130 build/lib/libm/atan2f.o
                0x000000000801d3b0                atan2f
 .text.atanf    0x000000000801d4e0      0x1c8 build/lib/libm/atanf.o
                0x000000000801d4e0                atanf
 .text.atanhf   0x000000000801d6a8       0x90 build/lib/libm/atanhf.o
                0x000000000801d6a8                atanhf
 .text.__ieee754_rem_pio2f
                0x000000000801d738      0x2b4 build/lib/libm/ef_rem_pio2.o
                0x000000000801d738                __ieee754_rem_pio2f
 .text.sqrtf    0x000000000801d9ec       0xb0 build/lib/libm/ef_sqrt.o
                0x000000000801d9ec                sqrtf
 .text.__ieee754_lgammaf_r
                0x000000000801da9c      0x7b8 build/lib/libm/erf_lgamma.o
                0x000000000801da9c                __ieee754_lgammaf_r
 .text.fmodf    0x000000000801e254       0xd0 build/lib/libm/fmodf.o
                0x000000000801e254                fmodf
 .text.__kernel_cosf
                0x000000000801e324      0x104 build/lib/libm/kf_cos.o
                0x000000000801e324                __kernel_cosf
 .text.__kernel_rem_pio2f
                0x000000000801e428      0x594 build/lib/libm/kf_rem_pio2.o
                0x000000000801e428                __kernel_rem_pio2f
 .text.__kernel_sinf
                0x000000000801e9bc       0xec build/lib/libm/kf_sin.o
                0x000000000801e9bc                __kernel_sinf
 .text.__kernel_tanf
                0x000000000801eaa8      0x25c build/lib/libm/kf_tan.o
                0x000000000801eaa8                __kernel_tanf
 .text.log1pf   0x000000000801ed04      0x1c0 build/lib/libm/log1pf.o
                0x000000000801ed04                log1pf
 .text.nearbyintf
                0x000000000801eec4       0x4a build/lib/libm/nearbyintf.o
                0x000000000801eec4                nearbyintf
 *fill*         0x000000000801ef0e        0x2 
 .text.cosf     0x000000000801ef10       0x6c build/lib/libm/sf_cos.o
                0x000000000801ef10                cosf
 .text.erff     0x000000000801ef7c      0x4b8 build/lib/libm/sf_erf.o
                0x000000000801ef7c                erff
 .text.erfcf    0x000000000801f434      0x4bc build/lib/libm/sf_erf.o
                0x000000000801f434                erfcf
 .text.frexpf   0x000000000801f8f0       0x54 build/lib/libm/sf_frexp.o
                0x000000000801f8f0                frexpf
 .text.ldexpf   0x000000000801f944       0x40 build/lib/libm/sf_ldexp.o
                0x000000000801f944                ldexpf
 .text.modff    0x000000000801f984       0x44 build/lib/libm/sf_modf.o
                0x000000000801f984                modff
 .text.sinf     0x000000000801f9c8       0x70 build/lib/libm/sf_sin.o
                0x000000000801f9c8                sinf
 .text.tanf     0x000000000801fa38       0x44 build/lib/libm/sf_tan.o
                0x000000000801fa38                tanf
 .text.lgammaf  0x000000000801fa7c        0xa build/lib/libm/wf_lgamma.o
                0x000000000801fa7c                lgammaf
 *fill*         0x000000000801fa86        0x2 
 .text.tgammaf  0x000000000801fa88       0x4c build/lib/libm/wf_tgamma.o
                0x000000000801fa88                tgammaf
 .text          0x000000000801fad4      0x114 /opt/gcc-arm-none-eabi-7-2018-q2-update/bin/../lib/gcc/arm-none-eabi/7.3.1/thumb/v6-m/libgcc.a(_udivsi3.o)
                0x000000000801fad4                __udivsi3
                0x000000000801fad4                __aeabi_uidiv
                0x000000000801fbe0                __aeabi_uidivmod
 .text          0x000000000801fbe8      0x1d4 /opt/gcc-arm-none-eabi-7-2018-q2-update/bin/../lib/gcc/arm-none-eabi/7.3.1/thumb/v6-m/libgcc.a(_divsi3.o)
                0x000000000801fbe8                __aeabi_idiv
                0x000000000801fbe8                __divsi3
                0x000000000801fdb4                __aeabi_idivmod
 .text          0x000000000801fdbc        0x4 /opt/gcc-arm-none-eabi-7-2018-q2-update/bin/../lib/gcc/arm-none-eabi/7.3.1/thumb/v6-m/libgcc.a(_dvmd_tls.o)
                0x000000000801fdbc                __aeabi_ldiv0
                0x000000000801fdbc                __aeabi_idiv0
 .text          0x000000000801fdc0       0x74 /opt/gcc-arm-none-eabi-7-2018-q2-update/bin/../lib/gcc/arm-none-eabi/7.3.1/thumb/v6-m/libgcc.a(_arm_cmpsf2.o)
                0x000000000801fdc0                __aeabi_cfrcmple
                0x000000000801fdc8                __aeabi_cfcmple
                0x000000000801fdc8                __aeabi_cfcmpeq
                0x000000000801fdd8                __aeabi_fcmpeq
                0x000000000801fde4                __aeabi_fcmplt
                0x000000000801fdf8                __aeabi_fcmple
                0x000000000801fe0c                __aeabi_fcmpgt
                0x000000000801fe20                __aeabi_fcmpge
 .text          0x000000000801fe34       0x30 /opt/gcc-arm-none-eabi-7-2018-q2-update/bin/../lib/gcc/arm-none-eabi/7.3.1/thumb/v6-m/libgcc.a(_fixunssfsi.o)
                0x000000000801fe34                __aeabi_f2uiz
                0x000000000801fe34                __fixunssfsi
 .text          0x000000000801fe64      0x334 /opt/gcc-arm-none-eabi-7-2018-q2-update/bin/../lib/gcc/arm-none-eabi/7.3.1/thumb/v6-m/libgcc.a(addsf3.o)
                0x000000000801fe64                __aeabi_fadd
 .text          0x0000000008020198      0x224 /opt/gcc-arm-none-eabi-7-2018-q2-update/bin/../lib/gcc/arm-none-eabi/7.3.1/thumb/v6-m/libgcc.a(divsf3.o)
                0x0000000008020198                __aeabi_fdiv
 .text          0x00000000080203bc       0x50 /opt/gcc-arm-none-eabi-7-2018-q2-update/bin/../lib/gcc/arm-none-eabi/7.3.1/thumb/v6-m/libgcc.a(eqsf2.o)
                0x00000000080203bc                __nesf2
                0x00000000080203bc                __eqsf2
 .text          0x000000000802040c       0x9c /opt/gcc-arm-none-eabi-7-2018-q2-update/bin/../lib/gcc/arm-none-eabi/7.3.1/thumb/v6-m/libgcc.a(gesf2.o)
                0x000000000802040c                __gtsf2
                0x000000000802040c                __gesf2
 .text          0x00000000080204a8       0xa0 /opt/gcc-arm-none-eabi-7-2018-q2-update/bin/../lib/gcc/arm-none-eabi/7.3.1/thumb/v6-m/libgcc.a(lesf2.o)
                0x00000000080204a8                __lesf2
                0x00000000080204a8                __ltsf2
 .text          0x0000000008020548      0x264 /opt/gcc-arm-none-eabi-7-2018-q2-update/bin/../lib/gcc/arm-none-eabi/7.3.1/thumb/v6-m/libgcc.a(mulsf3.o)
                0x0000000008020548                __aeabi_fmul
 .text          0x00000000080207ac      0x388 /opt/gcc-arm-none-eabi-7-2018-q2-update/bin/../lib/gcc/arm-none-eabi/7.3.1/thumb/v6-m/libgcc.a(subsf3.o)
                0x00000000080207ac                __aeabi_fsub
 .text          0x0000000008020b34       0x2c /opt/gcc-arm-none-eabi-7-2018-q2-update/bin/../lib/gcc/arm-none-eabi/7.3.1/thumb/v6-m/libgcc.a(unordsf2.o)
                0x0000000008020b34                __aeabi_fcmpun
 .text          0x0000000008020b60       0x40 /opt/gcc-arm-none-eabi-7-2018-q2-update/bin/../lib/gcc/arm-none-eabi/7.3.1/thumb/v6-m/libgcc.a(fixsfsi.o)
                0x0000000008020b60                __aeabi_f2iz
 .text          0x0000000008020ba0       0x94 /opt/gcc-arm-none-eabi-7-2018-q2-update/bin/../lib/gcc/arm-none-eabi/7.3.1/thumb/v6-m/libgcc.a(floatsisf.o)
                0x0000000008020ba0                __aeabi_i2f
 .text          0x0000000008020c34       0x80 /opt/gcc-arm-none-eabi-7-2018-q2-update/bin/../lib/gcc/arm-none-eabi/7.3.1/thumb/v6-m/libgcc.a(floatunsisf.o)
                0x0000000008020c34                __aeabi_ui2f
 .text          0x0000000008020cb4       0x74 /opt/gcc-arm-none-eabi-7-2018-q2-update/bin/../lib/gcc/arm-none-eabi/7.3.1/thumb/v6-m/libgcc.a(floatsidf.o)
                0x0000000008020cb4                __aeabi_i2d
 .text          0x0000000008020d28       0xa4 /opt/gcc-arm-none-eabi-7-2018-q2-update/bin/../lib/gcc/arm-none-eabi/7.3.1/thumb/v6-m/libgcc.a(extendsfdf2.o)
                0x0000000008020d28                __aeabi_f2d
 .text          0x0000000008020dcc      0x108 /opt/gcc-arm-none-eabi-7-2018-q2-update/bin/../lib/gcc/arm-none-eabi/7.3.1/thumb/v6-m/libgcc.a(truncdfsf2.o)
                0x0000000008020dcc                __aeabi_d2f
 .text          0x0000000008020ed4       0x3c /opt/gcc-arm-none-eabi-7-2018-q2-update/bin/../lib/gcc/arm-none-eabi/7.3.1/thumb/v6-m/libgcc.a(_clzsi2.o)
                0x0000000008020ed4                __clzsi2
 *(.rodata*)
 .rodata.gc_dump_alloc_table.str1.4
                0x0000000008020f10       0x46 build/py/gc.o
 *fill*         0x0000000008020f56        0x2 
 .rodata.gc_dump_info.str1.4
                0x0000000008020f58       0x69 build/py/gc.o
 .rodata        0x0000000008020fc1       0x5d build/py/qstr.o
 *fill*         0x000000000802101e        0x2 
 .rodata.mp_qstr_const_pool
                0x0000000008021020      0x8f4 build/py/qstr.o
                0x0000000008021020                mp_qstr_const_pool
 .rodata.qstr_dump_data.str1.1
                0x0000000008021914        0x7 build/py/qstr.o
 .rodata.str1.1
                0x000000000802191b     0x1880 build/py/qstr.o
 *fill*         0x000000000802319b        0x1 
 .rodata.mp_plat_print
                0x000000000802319c        0x8 build/py/mpprint.o
                0x000000000802319c                mp_plat_print
 .rodata.mp_print_mp_int.str1.1
                0x00000000080231a4     0x1880 build/py/mpprint.o
                                          0x1 (size before relaxing)
 .rodata.mp_vprintf.str1.1
                0x00000000080231a4        0xb build/py/mpprint.o
 .rodata.pad_spaces
                0x00000000080231af       0x11 build/py/mpprint.o
 .rodata.pad_zeroes
                0x00000000080231c0       0x11 build/py/mpprint.o
 .rodata.attr   0x00000000080231d1       0x80 build/py/unicode.o
 .rodata.mp_lexer_to_next.str1.1
                0x0000000008023251       0x56 build/py/lexer.o
 .rodata.str1.1
                0x00000000080232a7       0x91 build/py/lexer.o
                                         0xc8 (size before relaxing)
 .rodata.tok_enc_kind
                0x0000000008023338       0x2a build/py/lexer.o
 *fill*         0x0000000008023362        0x2 
 .rodata.tok_kw
                0x0000000008023364       0x90 build/py/lexer.o
 .rodata.mp_constants_map
                0x00000000080233f4        0xc build/py/parse.o
 .rodata.mp_constants_table
                0x0000000008023400       0x10 build/py/parse.o
 .rodata.mp_parse.str1.1
                0x0000000008023410       0x4f build/py/parse.o
 .rodata.push_result_rule.str1.1
                0x000000000802345f       0x1c build/py/parse.o
 .rodata.rule_act_table
                0x000000000802347b       0xaf build/py/parse.o
 .rodata.rule_arg_combined_table
                0x000000000802352a      0x37a build/py/parse.o
 .rodata.rule_arg_offset_table
                0x00000000080238a4       0xaf build/py/parse.o
 .rodata.token_to_op.8369
                0x0000000008023953        0xb build/py/parse.o
 .rodata.scope_simple_name_table
                0x000000000802395e        0x7 build/py/scope.o
 .rodata.CSWTCH.217
                0x0000000008023965        0x9 build/py/compile.o
 .rodata.CSWTCH.220
                0x000000000802396e        0xb build/py/compile.o
 .rodata.CSWTCH.225
                0x0000000008023979        0xc build/py/compile.o
 .rodata.c_assign.str1.1
                0x0000000008023985       0x1b build/py/compile.o
 .rodata.c_assign_tuple.str1.1
                0x00000000080239a0       0x1a build/py/compile.o
 .rodata.c_del_stmt.str1.1
                0x00000000080239ba       0x18 build/py/compile.o
 .rodata.compile_atom_brace.str1.1
                0x00000000080239d2       0x3c build/py/compile.o
 .rodata.compile_atom_expr_await.str1.1
                0x0000000008023a0e       0x19 build/py/compile.o
 .rodata.compile_atom_expr_normal.str1.1
                0x0000000008023a27       0x18 build/py/compile.o
 .rodata.compile_break_cont_stmt.str1.1
                0x0000000008023a3f       0x2d build/py/compile.o
 .rodata.compile_decorated.str1.1
                0x0000000008023a6c       0x1e build/py/compile.o
 .rodata.compile_funcdef_lambdef_param.str1.1
                0x0000000008023a8a       0x2e build/py/compile.o
 .rodata.compile_function
                0x0000000008023ab8       0xe8 build/py/compile.o
 .rodata.compile_global_nonlocal_stmt.str1.1
                0x0000000008023ba0       0x83 build/py/compile.o
 .rodata.compile_return_stmt.str1.1
                0x0000000008023c23       0x1a build/py/compile.o
 .rodata.compile_scope_func_lambda_param.isra.4.str1.1
                0x0000000008023c3d       0x15 build/py/compile.o
                                         0x24 (size before relaxing)
 .rodata.compile_star_expr.str1.1
                0x0000000008023c52       0x1d build/py/compile.o
 .rodata.compile_trailer_paren_helper.str1.1
                0x0000000008023c6f       0x8d build/py/compile.o
 .rodata.compile_try_except.str1.1
                0x0000000008023cfc       0x1e build/py/compile.o
 .rodata.compile_yield_expr.str1.1
                0x0000000008023d1a       0x19 build/py/compile.o
 *fill*         0x0000000008023d33        0x1 
 .rodata.mp_emit_bc_method_table_delete_id_ops
                0x0000000008023d34        0x8 build/py/emitbc.o
                0x0000000008023d34                mp_emit_bc_method_table_delete_id_ops
 .rodata.mp_emit_bc_method_table_load_id_ops
                0x0000000008023d3c        0x8 build/py/emitbc.o
                0x0000000008023d3c                mp_emit_bc_method_table_load_id_ops
 .rodata.mp_emit_bc_method_table_store_id_ops
                0x0000000008023d44        0x8 build/py/emitbc.o
                0x0000000008023d44                mp_emit_bc_method_table_store_id_ops
 .rodata.g_neg_pow
                0x0000000008023d4c       0x18 build/py/formatfloat.o
 .rodata.g_pos_pow
                0x0000000008023d64       0x18 build/py/formatfloat.o
 .rodata.mp_parse_num_decimal.str1.1
                0x0000000008023d7c       0x1a build/py/parsenum.o
 .rodata.mp_parse_num_integer.str1.1
                0x0000000008023d96       0x4d build/py/parsenum.o
 .rodata.mp_raw_code_load.str1.1
                0x0000000008023de3       0x17 build/py/persistentcode.o
 .rodata.checked_fun_call.str1.1
                0x0000000008023dfa       0x25 build/py/runtime.o
 .rodata.m_malloc_fail.str1.1
                0x0000000008023e1f       0x57 build/py/runtime.o
 .rodata.mp_binary_op.str1.1
                0x0000000008023e76       0x3a build/py/runtime.o
                                         0x49 (size before relaxing)
 .rodata.mp_call_function_n_kw.str1.1
                0x0000000008023eb0       0x1b build/py/runtime.o
 .rodata.mp_getiter.str1.1
                0x0000000008023ecb       0x1b build/py/runtime.o
 .rodata.mp_import_from.str1.1
                0x0000000008023ee6       0x16 build/py/runtime.o
 .rodata.mp_iternext_allow_raise.str1.1
                0x0000000008023efc       0x1e build/py/runtime.o
 .rodata.mp_load_global.str1.1
                0x0000000008023f1a       0x18 build/py/runtime.o
 .rodata.mp_load_method.str1.1
                0x0000000008023f32       0x49 build/py/runtime.o
 .rodata.mp_make_raise_obj.str1.1
                0x0000000008023f7b       0x2a build/py/runtime.o
 *fill*         0x0000000008023fa5        0x3 
 .rodata.mp_module___main__
                0x0000000008023fa8        0x8 build/py/runtime.o
                0x0000000008023fa8                mp_module___main__
 .rodata.mp_type_checked_fun
                0x0000000008023fb0       0x3c build/py/runtime.o
 .rodata.mp_unary_op.str1.1
                0x0000000008023fec       0x1e build/py/runtime.o
 .rodata.mp_unpack_sequence.str1.1
                0x000000000802400a       0x4b build/py/runtime.o
 .rodata.mp_arg_check_num_sig.str1.1
                0x0000000008024055       0xc2 build/py/argcheck.o
 .rodata.mp_arg_error_unimpl_kw.str1.1
                0x0000000008024117       0x42 build/py/argcheck.o
 .rodata.mp_arg_parse_all.str1.1
                0x0000000008024159       0x56 build/py/argcheck.o
 .rodata.mp_warning.str1.1
                0x00000000080241af        0xa build/py/warning.o
                                          0xc (size before relaxing)
 *fill*         0x00000000080241b9        0x1 
 .rodata.hash_allocation_sizes
                0x00000000080241ba       0x44 build/py/map.o
 *fill*         0x00000000080241fe        0x2 
 .rodata.mp_const_empty_map
                0x0000000008024200        0xc build/py/map.o
                0x0000000008024200                mp_const_empty_map
 .rodata.mp_get_buffer_raise.str1.1
                0x000000000802420c       0x25 build/py/obj.o
 .rodata.mp_get_index.str1.1
                0x0000000008024231       0x3a build/py/obj.o
 *fill*         0x000000000802426b        0x1 
 .rodata.mp_identity_obj
                0x000000000802426c        0x8 build/py/obj.o
                0x000000000802426c                mp_identity_obj
 .rodata.mp_obj_equal.str1.1
                0x0000000008024274       0x21 build/py/obj.o
 .rodata.mp_obj_get_array.str1.1
                0x0000000008024295       0x22 build/py/obj.o
 .rodata.mp_obj_get_array_fixed_n.str1.1
                0x00000000080242b7       0x2d build/py/obj.o
 .rodata.mp_obj_get_complex.str1.1
                0x00000000080242e4       0x1c build/py/obj.o
 .rodata.mp_obj_get_float.str1.1
                0x0000000008024300       0x1a build/py/obj.o
 .rodata.mp_obj_get_int.str1.1
                0x000000000802431a       0x18 build/py/obj.o
 .rodata.mp_obj_len.str1.1
                0x0000000008024332       0x21 build/py/obj.o
 .rodata.mp_obj_print_exception.str1.1
                0x0000000008024353       0x42 build/py/obj.o
                                         0x44 (size before relaxing)
 .rodata.mp_obj_print_helper.str1.1
                0x0000000008024395        0x5 build/py/obj.o
 .rodata.mp_obj_subscr.str1.1
                0x000000000802439a       0x76 build/py/obj.o
 .rodata.array_append_obj
                0x0000000008024410        0x8 build/py/objarray.o
 .rodata.array_extend_obj
                0x0000000008024418        0x8 build/py/objarray.o
 .rodata.array_it_type
                0x0000000008024420       0x3c build/py/objarray.o
 .rodata.array_locals_dict
                0x000000000802445c       0x10 build/py/objarray.o
 .rodata.array_locals_dict_table
                0x000000000802446c       0x10 build/py/objarray.o
 .rodata.array_print.str1.1
                0x000000000802447c       0x20 build/py/objarray.o
                                         0x22 (size before relaxing)
 .rodata.array_subscr.str1.1
                0x000000000802449c       0x75 build/py/objarray.o
 *fill*         0x0000000008024511        0x3 
 .rodata.mp_type_array
                0x0000000008024514       0x3c build/py/objarray.o
                0x0000000008024514                mp_type_array
 .rodata.mp_type_bytearray
                0x0000000008024550       0x3c build/py/objarray.o
                0x0000000008024550                mp_type_bytearray
 .rodata.mp_type_memoryview
                0x000000000802458c       0x3c build/py/objarray.o
                0x000000000802458c                mp_type_memoryview
 .rodata.mp_obj_attrtuple_print_helper.str1.1
                0x00000000080245c8        0x4 build/py/objattrtuple.o
                                          0xb (size before relaxing)
 .rodata.mp_type_attrtuple
                0x00000000080245cc       0x3c build/py/objattrtuple.o
                0x00000000080245cc                mp_type_attrtuple
 .rodata.bool_print.str1.1
                0x0000000008024608       0x16 build/py/objbool.o
 .rodata.mp_const_false_obj
                0x0000000008024608        0x8 build/py/objbool.o
                0x0000000008024608                mp_const_false_obj
 .rodata.mp_const_true_obj
                0x0000000008024610        0x8 build/py/objbool.o
                0x0000000008024610                mp_const_true_obj
 .rodata.mp_type_bool
                0x0000000008024618       0x3c build/py/objbool.o
                0x0000000008024618                mp_type_bool
 .rodata.bound_meth_print.str1.1
                0x0000000008024654       0x12 build/py/objboundmeth.o
                                         0x16 (size before relaxing)
 *fill*         0x0000000008024666        0x2 
 .rodata.mp_type_bound_meth
                0x0000000008024668       0x3c build/py/objboundmeth.o
 .rodata.cell_print.str1.1
                0x00000000080246a4       0x10 build/py/objcell.o
                                         0x12 (size before relaxing)
 .rodata.mp_type_cell
                0x00000000080246b4       0x3c build/py/objcell.o
 .rodata.closure_print.str1.1
                0x00000000080246f0       0x1f build/py/objclosure.o
                                         0x29 (size before relaxing)
 *fill*         0x000000000802470f        0x1 
 .rodata.closure_type
                0x0000000008024710       0x3c build/py/objclosure.o
                0x0000000008024710                closure_type
 .rodata.complex_print.str1.1
                0x000000000802474c        0xf build/py/objcomplex.o
 .rodata.mp_obj_complex_binary_op.str1.1
                0x000000000802475b       0x55 build/py/objcomplex.o
 .rodata.mp_type_complex
                0x00000000080247b0       0x3c build/py/objcomplex.o
                0x00000000080247b0                mp_type_complex
 .rodata.deque_append_obj
                0x00000000080247ec        0x8 build/py/objdeque.o
 .rodata.deque_locals_dict
                0x00000000080247f4       0x10 build/py/objdeque.o
 .rodata.deque_locals_dict_table
                0x0000000008024804       0x10 build/py/objdeque.o
 .rodata.deque_popleft.str1.1
                0x0000000008024814       0x55 build/py/objdeque.o
                                          0x6 (size before relaxing)
 .rodata.deque_popleft_obj
                0x0000000008024814        0x8 build/py/objdeque.o
 .rodata.mp_obj_deque_append.str1.1
                0x000000000802481c       0x55 build/py/objdeque.o
                                          0x5 (size before relaxing)
 .rodata.mp_type_deque
                0x000000000802481c       0x3c build/py/objdeque.o
                0x000000000802481c                mp_type_deque
 .rodata.dict_clear_obj
                0x0000000008024858        0x8 build/py/objdict.o
 .rodata.dict_copy_obj
                0x0000000008024860        0x8 build/py/objdict.o
 .rodata.dict_fromkeys_fun_obj
                0x0000000008024868        0xc build/py/objdict.o
 .rodata.dict_fromkeys_obj
                0x0000000008024874        0x8 build/py/objdict.o
 .rodata.dict_get_obj
                0x000000000802487c        0xc build/py/objdict.o
 .rodata.dict_items_obj
                0x0000000008024888        0x8 build/py/objdict.o
 .rodata.dict_keys_obj
                0x0000000008024890        0x8 build/py/objdict.o
 .rodata.dict_locals_dict
                0x0000000008024898       0x10 build/py/objdict.o
 .rodata.dict_locals_dict_table
                0x00000000080248a8       0x70 build/py/objdict.o
 .rodata.dict_pop_obj
                0x0000000008024918        0xc build/py/objdict.o
 .rodata.dict_popitem.str1.1
                0x0000000008024924       0x1f build/py/objdict.o
 *fill*         0x0000000008024943        0x1 
 .rodata.dict_popitem_obj
                0x0000000008024944        0x8 build/py/objdict.o
 .rodata.dict_print.str1.1
                0x000000000802494c        0x6 build/py/objdict.o
                                          0xd (size before relaxing)
 *fill*         0x0000000008024952        0x2 
 .rodata.dict_setdefault_obj
                0x0000000008024954        0xc build/py/objdict.o
 .rodata.dict_update.str1.1
                0x0000000008024960       0x26 build/py/objdict.o
 *fill*         0x0000000008024986        0x2 
 .rodata.dict_update_obj
                0x0000000008024988        0xc build/py/objdict.o
 .rodata.dict_values_obj
                0x0000000008024994        0x8 build/py/objdict.o
 .rodata.dict_view_it_type
                0x000000000802499c       0x3c build/py/objdict.o
 .rodata.dict_view_print.str1.1
                0x00000000080249d8        0x6 build/py/objdict.o
                                          0x9 (size before relaxing)
 *fill*         0x00000000080249de        0x2 
 .rodata.dict_view_type
                0x00000000080249e0       0x3c build/py/objdict.o
 .rodata.mp_dict_view_names
                0x0000000008024a1c        0xc build/py/objdict.o
 .rodata.mp_type_dict
                0x0000000008024a28       0x3c build/py/objdict.o
                0x0000000008024a28                mp_type_dict
 .rodata.mp_type_ordereddict
                0x0000000008024a64       0x3c build/py/objdict.o
                0x0000000008024a64                mp_type_ordereddict
 .rodata.str1.1
                0x0000000008024aa0       0x21 build/py/objdict.o
 *fill*         0x0000000008024ac1        0x3 
 .rodata.allowed_args.6537
                0x0000000008024ac4       0x10 build/py/objenumerate.o
 .rodata.mp_type_enumerate
                0x0000000008024ad4       0x3c build/py/objenumerate.o
                0x0000000008024ad4                mp_type_enumerate
 .rodata.mp_const_GeneratorExit_obj
                0x0000000008024b10       0x10 build/py/objexcept.o
                0x0000000008024b10                mp_const_GeneratorExit_obj
 .rodata.mp_obj_exception_print.str1.1
                0x0000000008024b20        0xe build/py/objexcept.o
                                         0x12 (size before relaxing)
 *fill*         0x0000000008024b2e        0x2 
 .rodata.mp_type_ArithmeticError
                0x0000000008024b30       0x3c build/py/objexcept.o
                0x0000000008024b30                mp_type_ArithmeticError
 .rodata.mp_type_AssertionError
                0x0000000008024b6c       0x3c build/py/objexcept.o
                0x0000000008024b6c                mp_type_AssertionError
 .rodata.mp_type_AttributeError
                0x0000000008024ba8       0x3c build/py/objexcept.o
                0x0000000008024ba8                mp_type_AttributeError
 .rodata.mp_type_BaseException
                0x0000000008024be4       0x3c build/py/objexcept.o
                0x0000000008024be4                mp_type_BaseException
 .rodata.mp_type_EOFError
                0x0000000008024c20       0x3c build/py/objexcept.o
                0x0000000008024c20                mp_type_EOFError
 .rodata.mp_type_Exception
                0x0000000008024c5c       0x3c build/py/objexcept.o
                0x0000000008024c5c                mp_type_Exception
 .rodata.mp_type_GeneratorExit
                0x0000000008024c98       0x3c build/py/objexcept.o
                0x0000000008024c98                mp_type_GeneratorExit
 .rodata.mp_type_ImportError
                0x0000000008024cd4       0x3c build/py/objexcept.o
                0x0000000008024cd4                mp_type_ImportError
 .rodata.mp_type_IndentationError
                0x0000000008024d10       0x3c build/py/objexcept.o
                0x0000000008024d10                mp_type_IndentationError
 .rodata.mp_type_IndexError
                0x0000000008024d4c       0x3c build/py/objexcept.o
                0x0000000008024d4c                mp_type_IndexError
 .rodata.mp_type_KeyError
                0x0000000008024d88       0x3c build/py/objexcept.o
                0x0000000008024d88                mp_type_KeyError
 .rodata.mp_type_KeyboardInterrupt
                0x0000000008024dc4       0x3c build/py/objexcept.o
                0x0000000008024dc4                mp_type_KeyboardInterrupt
 .rodata.mp_type_LookupError
                0x0000000008024e00       0x3c build/py/objexcept.o
                0x0000000008024e00                mp_type_LookupError
 .rodata.mp_type_MemoryError
                0x0000000008024e3c       0x3c build/py/objexcept.o
                0x0000000008024e3c                mp_type_MemoryError
 .rodata.mp_type_NameError
                0x0000000008024e78       0x3c build/py/objexcept.o
                0x0000000008024e78                mp_type_NameError
 .rodata.mp_type_NotImplementedError
                0x0000000008024eb4       0x3c build/py/objexcept.o
                0x0000000008024eb4                mp_type_NotImplementedError
 .rodata.mp_type_OSError
                0x0000000008024ef0       0x3c build/py/objexcept.o
                0x0000000008024ef0                mp_type_OSError
 .rodata.mp_type_OverflowError
                0x0000000008024f2c       0x3c build/py/objexcept.o
                0x0000000008024f2c                mp_type_OverflowError
 .rodata.mp_type_RuntimeError
                0x0000000008024f68       0x3c build/py/objexcept.o
                0x0000000008024f68                mp_type_RuntimeError
 .rodata.mp_type_StopAsyncIteration
                0x0000000008024fa4       0x3c build/py/objexcept.o
                0x0000000008024fa4                mp_type_StopAsyncIteration
 .rodata.mp_type_StopIteration
                0x0000000008024fe0       0x3c build/py/objexcept.o
                0x0000000008024fe0                mp_type_StopIteration
 .rodata.mp_type_SyntaxError
                0x000000000802501c       0x3c build/py/objexcept.o
                0x000000000802501c                mp_type_SyntaxError
 .rodata.mp_type_SystemExit
                0x0000000008025058       0x3c build/py/objexcept.o
                0x0000000008025058                mp_type_SystemExit
 .rodata.mp_type_TypeError
                0x0000000008025094       0x3c build/py/objexcept.o
                0x0000000008025094                mp_type_TypeError
 .rodata.mp_type_UnicodeError
                0x00000000080250d0       0x3c build/py/objexcept.o
                0x00000000080250d0                mp_type_UnicodeError
 .rodata.mp_type_ValueError
                0x000000000802510c       0x3c build/py/objexcept.o
                0x000000000802510c                mp_type_ValueError
 .rodata.mp_type_ZeroDivisionError
                0x0000000008025148       0x3c build/py/objexcept.o
                0x0000000008025148                mp_type_ZeroDivisionError
 .rodata.mp_type_filter
                0x0000000008025184       0x3c build/py/objfilter.o
                0x0000000008025184                mp_type_filter
 .rodata.float_print.str1.1
                0x00000000080251c0        0xe build/py/objfloat.o
                                          0x3 (size before relaxing)
 .rodata.mp_const_float_e_obj
                0x00000000080251c0        0x8 build/py/objfloat.o
                0x00000000080251c0                mp_const_float_e_obj
 .rodata.mp_const_float_pi_obj
                0x00000000080251c8        0x8 build/py/objfloat.o
                0x00000000080251c8                mp_const_float_pi_obj
 .rodata.mp_obj_float_binary_op.str1.1
                0x00000000080251d0        0xf build/py/objfloat.o
 .rodata.mp_type_float
                0x00000000080251d0       0x3c build/py/objfloat.o
                0x00000000080251d0                mp_type_float
 .rodata.fun_bc_print.str1.1
                0x000000000802520c       0x16 build/py/objfun.o
 *fill*         0x0000000008025222        0x2 
 .rodata.mp_type_fun_bc
                0x0000000008025224       0x3c build/py/objfun.o
                0x0000000008025224                mp_type_fun_bc
 .rodata.mp_type_fun_builtin_0
                0x0000000008025260       0x3c build/py/objfun.o
                0x0000000008025260                mp_type_fun_builtin_0
 .rodata.mp_type_fun_builtin_1
                0x000000000802529c       0x3c build/py/objfun.o
                0x000000000802529c                mp_type_fun_builtin_1
 .rodata.mp_type_fun_builtin_2
                0x00000000080252d8       0x3c build/py/objfun.o
                0x00000000080252d8                mp_type_fun_builtin_2
 .rodata.mp_type_fun_builtin_3
                0x0000000008025314       0x3c build/py/objfun.o
                0x0000000008025314                mp_type_fun_builtin_3
 .rodata.mp_type_fun_builtin_var
                0x0000000008025350       0x3c build/py/objfun.o
                0x0000000008025350                mp_type_fun_builtin_var
 .rodata.gen_instance_close.str1.1
                0x000000000802538c       0x20 build/py/objgenerator.o
 .rodata.gen_instance_close_obj
                0x00000000080253ac        0x8 build/py/objgenerator.o
 .rodata.gen_instance_locals_dict
                0x00000000080253b4       0x10 build/py/objgenerator.o
 .rodata.gen_instance_locals_dict_table
                0x00000000080253c4       0x20 build/py/objgenerator.o
 .rodata.gen_instance_pend_throw.str1.1
                0x00000000080253e4       0x2b build/py/objgenerator.o
 *fill*         0x000000000802540f        0x1 
 .rodata.gen_instance_pend_throw_obj
                0x0000000008025410        0x8 build/py/objgenerator.o
 .rodata.gen_instance_print.str1.1
                0x0000000008025418       0x1e build/py/objgenerator.o
 *fill*         0x0000000008025436        0x2 
 .rodata.gen_instance_send_obj
                0x0000000008025438        0x8 build/py/objgenerator.o
 .rodata.gen_instance_throw_obj
                0x0000000008025440        0xc build/py/objgenerator.o
 .rodata.mp_obj_gen_resume.str1.1
                0x000000000802544c       0x71 build/py/objgenerator.o
 *fill*         0x00000000080254bd        0x3 
 .rodata.mp_type_gen_instance
                0x00000000080254c0       0x3c build/py/objgenerator.o
                0x00000000080254c0                mp_type_gen_instance
 .rodata.mp_type_gen_wrap
                0x00000000080254fc       0x3c build/py/objgenerator.o
                0x00000000080254fc                mp_type_gen_wrap
 .rodata.it_type
                0x0000000008025538       0x3c build/py/objgetitemiter.o
 .rodata.int_from_bytes_fun_obj
                0x0000000008025574        0xc build/py/objint.o
 .rodata.int_from_bytes_obj
                0x0000000008025580        0x8 build/py/objint.o
 .rodata.int_locals_dict
                0x0000000008025588       0x10 build/py/objint.o
 .rodata.int_locals_dict_table
                0x0000000008025598       0x10 build/py/objint.o
 .rodata.int_to_bytes_obj
                0x00000000080255a8        0xc build/py/objint.o
 .rodata.log_base2_floor
                0x00000000080255b4       0x10 build/py/objint.o
 .rodata.mp_obj_new_int_from_float.str1.1
                0x00000000080255c4       0x32 build/py/objint.o
 *fill*         0x00000000080255f6        0x2 
 .rodata.mp_type_int
                0x00000000080255f8       0x3c build/py/objint.o
                0x00000000080255f8                mp_type_int
 .rodata.maxsize_dig
                0x0000000008025634        0x4 build/py/objint_mpz.o
 .rodata.mp_maxsize_obj
                0x0000000008025638       0x10 build/py/objint_mpz.o
                0x0000000008025638                mp_maxsize_obj
 .rodata.mp_obj_int_binary_op.str1.1
                0x0000000008025648       0x24 build/py/objint_mpz.o
 .rodata.mp_obj_int_get_checked.str1.1
                0x0000000008025648       0x2d build/py/objint_mpz.o
 .rodata.mp_obj_int_pow3.str1.1
                0x0000000008025675       0x29 build/py/objint_mpz.o
 *fill*         0x000000000802569e        0x2 
 .rodata.allowed_args.6484
                0x00000000080256a0       0x10 build/py/objlist.o
 .rodata.list_append_obj
                0x00000000080256b0        0x8 build/py/objlist.o
 .rodata.list_clear_obj
                0x00000000080256b8        0x8 build/py/objlist.o
 .rodata.list_copy_obj
                0x00000000080256c0        0x8 build/py/objlist.o
 .rodata.list_count_obj
                0x00000000080256c8        0x8 build/py/objlist.o
 .rodata.list_extend_obj
                0x00000000080256d0        0x8 build/py/objlist.o
 .rodata.list_index_obj
                0x00000000080256d8        0xc build/py/objlist.o
 .rodata.list_insert_obj
                0x00000000080256e4        0x8 build/py/objlist.o
 .rodata.list_locals_dict
                0x00000000080256ec       0x10 build/py/objlist.o
 .rodata.list_locals_dict_table
                0x00000000080256fc       0x58 build/py/objlist.o
 .rodata.list_pop.str1.1
                0x0000000008025754       0x14 build/py/objlist.o
 .rodata.list_pop_obj
                0x0000000008025768        0xc build/py/objlist.o
 .rodata.list_print.str1.1
                0x0000000008025774       0x14 build/py/objlist.o
                                          0x7 (size before relaxing)
 .rodata.list_remove_obj
                0x0000000008025774        0x8 build/py/objlist.o
 .rodata.list_reverse_obj
                0x000000000802577c        0x8 build/py/objlist.o
 .rodata.list_sort_obj
                0x0000000008025784        0xc build/py/objlist.o
 .rodata.mp_type_list
                0x0000000008025790       0x3c build/py/objlist.o
                0x0000000008025790                mp_type_list
 .rodata.mp_type_map
                0x00000000080257cc       0x3c build/py/objmap.o
                0x00000000080257cc                mp_type_map
 .rodata.module_print.str1.1
                0x0000000008025808       0x26 build/py/objmodule.o
                                         0x27 (size before relaxing)
 *fill*         0x000000000802582e        0x2 
 .rodata.mp_builtin_module_map
                0x0000000008025830        0xc build/py/objmodule.o
                0x0000000008025830                mp_builtin_module_map
 .rodata.mp_builtin_module_table
                0x000000000802583c       0xc8 build/py/objmodule.o
 .rodata.mp_builtin_module_weak_links_map
                0x0000000008025904        0xc build/py/objmodule.o
                0x0000000008025904                mp_builtin_module_weak_links_map
 .rodata.mp_builtin_module_weak_links_table
                0x0000000008025910       0x68 build/py/objmodule.o
 .rodata.mp_type_module
                0x0000000008025978       0x3c build/py/objmodule.o
                0x0000000008025978                mp_type_module
 .rodata.mp_type_object
                0x00000000080259b4       0x3c build/py/objobject.o
                0x00000000080259b4                mp_type_object
 .rodata.object___init___obj
                0x00000000080259f0        0x8 build/py/objobject.o
 .rodata.object___new__.str1.1
                0x00000000080259f8       0x20 build/py/objobject.o
 .rodata.object___new___fun_obj
                0x0000000008025a18        0x8 build/py/objobject.o
 .rodata.object___new___obj
                0x0000000008025a20        0x8 build/py/objobject.o
 .rodata.object_locals_dict
                0x0000000008025a28       0x10 build/py/objobject.o
 .rodata.object_locals_dict_table
                0x0000000008025a38       0x10 build/py/objobject.o
 .rodata.mp_type_polymorph_iter
                0x0000000008025a48       0x3c build/py/objpolyiter.o
                0x0000000008025a48                mp_type_polymorph_iter
 .rodata.allowed_args.6539
                0x0000000008025a84       0x20 build/py/objproperty.o
 .rodata.mp_type_property
                0x0000000008025aa4       0x3c build/py/objproperty.o
                0x0000000008025aa4                mp_type_property
 .rodata.property_deleter_obj
                0x0000000008025ae0        0x8 build/py/objproperty.o
 .rodata.property_getter_obj
                0x0000000008025ae8        0x8 build/py/objproperty.o
 .rodata.property_locals_dict
                0x0000000008025af0       0x10 build/py/objproperty.o
 .rodata.property_locals_dict_table
                0x0000000008025b00       0x18 build/py/objproperty.o
 .rodata.property_setter_obj
                0x0000000008025b18        0x8 build/py/objproperty.o
 .rodata.mp_const_none_obj
                0x0000000008025b20        0x4 build/py/objnone.o
                0x0000000008025b20                mp_const_none_obj
 .rodata.mp_type_NoneType
                0x0000000008025b24       0x3c build/py/objnone.o
                0x0000000008025b24                mp_type_NoneType
 .rodata.none_print.str1.1
                0x0000000008025b60        0x5 build/py/objnone.o
                                          0xa (size before relaxing)
 *fill*         0x0000000008025b65        0x3 
 .rodata.mp_namedtuple_obj
                0x0000000008025b68        0x8 build/py/objnamedtuple.o
                0x0000000008025b68                mp_namedtuple_obj
 .rodata.namedtuple_asdict_obj
                0x0000000008025b70        0x8 build/py/objnamedtuple.o
                0x0000000008025b70                namedtuple_asdict_obj
 .rodata.namedtuple_attr.str1.1
                0x0000000008025b78       0x14 build/py/objnamedtuple.o
 .rodata.namedtuple_make_new.str1.1
                0x0000000008025b8c       0x85 build/py/objnamedtuple.o
 .rodata.namedtuple_print.str1.1
                0x0000000008025c11       0x85 build/py/objnamedtuple.o
                                          0x3 (size before relaxing)
 *fill*         0x0000000008025c11        0x3 
 .rodata.mp_type_range
                0x0000000008025c14       0x3c build/py/objrange.o
                0x0000000008025c14                mp_type_range
 .rodata.range_it_type
                0x0000000008025c50       0x3c build/py/objrange.o
 .rodata.range_make_new.str1.1
                0x0000000008025c8c        0xa build/py/objrange.o
 .rodata.range_print.str1.1
                0x0000000008025c96       0x13 build/py/objrange.o
                                         0x15 (size before relaxing)
 *fill*         0x0000000008025ca9        0x3 
 .rodata.mp_type_reversed
                0x0000000008025cac       0x3c build/py/objreversed.o
                0x0000000008025cac                mp_type_reversed
 .rodata.frozenset_locals_dict
                0x0000000008025ce8       0x10 build/py/objset.o
 .rodata.frozenset_locals_dict_table
                0x0000000008025cf8       0x48 build/py/objset.o
 .rodata.mp_type_frozenset
                0x0000000008025d40       0x3c build/py/objset.o
                0x0000000008025d40                mp_type_frozenset
 .rodata.mp_type_set
                0x0000000008025d7c       0x3c build/py/objset.o
                0x0000000008025d7c                mp_type_set
 .rodata.set_add_obj
                0x0000000008025db8        0x8 build/py/objset.o
 .rodata.set_clear_obj
                0x0000000008025dc0        0x8 build/py/objset.o
 .rodata.set_copy_obj
                0x0000000008025dc8        0x8 build/py/objset.o
 .rodata.set_diff_obj
                0x0000000008025dd0        0xc build/py/objset.o
 .rodata.set_diff_update_obj
                0x0000000008025ddc        0xc build/py/objset.o
 .rodata.set_discard_obj
                0x0000000008025de8        0x8 build/py/objset.o
 .rodata.set_intersect_obj
                0x0000000008025df0        0x8 build/py/objset.o
 .rodata.set_intersect_update_obj
                0x0000000008025df8        0x8 build/py/objset.o
 .rodata.set_isdisjoint_obj
                0x0000000008025e00        0x8 build/py/objset.o
 .rodata.set_issubset_obj
                0x0000000008025e08        0x8 build/py/objset.o
 .rodata.set_issuperset_obj
                0x0000000008025e10        0x8 build/py/objset.o
 .rodata.set_locals_dict
                0x0000000008025e18       0x10 build/py/objset.o
 .rodata.set_locals_dict_table
                0x0000000008025e28       0x90 build/py/objset.o
 .rodata.set_pop.str1.1
                0x0000000008025eb8       0x16 build/py/objset.o
 *fill*         0x0000000008025ece        0x2 
 .rodata.set_pop_obj
                0x0000000008025ed0        0x8 build/py/objset.o
 .rodata.set_print.str1.1
                0x0000000008025ed8       0x18 build/py/objset.o
                                         0x21 (size before relaxing)
 .rodata.set_remove_obj
                0x0000000008025ef0        0x8 build/py/objset.o
 .rodata.set_symmetric_difference_obj
                0x0000000008025ef8        0x8 build/py/objset.o
 .rodata.set_symmetric_difference_update_obj
                0x0000000008025f00        0x8 build/py/objset.o
 .rodata.set_union_obj
                0x0000000008025f08        0x8 build/py/objset.o
 .rodata.set_update_obj
                0x0000000008025f10        0xc build/py/objset.o
 .rodata.mp_const_ellipsis_obj
                0x0000000008025f1c        0x8 build/py/objsingleton.o
                0x0000000008025f1c                mp_const_ellipsis_obj
 .rodata.mp_const_notimplemented_obj
                0x0000000008025f24        0x8 build/py/objsingleton.o
                0x0000000008025f24                mp_const_notimplemented_obj
 .rodata.mp_type_singleton
                0x0000000008025f2c       0x3c build/py/objsingleton.o
                0x0000000008025f2c                mp_type_singleton
 .rodata.singleton_print.str1.1
                0x0000000008025f68        0x3 build/py/objsingleton.o
 .rodata.mp_type_slice
                0x0000000008025f68       0x3c build/py/objslice.o
                0x0000000008025f68                mp_type_slice
 .rodata.slice_print.str1.1
                0x0000000008025fa4        0x7 build/py/objslice.o
                                          0xc (size before relaxing)
 *fill*         0x0000000008025fab        0x1 
 .rodata.allowed_args.6629
                0x0000000008025fac        0x8 build/py/objstr.o
 .rodata.bad_implicit_conversion.str1.1
                0x0000000008025fb4       0x2b build/py/objstr.o
 *fill*         0x0000000008025fdf        0x1 
 .rodata.bytes_decode_obj
                0x0000000008025fe0        0xc build/py/objstr.o
                0x0000000008025fe0                bytes_decode_obj
 .rodata.bytes_make_new.part.4.str1.1
                0x0000000008025fec       0x33 build/py/objstr.o
 .rodata.bytes_subscr.str1.1
                0x000000000802601f       0x31 build/py/objstr.o
 *fill*         0x000000000802601f        0x1 
 .rodata.mp_const_empty_bytes_obj
                0x0000000008026020       0x10 build/py/objstr.o
                0x0000000008026020                mp_const_empty_bytes_obj
 .rodata.mp_obj_str_binary_op.str1.1
                0x0000000008026030       0xe4 build/py/objstr.o
 .rodata.mp_obj_str_format_helper.str1.1
                0x0000000008026114      0x276 build/py/objstr.o
 .rodata.mp_str_print_json.str1.1
                0x000000000802638a        0x9 build/py/objstr.o
 .rodata.mp_str_print_quoted.str1.1
                0x0000000008026393       0x17 build/py/objstr.o
                                         0x1a (size before relaxing)
 *fill*         0x00000000080263aa        0x2 
 .rodata.mp_type_bytes
                0x00000000080263ac       0x3c build/py/objstr.o
                0x00000000080263ac                mp_type_bytes
 .rodata.str1.1
                0x00000000080263e8        0x1 build/py/objstr.o
 .rodata.str8_locals_dict
                0x00000000080263e8       0x10 build/py/objstr.o
 .rodata.str8_locals_dict_table
                0x00000000080263f8       0xd8 build/py/objstr.o
 .rodata.str_center_obj
                0x00000000080264d0        0x8 build/py/objstr.o
                0x00000000080264d0                str_center_obj
 .rodata.str_count_obj
                0x00000000080264d8        0xc build/py/objstr.o
                0x00000000080264d8                str_count_obj
 .rodata.str_encode_obj
                0x00000000080264e4        0xc build/py/objstr.o
                0x00000000080264e4                str_encode_obj
 .rodata.str_endswith.str1.1
                0x00000000080264f0       0x12 build/py/objstr.o
 *fill*         0x0000000008026502        0x2 
 .rodata.str_endswith_obj
                0x0000000008026504        0xc build/py/objstr.o
                0x0000000008026504                str_endswith_obj
 .rodata.str_find_obj
                0x0000000008026510        0xc build/py/objstr.o
                0x0000000008026510                str_find_obj
 .rodata.str_finder.str1.1
                0x000000000802651c       0x14 build/py/objstr.o
 .rodata.str_format_obj
                0x0000000008026530        0xc build/py/objstr.o
                0x0000000008026530                str_format_obj
 .rodata.str_index_obj
                0x000000000802653c        0xc build/py/objstr.o
                0x000000000802653c                str_index_obj
 .rodata.str_isalpha_obj
                0x0000000008026548        0x8 build/py/objstr.o
                0x0000000008026548                str_isalpha_obj
 .rodata.str_isdigit_obj
                0x0000000008026550        0x8 build/py/objstr.o
                0x0000000008026550                str_isdigit_obj
 .rodata.str_islower_obj
                0x0000000008026558        0x8 build/py/objstr.o
                0x0000000008026558                str_islower_obj
 .rodata.str_isspace_obj
                0x0000000008026560        0x8 build/py/objstr.o
                0x0000000008026560                str_isspace_obj
 .rodata.str_isupper_obj
                0x0000000008026568        0x8 build/py/objstr.o
                0x0000000008026568                str_isupper_obj
 .rodata.str_join.str1.1
                0x0000000008026570       0x45 build/py/objstr.o
 *fill*         0x00000000080265b5        0x3 
 .rodata.str_join_obj
                0x00000000080265b8        0x8 build/py/objstr.o
                0x00000000080265b8                str_join_obj
 .rodata.str_lower_obj
                0x00000000080265c0        0x8 build/py/objstr.o
                0x00000000080265c0                str_lower_obj
 .rodata.str_lstrip_obj
                0x00000000080265c8        0xc build/py/objstr.o
                0x00000000080265c8                str_lstrip_obj
 .rodata.str_partition_obj
                0x00000000080265d4        0x8 build/py/objstr.o
                0x00000000080265d4                str_partition_obj
 .rodata.str_partitioner.str1.1
                0x00000000080265dc       0x10 build/py/objstr.o
 .rodata.str_print.str1.1
                0x00000000080265ec        0x5 build/py/objstr.o
                                          0x7 (size before relaxing)
 *fill*         0x00000000080265f1        0x3 
 .rodata.str_replace_obj
                0x00000000080265f4        0xc build/py/objstr.o
                0x00000000080265f4                str_replace_obj
 .rodata.str_rfind_obj
                0x0000000008026600        0xc build/py/objstr.o
                0x0000000008026600                str_rfind_obj
 .rodata.str_rindex_obj
                0x000000000802660c        0xc build/py/objstr.o
                0x000000000802660c                str_rindex_obj
 .rodata.str_rpartition_obj
                0x0000000008026618        0x8 build/py/objstr.o
                0x0000000008026618                str_rpartition_obj
 .rodata.str_rsplit.str1.1
                0x0000000008026620        0xf build/py/objstr.o
 *fill*         0x000000000802662f        0x1 
 .rodata.str_rsplit_obj
                0x0000000008026630        0xc build/py/objstr.o
                0x0000000008026630                str_rsplit_obj
 .rodata.str_rstrip_obj
                0x000000000802663c        0xc build/py/objstr.o
                0x000000000802663c                str_rstrip_obj
 .rodata.str_split_obj
                0x0000000008026648        0xc build/py/objstr.o
                0x0000000008026648                str_split_obj
 .rodata.str_splitlines_obj
                0x0000000008026654        0xc build/py/objstr.o
                0x0000000008026654                str_splitlines_obj
 .rodata.str_startswith_obj
                0x0000000008026660        0xc build/py/objstr.o
                0x0000000008026660                str_startswith_obj
 .rodata.str_strip_obj
                0x000000000802666c        0xc build/py/objstr.o
                0x000000000802666c                str_strip_obj
 .rodata.str_upper_obj
                0x0000000008026678        0x8 build/py/objstr.o
                0x0000000008026678                str_upper_obj
 .rodata.whitespace.6735
                0x0000000008026680        0x7 build/py/objstr.o
 *fill*         0x0000000008026687        0x1 
 .rodata.mp_type_str
                0x0000000008026688       0x3c build/py/objstrunicode.o
                0x0000000008026688                mp_type_str
 .rodata.str_index_to_ptr.str1.1
                0x00000000080266c4       0x42 build/py/objstrunicode.o
 .rodata.str_subscr.str1.1
                0x0000000008026706       0x31 build/py/objstrunicode.o
 *fill*         0x0000000008026706        0x2 
 .rodata.struni_locals_dict
                0x0000000008026708       0x10 build/py/objstrunicode.o
 .rodata.struni_locals_dict_table
                0x0000000008026718       0xd8 build/py/objstrunicode.o
 .rodata.uni_print.str1.1
                0x00000000080267f0        0x7 build/py/objstrunicode.o
                                         0x2d (size before relaxing)
 *fill*         0x00000000080267f7        0x1 
 .rodata.bytesio_stream_p
                0x00000000080267f8       0x10 build/py/objstringio.o
 .rodata.mp_type_bytesio
                0x0000000008026808       0x3c build/py/objstringio.o
                0x0000000008026808                mp_type_bytesio
 .rodata.mp_type_stringio
                0x0000000008026844       0x3c build/py/objstringio.o
                0x0000000008026844                mp_type_stringio
 .rodata.stringio___exit___obj
                0x0000000008026880        0xc build/py/objstringio.o
 .rodata.stringio_getvalue_obj
                0x000000000802688c        0x8 build/py/objstringio.o
 .rodata.stringio_locals_dict
                0x0000000008026894       0x10 build/py/objstringio.o
 .rodata.stringio_locals_dict_table
                0x00000000080268a4       0x50 build/py/objstringio.o
 .rodata.stringio_print.str1.1
                0x00000000080268f4       0x25 build/py/objstringio.o
 *fill*         0x0000000008026919        0x3 
 .rodata.stringio_stream_p
                0x000000000802691c       0x10 build/py/objstringio.o
 .rodata.stringio_write.str1.1
                0x000000000802692c       0x1d build/py/objstringio.o
 *fill*         0x0000000008026949        0x3 
 .rodata.mp_const_empty_tuple_obj
                0x000000000802694c        0x8 build/py/objtuple.o
                0x000000000802694c                mp_const_empty_tuple_obj
 .rodata.mp_obj_tuple_print.str1.1
                0x0000000008026954        0x2 build/py/objtuple.o
                                          0xd (size before relaxing)
 .rodata.mp_obj_tuple_subscr.str1.1
                0x0000000008026956       0x31 build/py/objtuple.o
 *fill*         0x0000000008026956        0x2 
 .rodata.mp_type_tuple
                0x0000000008026958       0x3c build/py/objtuple.o
                0x0000000008026958                mp_type_tuple
 .rodata.tuple_count_obj
                0x0000000008026994        0x8 build/py/objtuple.o
 .rodata.tuple_index_obj
                0x000000000802699c        0xc build/py/objtuple.o
 .rodata.tuple_locals_dict
                0x00000000080269a8       0x10 build/py/objtuple.o
 .rodata.tuple_locals_dict_table
                0x00000000080269b8       0x10 build/py/objtuple.o
 .rodata.instance_print.str1.1
                0x00000000080269c8       0x12 build/py/objtype.o
 .rodata.mp_binary_op_method_name
                0x00000000080269da       0x2f build/py/objtype.o
                0x00000000080269da                mp_binary_op_method_name
 *fill*         0x0000000008026a09        0x3 
 .rodata.mp_builtin_isinstance_obj
                0x0000000008026a0c        0x8 build/py/objtype.o
                0x0000000008026a0c                mp_builtin_isinstance_obj
 .rodata.mp_builtin_issubclass.str1.1
                0x0000000008026a14       0x23 build/py/objtype.o
 *fill*         0x0000000008026a37        0x1 
 .rodata.mp_builtin_issubclass_obj
                0x0000000008026a38        0x8 build/py/objtype.o
                0x0000000008026a38                mp_builtin_issubclass_obj
 .rodata.mp_obj_instance_attr.str1.1
                0x0000000008026a40       0x15 build/py/objtype.o
 .rodata.mp_obj_instance_call.str1.1
                0x0000000008026a55       0x1b build/py/objtype.o
 .rodata.mp_obj_instance_make_new.str1.1
                0x0000000008026a55       0x28 build/py/objtype.o
 .rodata.mp_obj_is_subclass.str1.1
                0x0000000008026a7d       0x39 build/py/objtype.o
 .rodata.mp_obj_new_type.str1.1
                0x0000000008026ab6       0x56 build/py/objtype.o
 .rodata.mp_type_classmethod
                0x0000000008026b0c       0x3c build/py/objtype.o
                0x0000000008026b0c                mp_type_classmethod
 .rodata.mp_type_staticmethod
                0x0000000008026b48       0x3c build/py/objtype.o
                0x0000000008026b48                mp_type_staticmethod
 .rodata.mp_type_super
                0x0000000008026b84       0x3c build/py/objtype.o
                0x0000000008026b84                mp_type_super
 .rodata.mp_type_type
                0x0000000008026bc0       0x3c build/py/objtype.o
                0x0000000008026bc0                mp_type_type
 .rodata.mp_unary_op_method_name
                0x0000000008026bfc        0x9 build/py/objtype.o
                0x0000000008026bfc                mp_unary_op_method_name
 *fill*         0x0000000008026c05        0x3 
 .rodata.native_base_init_wrapper_obj
                0x0000000008026c08        0xc build/py/objtype.o
 .rodata.super_print.str1.1
                0x0000000008026c14        0x9 build/py/objtype.o
                                          0xe (size before relaxing)
 .rodata.to_check.7098
                0x0000000008026c1d        0x3 build/py/objtype.o
 .rodata.type_attr.str1.1
                0x0000000008026c20       0x35 build/py/objtype.o
 .rodata.type_call.str1.1
                0x0000000008026c55       0x1d build/py/objtype.o
 .rodata.type_make_new.str1.1
                0x0000000008026c72       0x1c build/py/objtype.o
 .rodata.type_print.str1.1
                0x0000000008026c8e        0xd build/py/objtype.o
 *fill*         0x0000000008026c9b        0x1 
 .rodata.mp_type_zip
                0x0000000008026c9c       0x3c build/py/objzip.o
                0x0000000008026c9c                mp_type_zip
 .rodata.mp_op_contains_obj
                0x0000000008026cd8        0x8 build/py/opmethods.o
                0x0000000008026cd8                mp_op_contains_obj
 .rodata.mp_op_delitem_obj
                0x0000000008026ce0        0x8 build/py/opmethods.o
                0x0000000008026ce0                mp_op_delitem_obj
 .rodata.mp_op_getitem_obj
                0x0000000008026ce8        0x8 build/py/opmethods.o
                0x0000000008026ce8                mp_op_getitem_obj
 .rodata.mp_op_setitem_obj
                0x0000000008026cf0        0x8 build/py/opmethods.o
                0x0000000008026cf0                mp_op_setitem_obj
 .rodata.mp_seq_get_fast_slice_indexes.str1.1
                0x0000000008026cf8       0x1a build/py/sequence.o
 .rodata.mp_seq_index_obj.str1.1
                0x0000000008026d12       0x17 build/py/sequence.o
 .rodata.mp_get_stream_raise.str1.1
                0x0000000008026d29       0x1f build/py/stream.o
 .rodata.mp_stream_close_obj
                0x0000000008026d48        0x8 build/py/stream.o
                0x0000000008026d48                mp_stream_close_obj
 .rodata.mp_stream_flush_obj
                0x0000000008026d50        0x8 build/py/stream.o
                0x0000000008026d50                mp_stream_flush_obj
 .rodata.mp_stream_read_obj
                0x0000000008026d58        0xc build/py/stream.o
                0x0000000008026d58                mp_stream_read_obj
 .rodata.mp_stream_readinto_obj
                0x0000000008026d64        0xc build/py/stream.o
                0x0000000008026d64                mp_stream_readinto_obj
 .rodata.mp_stream_seek_obj
                0x0000000008026d70        0xc build/py/stream.o
                0x0000000008026d70                mp_stream_seek_obj
 .rodata.mp_stream_tell_obj
                0x0000000008026d7c        0x8 build/py/stream.o
                0x0000000008026d7c                mp_stream_tell_obj
 .rodata.mp_stream_unbuffered_readline_obj
                0x0000000008026d84        0xc build/py/stream.o
                0x0000000008026d84                mp_stream_unbuffered_readline_obj
 .rodata.mp_stream_unbuffered_readlines_obj
                0x0000000008026d90        0x8 build/py/stream.o
                0x0000000008026d90                mp_stream_unbuffered_readlines_obj
 .rodata.mp_stream_write_obj
                0x0000000008026d98        0xc build/py/stream.o
                0x0000000008026d98                mp_stream_write_obj
 .rodata.mp_binary_get_size.str1.1
                0x0000000008026da4        0xd build/py/binary.o
 .rodata.mp_builtin___import__.str1.1
                0x0000000008026db1       0x40 build/py/builtinimport.o
 *fill*         0x0000000008026df1        0x3 
 .rodata.mp_builtin___import___obj
                0x0000000008026df4        0xc build/py/builtinimport.o
                0x0000000008026df4                mp_builtin___import___obj
 .rodata.stat_dir_or_file.str1.1
                0x0000000008026e00       0x40 build/py/builtinimport.o
                                          0x4 (size before relaxing)
 .rodata.mp_builtin_compile.str1.1
                0x0000000008026e00       0x11 build/py/builtinevex.o
 *fill*         0x0000000008026e11        0x3 
 .rodata.mp_builtin_compile_obj
                0x0000000008026e14        0xc build/py/builtinevex.o
                0x0000000008026e14                mp_builtin_compile_obj
 .rodata.mp_builtin_eval_obj
                0x0000000008026e20        0xc build/py/builtinevex.o
                0x0000000008026e20                mp_builtin_eval_obj
 .rodata.mp_builtin_exec_obj
                0x0000000008026e2c        0xc build/py/builtinevex.o
                0x0000000008026e2c                mp_builtin_exec_obj
 .rodata.mp_builtin_execfile_obj
                0x0000000008026e38        0xc build/py/builtinevex.o
                0x0000000008026e38                mp_builtin_execfile_obj
 .rodata.mp_type_code
                0x0000000008026e44       0x3c build/py/builtinevex.o
 .rodata.mp_builtin_help.str1.1
                0x0000000008026e80       0x3f build/py/builtinhelp.o
                                         0x48 (size before relaxing)
 *fill*         0x0000000008026ebf        0x1 
 .rodata.mp_builtin_help_obj
                0x0000000008026ec0        0xc build/py/builtinhelp.o
                0x0000000008026ec0                mp_builtin_help_obj
 .rodata.mp_module_array
                0x0000000008026ecc        0x8 build/py/modarray.o
                0x0000000008026ecc                mp_module_array
 .rodata.mp_module_array_globals
                0x0000000008026ed4       0x10 build/py/modarray.o
 .rodata.mp_module_array_globals_table
                0x0000000008026ee4       0x10 build/py/modarray.o
 .rodata.allowed_args.7836
                0x0000000008026ef4       0x18 build/py/modbuiltins.o
 .rodata.mp_builtin___build_class___obj
                0x0000000008026f0c        0xc build/py/modbuiltins.o
                0x0000000008026f0c                mp_builtin___build_class___obj
 .rodata.mp_builtin___repl_print__.str1.1
                0x0000000008026f18        0x2 build/py/modbuiltins.o
 .rodata.mp_builtin___repl_print___obj
                0x0000000008026f18        0x8 build/py/modbuiltins.o
                0x0000000008026f18                mp_builtin___repl_print___obj
 .rodata.mp_builtin_abs_obj
                0x0000000008026f20        0x8 build/py/modbuiltins.o
                0x0000000008026f20                mp_builtin_abs_obj
 .rodata.mp_builtin_all_obj
                0x0000000008026f28        0x8 build/py/modbuiltins.o
                0x0000000008026f28                mp_builtin_all_obj
 .rodata.mp_builtin_any_obj
                0x0000000008026f30        0x8 build/py/modbuiltins.o
                0x0000000008026f30                mp_builtin_any_obj
 .rodata.mp_builtin_bin_obj
                0x0000000008026f38        0x8 build/py/modbuiltins.o
                0x0000000008026f38                mp_builtin_bin_obj
 .rodata.mp_builtin_callable_obj
                0x0000000008026f40        0x8 build/py/modbuiltins.o
                0x0000000008026f40                mp_builtin_callable_obj
 .rodata.mp_builtin_chr.str1.1
                0x0000000008026f48       0x21 build/py/modbuiltins.o
 *fill*         0x0000000008026f69        0x3 
 .rodata.mp_builtin_chr_obj
                0x0000000008026f6c        0x8 build/py/modbuiltins.o
                0x0000000008026f6c                mp_builtin_chr_obj
 .rodata.mp_builtin_delattr_obj
                0x0000000008026f74        0x8 build/py/modbuiltins.o
                0x0000000008026f74                mp_builtin_delattr_obj
 .rodata.mp_builtin_dir_obj
                0x0000000008026f7c        0xc build/py/modbuiltins.o
                0x0000000008026f7c                mp_builtin_dir_obj
 .rodata.mp_builtin_divmod_obj
                0x0000000008026f88        0x8 build/py/modbuiltins.o
                0x0000000008026f88                mp_builtin_divmod_obj
 .rodata.mp_builtin_getattr_obj
                0x0000000008026f90        0xc build/py/modbuiltins.o
                0x0000000008026f90                mp_builtin_getattr_obj
 .rodata.mp_builtin_globals_obj
                0x0000000008026f9c        0x8 build/py/modbuiltins.o
                0x0000000008026f9c                mp_builtin_globals_obj
 .rodata.mp_builtin_hasattr_obj
                0x0000000008026fa4        0x8 build/py/modbuiltins.o
                0x0000000008026fa4                mp_builtin_hasattr_obj
 .rodata.mp_builtin_hash_obj
                0x0000000008026fac        0x8 build/py/modbuiltins.o
                0x0000000008026fac                mp_builtin_hash_obj
 .rodata.mp_builtin_hex_obj
                0x0000000008026fb4        0x8 build/py/modbuiltins.o
                0x0000000008026fb4                mp_builtin_hex_obj
 .rodata.mp_builtin_id_obj
                0x0000000008026fbc        0x8 build/py/modbuiltins.o
                0x0000000008026fbc                mp_builtin_id_obj
 .rodata.mp_builtin_iter_obj
                0x0000000008026fc4        0x8 build/py/modbuiltins.o
                0x0000000008026fc4                mp_builtin_iter_obj
 .rodata.mp_builtin_len_obj
                0x0000000008026fcc        0x8 build/py/modbuiltins.o
                0x0000000008026fcc                mp_builtin_len_obj
 .rodata.mp_builtin_locals_obj
                0x0000000008026fd4        0x8 build/py/modbuiltins.o
                0x0000000008026fd4                mp_builtin_locals_obj
 .rodata.mp_builtin_max_obj
                0x0000000008026fdc        0xc build/py/modbuiltins.o
                0x0000000008026fdc                mp_builtin_max_obj
 .rodata.mp_builtin_min_max.str1.1
                0x0000000008026fe8       0x19 build/py/modbuiltins.o
 *fill*         0x0000000008027001        0x3 
 .rodata.mp_builtin_min_obj
                0x0000000008027004        0xc build/py/modbuiltins.o
                0x0000000008027004                mp_builtin_min_obj
 .rodata.mp_builtin_next_obj
                0x0000000008027010        0x8 build/py/modbuiltins.o
                0x0000000008027010                mp_builtin_next_obj
 .rodata.mp_builtin_oct_obj
                0x0000000008027018        0x8 build/py/modbuiltins.o
                0x0000000008027018                mp_builtin_oct_obj
 .rodata.mp_builtin_ord.str1.1
                0x0000000008027020       0x3a build/py/modbuiltins.o
 *fill*         0x000000000802705a        0x2 
 .rodata.mp_builtin_ord_obj
                0x000000000802705c        0x8 build/py/modbuiltins.o
                0x000000000802705c                mp_builtin_ord_obj
 .rodata.mp_builtin_pow_obj
                0x0000000008027064        0xc build/py/modbuiltins.o
                0x0000000008027064                mp_builtin_pow_obj
 .rodata.mp_builtin_print_obj
                0x0000000008027070        0xc build/py/modbuiltins.o
                0x0000000008027070                mp_builtin_print_obj
 .rodata.mp_builtin_repr_obj
                0x000000000802707c        0x8 build/py/modbuiltins.o
                0x000000000802707c                mp_builtin_repr_obj
 .rodata.mp_builtin_round_obj
                0x0000000008027084        0xc build/py/modbuiltins.o
                0x0000000008027084                mp_builtin_round_obj
 .rodata.mp_builtin_setattr_obj
                0x0000000008027090        0x8 build/py/modbuiltins.o
                0x0000000008027090                mp_builtin_setattr_obj
 .rodata.mp_builtin_sorted.str1.1
                0x0000000008027098       0x2b build/py/modbuiltins.o
 *fill*         0x00000000080270c3        0x1 
 .rodata.mp_builtin_sorted_obj
                0x00000000080270c4        0xc build/py/modbuiltins.o
                0x00000000080270c4                mp_builtin_sorted_obj
 .rodata.mp_builtin_sum_obj
                0x00000000080270d0        0xc build/py/modbuiltins.o
                0x00000000080270d0                mp_builtin_sum_obj
 .rodata.mp_module_builtins
                0x00000000080270dc        0x8 build/py/modbuiltins.o
                0x00000000080270dc                mp_module_builtins
 .rodata.mp_module_builtins_globals
                0x00000000080270e4       0x10 build/py/modbuiltins.o
                0x00000000080270e4                mp_module_builtins_globals
 .rodata.mp_module_builtins_globals_table
                0x00000000080270f4      0x310 build/py/modbuiltins.o
 .rodata.mp_module_collections
                0x0000000008027404        0x8 build/py/modcollections.o
                0x0000000008027404                mp_module_collections
 .rodata.mp_module_collections_globals
                0x000000000802740c       0x10 build/py/modcollections.o
 .rodata.mp_module_collections_globals_table
                0x000000000802741c       0x20 build/py/modcollections.o
 .rodata.gc_collect_obj
                0x000000000802743c        0x8 build/py/modgc.o
                0x000000000802743c                gc_collect_obj
 .rodata.gc_disable_obj
                0x0000000008027444        0x8 build/py/modgc.o
                0x0000000008027444                gc_disable_obj
 .rodata.gc_enable_obj
                0x000000000802744c        0x8 build/py/modgc.o
                0x000000000802744c                gc_enable_obj
 .rodata.gc_isenabled_obj
                0x0000000008027454        0x8 build/py/modgc.o
                0x0000000008027454                gc_isenabled_obj
 .rodata.gc_mem_alloc_obj
                0x000000000802745c        0x8 build/py/modgc.o
                0x000000000802745c                gc_mem_alloc_obj
 .rodata.gc_mem_free_obj
                0x0000000008027464        0x8 build/py/modgc.o
                0x0000000008027464                gc_mem_free_obj
 .rodata.gc_threshold_obj
                0x000000000802746c        0xc build/py/modgc.o
                0x000000000802746c                gc_threshold_obj
 .rodata.mp_module_gc
                0x0000000008027478        0x8 build/py/modgc.o
                0x0000000008027478                mp_module_gc
 .rodata.mp_module_gc_globals
                0x0000000008027480       0x10 build/py/modgc.o
 .rodata.mp_module_gc_globals_table
                0x0000000008027490       0x40 build/py/modgc.o
 .rodata.mp_module_io
                0x00000000080274d0        0x8 build/py/modio.o
                0x00000000080274d0                mp_module_io
 .rodata.mp_module_io_globals
                0x00000000080274d8       0x10 build/py/modio.o
 .rodata.mp_module_io_globals_table
                0x00000000080274e8       0x38 build/py/modio.o
 .rodata.resource_stream_obj
                0x0000000008027520        0x8 build/py/modio.o
 .rodata.math_generic_1.str1.1
                0x0000000008027528       0x12 build/py/modmath.o
 *fill*         0x000000000802753a        0x2 
 .rodata.mp_math_acos_obj
                0x000000000802753c        0x8 build/py/modmath.o
 .rodata.mp_math_acosh_obj
                0x0000000008027544        0x8 build/py/modmath.o
 .rodata.mp_math_asin_obj
                0x000000000802754c        0x8 build/py/modmath.o
 .rodata.mp_math_asinh_obj
                0x0000000008027554        0x8 build/py/modmath.o
 .rodata.mp_math_atan2_obj
                0x000000000802755c        0x8 build/py/modmath.o
 .rodata.mp_math_atan_obj
                0x0000000008027564        0x8 build/py/modmath.o
 .rodata.mp_math_atanh_obj
                0x000000000802756c        0x8 build/py/modmath.o
 .rodata.mp_math_ceil_obj
                0x0000000008027574        0x8 build/py/modmath.o
 .rodata.mp_math_copysign_obj
                0x000000000802757c        0x8 build/py/modmath.o
 .rodata.mp_math_cos_obj
                0x0000000008027584        0x8 build/py/modmath.o
 .rodata.mp_math_cosh_obj
                0x000000000802758c        0x8 build/py/modmath.o
 .rodata.mp_math_degrees_obj
                0x0000000008027594        0x8 build/py/modmath.o
 .rodata.mp_math_erf_obj
                0x000000000802759c        0x8 build/py/modmath.o
 .rodata.mp_math_erfc_obj
                0x00000000080275a4        0x8 build/py/modmath.o
 .rodata.mp_math_exp_obj
                0x00000000080275ac        0x8 build/py/modmath.o
 .rodata.mp_math_expm1_obj
                0x00000000080275b4        0x8 build/py/modmath.o
 .rodata.mp_math_fabs_obj
                0x00000000080275bc        0x8 build/py/modmath.o
 .rodata.mp_math_floor_obj
                0x00000000080275c4        0x8 build/py/modmath.o
 .rodata.mp_math_fmod_obj
                0x00000000080275cc        0x8 build/py/modmath.o
 .rodata.mp_math_frexp_obj
                0x00000000080275d4        0x8 build/py/modmath.o
 .rodata.mp_math_gamma_obj
                0x00000000080275dc        0x8 build/py/modmath.o
 .rodata.mp_math_isfinite_obj
                0x00000000080275e4        0x8 build/py/modmath.o
 .rodata.mp_math_isinf_obj
                0x00000000080275ec        0x8 build/py/modmath.o
 .rodata.mp_math_isnan_obj
                0x00000000080275f4        0x8 build/py/modmath.o
 .rodata.mp_math_ldexp_obj
                0x00000000080275fc        0x8 build/py/modmath.o
 .rodata.mp_math_lgamma_obj
                0x0000000008027604        0x8 build/py/modmath.o
 .rodata.mp_math_log.str1.1
                0x000000000802760c        0xf build/py/modmath.o
 .rodata.mp_math_log10_obj
                0x000000000802760c        0x8 build/py/modmath.o
 .rodata.mp_math_log2_obj
                0x0000000008027614        0x8 build/py/modmath.o
 .rodata.mp_math_log_obj
                0x000000000802761c        0xc build/py/modmath.o
 .rodata.mp_math_modf_obj
                0x0000000008027628        0x8 build/py/modmath.o
 .rodata.mp_math_pow_obj
                0x0000000008027630        0x8 build/py/modmath.o
 .rodata.mp_math_radians_obj
                0x0000000008027638        0x8 build/py/modmath.o
 .rodata.mp_math_sin_obj
                0x0000000008027640        0x8 build/py/modmath.o
 .rodata.mp_math_sinh_obj
                0x0000000008027648        0x8 build/py/modmath.o
 .rodata.mp_math_sqrt_obj
                0x0000000008027650        0x8 build/py/modmath.o
 .rodata.mp_math_tan_obj
                0x0000000008027658        0x8 build/py/modmath.o
 .rodata.mp_math_tanh_obj
                0x0000000008027660        0x8 build/py/modmath.o
 .rodata.mp_math_trunc_obj
                0x0000000008027668        0x8 build/py/modmath.o
 .rodata.mp_module_math
                0x0000000008027670        0x8 build/py/modmath.o
                0x0000000008027670                mp_module_math
 .rodata.mp_module_math_globals
                0x0000000008027678       0x10 build/py/modmath.o
 .rodata.mp_module_math_globals_table
                0x0000000008027688      0x148 build/py/modmath.o
 .rodata.mp_cmath_cos_obj
                0x00000000080277d0        0x8 build/py/modcmath.o
 .rodata.mp_cmath_exp_obj
                0x00000000080277d8        0x8 build/py/modcmath.o
 .rodata.mp_cmath_log10_obj
                0x00000000080277e0        0x8 build/py/modcmath.o
 .rodata.mp_cmath_log_obj
                0x00000000080277e8        0x8 build/py/modcmath.o
 .rodata.mp_cmath_phase_obj
                0x00000000080277f0        0x8 build/py/modcmath.o
 .rodata.mp_cmath_polar_obj
                0x00000000080277f8        0x8 build/py/modcmath.o
 .rodata.mp_cmath_rect_obj
                0x0000000008027800        0x8 build/py/modcmath.o
 .rodata.mp_cmath_sin_obj
                0x0000000008027808        0x8 build/py/modcmath.o
 .rodata.mp_cmath_sqrt_obj
                0x0000000008027810        0x8 build/py/modcmath.o
 .rodata.mp_module_cmath
                0x0000000008027818        0x8 build/py/modcmath.o
                0x0000000008027818                mp_module_cmath
 .rodata.mp_module_cmath_globals
                0x0000000008027820       0x10 build/py/modcmath.o
 .rodata.mp_module_cmath_globals_table
                0x0000000008027830       0x60 build/py/modcmath.o
 .rodata.mp_micropython_heap_lock_obj
                0x0000000008027890        0x8 build/py/modmicropython.o
 .rodata.mp_micropython_heap_unlock_obj
                0x0000000008027898        0x8 build/py/modmicropython.o
 .rodata.mp_micropython_kbd_intr_obj
                0x00000000080278a0        0x8 build/py/modmicropython.o
 .rodata.mp_micropython_mem_current_obj
                0x00000000080278a8        0x8 build/py/modmicropython.o
 .rodata.mp_micropython_mem_info.str1.1
                0x00000000080278b0       0x39 build/py/modmicropython.o
 *fill*         0x00000000080278e9        0x3 
 .rodata.mp_micropython_mem_info_obj
                0x00000000080278ec        0xc build/py/modmicropython.o
 .rodata.mp_micropython_mem_peak_obj
                0x00000000080278f8        0x8 build/py/modmicropython.o
 .rodata.mp_micropython_mem_total_obj
                0x0000000008027900        0x8 build/py/modmicropython.o
 .rodata.mp_micropython_opt_level_obj
                0x0000000008027908        0xc build/py/modmicropython.o
 .rodata.mp_micropython_pystack_use_obj
                0x0000000008027914        0x8 build/py/modmicropython.o
 .rodata.mp_micropython_qstr_info.str1.1
                0x000000000802791c       0x48 build/py/modmicropython.o
 .rodata.mp_micropython_qstr_info_obj
                0x0000000008027964        0xc build/py/modmicropython.o
 .rodata.mp_micropython_schedule.str1.1
                0x0000000008027970       0x14 build/py/modmicropython.o
 .rodata.mp_micropython_schedule_obj
                0x0000000008027984        0x8 build/py/modmicropython.o
 .rodata.mp_micropython_stack_use_obj
                0x000000000802798c        0x8 build/py/modmicropython.o
 .rodata.mp_module_micropython
                0x0000000008027994        0x8 build/py/modmicropython.o
                0x0000000008027994                mp_module_micropython
 .rodata.mp_module_micropython_globals
                0x000000000802799c       0x10 build/py/modmicropython.o
 .rodata.mp_module_micropython_globals_table
                0x00000000080279ac       0x70 build/py/modmicropython.o
 .rodata.mp_module_struct_globals
                0x0000000008027a1c       0x10 build/py/modstruct.o
 .rodata.mp_module_struct_globals_table
                0x0000000008027a2c       0x30 build/py/modstruct.o
 .rodata.mp_module_ustruct
                0x0000000008027a5c        0x8 build/py/modstruct.o
                0x0000000008027a5c                mp_module_ustruct
 .rodata.struct_calcsize_obj
                0x0000000008027a64        0x8 build/py/modstruct.o
                0x0000000008027a64                struct_calcsize_obj
 .rodata.struct_pack_into_obj
                0x0000000008027a6c        0xc build/py/modstruct.o
                0x0000000008027a6c                struct_pack_into_obj
 .rodata.struct_pack_obj
                0x0000000008027a78        0xc build/py/modstruct.o
                0x0000000008027a78                struct_pack_obj
 .rodata.struct_unpack_from.str1.1
                0x0000000008027a84       0x11 build/py/modstruct.o
 *fill*         0x0000000008027a95        0x3 
 .rodata.struct_unpack_from_obj
                0x0000000008027a98        0xc build/py/modstruct.o
                0x0000000008027a98                struct_unpack_from_obj
 .rodata.impl_fields
                0x0000000008027aa4        0x8 build/py/modsys.o
 .rodata.mp_module_sys
                0x0000000008027aac        0x8 build/py/modsys.o
                0x0000000008027aac                mp_module_sys
 .rodata.mp_module_sys_globals
                0x0000000008027ab4       0x10 build/py/modsys.o
 .rodata.mp_module_sys_globals_table
                0x0000000008027ac4       0x80 build/py/modsys.o
 .rodata.mp_sys_exc_info_obj
                0x0000000008027b44        0x8 build/py/modsys.o
                0x0000000008027b44                mp_sys_exc_info_obj
 .rodata.mp_sys_exit_obj
                0x0000000008027b4c        0xc build/py/modsys.o
                0x0000000008027b4c                mp_sys_exit_obj
 .rodata.mp_sys_getsizeof_obj
                0x0000000008027b58        0x8 build/py/modsys.o
 .rodata.mp_sys_implementation_obj
                0x0000000008027b60       0x14 build/py/modsys.o
 .rodata.mp_sys_implementation_version_info_obj
                0x0000000008027b74       0x14 build/py/modsys.o
 .rodata.mp_sys_print_exception_obj
                0x0000000008027b88        0xc build/py/modsys.o
                0x0000000008027b88                mp_sys_print_exception_obj
 .rodata.mp_sys_stdout_print
                0x0000000008027b94        0x8 build/py/modsys.o
                0x0000000008027b94                mp_sys_stdout_print
 .rodata.mp_sys_version_info_obj
                0x0000000008027b9c       0x14 build/py/modsys.o
 .rodata.str1.1
                0x0000000008027bb0        0x6 build/py/modsys.o
 *fill*         0x0000000008027bb6        0x2 
 .rodata.version_obj
                0x0000000008027bb8       0x10 build/py/modsys.o
 .rodata.errorcode_dict
                0x0000000008027bc8       0x10 build/py/moduerrno.o
 .rodata.errorcode_table
                0x0000000008027bd8       0xb0 build/py/moduerrno.o
 .rodata.mp_module_uerrno
                0x0000000008027c88        0x8 build/py/moduerrno.o
                0x0000000008027c88                mp_module_uerrno
 .rodata.mp_module_uerrno_globals
                0x0000000008027c90       0x10 build/py/moduerrno.o
 .rodata.mp_module_uerrno_globals_table
                0x0000000008027ca0       0xc0 build/py/moduerrno.o
 .rodata.entry_table.7021
                0x0000000008027d60      0x400 build/py/vm.o
 .rodata.mp_execute_bytecode.str1.4
                0x0000000008028160       0x8c build/py/vm.o
                                         0x8b (size before relaxing)
 .rodata.fun_pos_args_mismatch.str1.1
                0x00000000080281ec       0x35 build/py/bc.o
 .rodata.mp_setup_code_state.str1.1
                0x00000000080281ec       0x89 build/py/bc.o
                                         0xd9 (size before relaxing)
 .rodata.opcode_format_table
                0x0000000008028275       0x40 build/py/bc.o
 .rodata.import_str.6488
                0x00000000080282b5        0x8 build/py/repl.o
 .rodata.mp_repl_autocomplete.str1.1
                0x00000000080282bd        0x4 build/py/repl.o
                                          0x8 (size before relaxing)
 .rodata.mp_repl_continue_with_input.str1.1
                0x00000000080282c1       0x26 build/py/repl.o
 *fill*         0x00000000080282c1        0x3 
 .rodata.mp_module_uctypes
                0x00000000080282c4        0x8 build/extmod/moductypes.o
                0x00000000080282c4                mp_module_uctypes
 .rodata.mp_module_uctypes_globals
                0x00000000080282cc       0x10 build/extmod/moductypes.o
 .rodata.mp_module_uctypes_globals_table
                0x00000000080282dc       0xf0 build/extmod/moductypes.o
 .rodata.type2char.6480
                0x00000000080283cc       0x10 build/extmod/moductypes.o
 .rodata.uctypes_struct_addressof_obj
                0x00000000080283dc        0x8 build/extmod/moductypes.o
                0x00000000080283dc                uctypes_struct_addressof_obj
 .rodata.uctypes_struct_attr_op.str1.1
                0x00000000080283e4       0x12 build/extmod/moductypes.o
 *fill*         0x00000000080283f6        0x2 
 .rodata.uctypes_struct_bytearray_at_obj
                0x00000000080283f8        0x8 build/extmod/moductypes.o
                0x00000000080283f8                uctypes_struct_bytearray_at_obj
 .rodata.uctypes_struct_bytes_at_obj
                0x0000000008028400        0x8 build/extmod/moductypes.o
                0x0000000008028400                uctypes_struct_bytes_at_obj
 .rodata.uctypes_struct_print.str1.1
                0x0000000008028408       0x20 build/extmod/moductypes.o
                                         0x2a (size before relaxing)
 .rodata.uctypes_struct_size.str1.1
                0x0000000008028428       0x4a build/extmod/moductypes.o
 *fill*         0x0000000008028472        0x2 
 .rodata.uctypes_struct_sizeof_obj
                0x0000000008028474        0x8 build/extmod/moductypes.o
 .rodata.uctypes_struct_subscr.str1.1
                0x000000000802847c       0x30 build/extmod/moductypes.o
 .rodata.uctypes_struct_type
                0x00000000080284ac       0x3c build/extmod/moductypes.o
 .rodata.mod_ujson_dump_obj
                0x00000000080284e8        0x8 build/extmod/modujson.o
 .rodata.mod_ujson_dumps_obj
                0x00000000080284f0        0x8 build/extmod/modujson.o
 .rodata.mod_ujson_load.str1.1
                0x00000000080284f8       0x15 build/extmod/modujson.o
 *fill*         0x000000000802850d        0x3 
 .rodata.mod_ujson_load_obj
                0x0000000008028510        0x8 build/extmod/modujson.o
 .rodata.mod_ujson_loads_obj
                0x0000000008028518        0x8 build/extmod/modujson.o
 .rodata.mp_module_ujson
                0x0000000008028520        0x8 build/extmod/modujson.o
                0x0000000008028520                mp_module_ujson
 .rodata.mp_module_ujson_globals
                0x0000000008028528       0x10 build/extmod/modujson.o
 .rodata.mp_module_ujson_globals_table
                0x0000000008028538       0x28 build/extmod/modujson.o
 .rodata.match_end_obj
                0x0000000008028560        0xc build/extmod/modure.o
                0x0000000008028560                match_end_obj
 .rodata.match_group_obj
                0x000000000802856c        0x8 build/extmod/modure.o
                0x000000000802856c                match_group_obj
 .rodata.match_groups_obj
                0x0000000008028574        0x8 build/extmod/modure.o
                0x0000000008028574                match_groups_obj
 .rodata.match_locals_dict
                0x000000000802857c       0x10 build/extmod/modure.o
 .rodata.match_locals_dict_table
                0x000000000802858c       0x28 build/extmod/modure.o
 .rodata.match_print.str1.1
                0x00000000080285b4        0xf build/extmod/modure.o
 *fill*         0x00000000080285c3        0x1 
 .rodata.match_span_obj
                0x00000000080285c4        0xc build/extmod/modure.o
                0x00000000080285c4                match_span_obj
 .rodata.match_start_obj
                0x00000000080285d0        0xc build/extmod/modure.o
                0x00000000080285d0                match_start_obj
 .rodata.match_type
                0x00000000080285dc       0x3c build/extmod/modure.o
 .rodata.mod_re_compile.str1.1
                0x0000000008028618        0xf build/extmod/modure.o
 *fill*         0x0000000008028627        0x1 
 .rodata.mod_re_compile_obj
                0x0000000008028628        0xc build/extmod/modure.o
                0x0000000008028628                mod_re_compile_obj
 .rodata.mod_re_match_obj
                0x0000000008028634        0xc build/extmod/modure.o
                0x0000000008028634                mod_re_match_obj
 .rodata.mod_re_search_obj
                0x0000000008028640        0xc build/extmod/modure.o
                0x0000000008028640                mod_re_search_obj
 .rodata.mod_re_sub_obj
                0x000000000802864c        0xc build/extmod/modure.o
                0x000000000802864c                mod_re_sub_obj
 .rodata.mp_module_re_globals
                0x0000000008028658       0x10 build/extmod/modure.o
 .rodata.mp_module_re_globals_table
                0x0000000008028668       0x30 build/extmod/modure.o
 .rodata.mp_module_ure
                0x0000000008028698        0x8 build/extmod/modure.o
                0x0000000008028698                mp_module_ure
 .rodata.re1_5_dumpcode.str1.1
                0x00000000080286a0       0x8a build/extmod/modure.o
                                         0xa8 (size before relaxing)
 *fill*         0x000000000802872a        0x2 
 .rodata.re_locals_dict
                0x000000000802872c       0x10 build/extmod/modure.o
 .rodata.re_locals_dict_table
                0x000000000802873c       0x20 build/extmod/modure.o
 .rodata.re_match_obj
                0x000000000802875c        0xc build/extmod/modure.o
                0x000000000802875c                re_match_obj
 .rodata.re_print.str1.1
                0x0000000008028768        0x8 build/extmod/modure.o
 .rodata.re_search_obj
                0x0000000008028770        0xc build/extmod/modure.o
                0x0000000008028770                re_search_obj
 .rodata.re_split.str1.1
                0x000000000802877c       0x1c build/extmod/modure.o
 .rodata.re_split_obj
                0x0000000008028798        0xc build/extmod/modure.o
                0x0000000008028798                re_split_obj
 .rodata.re_sub_obj
                0x00000000080287a4        0xc build/extmod/modure.o
                0x00000000080287a4                re_sub_obj
 .rodata.re_type
                0x00000000080287b0       0x3c build/extmod/modure.o
 .rodata.clcidx
                0x00000000080287ec       0x13 build/extmod/moduzlib.o
                0x00000000080287ec                clcidx
 *fill*         0x00000000080287ff        0x1 
 .rodata.decompio_locals_dict
                0x0000000008028800       0x10 build/extmod/moduzlib.o
 .rodata.decompio_locals_dict_table
                0x0000000008028810       0x18 build/extmod/moduzlib.o
 .rodata.decompio_make_new.str1.1
                0x0000000008028828       0x13 build/extmod/moduzlib.o
 *fill*         0x000000000802883b        0x1 
 .rodata.decompio_stream_p
                0x000000000802883c       0x10 build/extmod/moduzlib.o
 .rodata.decompio_type
                0x000000000802884c       0x3c build/extmod/moduzlib.o
 .rodata.dist_base
                0x0000000008028888       0x3c build/extmod/moduzlib.o
                0x0000000008028888                dist_base
 .rodata.dist_bits
                0x00000000080288c4       0x1e build/extmod/moduzlib.o
                0x00000000080288c4                dist_bits
 .rodata.length_base
                0x00000000080288e2       0x3c build/extmod/moduzlib.o
                0x00000000080288e2                length_base
 .rodata.length_bits
                0x000000000802891e       0x1e build/extmod/moduzlib.o
                0x000000000802891e                length_bits
 .rodata.mod_uzlib_decompress_obj
                0x000000000802893c        0xc build/extmod/moduzlib.o
 .rodata.mp_module_uzlib
                0x0000000008028948        0x8 build/extmod/moduzlib.o
                0x0000000008028948                mp_module_uzlib
 .rodata.mp_module_uzlib_globals
                0x0000000008028950       0x10 build/extmod/moduzlib.o
 .rodata.mp_module_uzlib_globals_table
                0x0000000008028960       0x18 build/extmod/moduzlib.o
 .rodata.tinf_crc32tab
                0x0000000008028978       0x40 build/extmod/moduzlib.o
 .rodata.get_heap.str1.1
                0x00000000080289b8       0x14 build/extmod/moduheapq.o
 .rodata.mod_uheapq_heapify_obj
                0x00000000080289cc        0x8 build/extmod/moduheapq.o
 .rodata.mod_uheapq_heappop.str1.1
                0x00000000080289d4        0xb build/extmod/moduheapq.o
 *fill*         0x00000000080289df        0x1 
 .rodata.mod_uheapq_heappop_obj
                0x00000000080289e0        0x8 build/extmod/moduheapq.o
 .rodata.mod_uheapq_heappush_obj
                0x00000000080289e8        0x8 build/extmod/moduheapq.o
 .rodata.mp_module_uheapq
                0x00000000080289f0        0x8 build/extmod/moduheapq.o
                0x00000000080289f0                mp_module_uheapq
 .rodata.mp_module_uheapq_globals
                0x00000000080289f8       0x10 build/extmod/moduheapq.o
 .rodata.mp_module_uheapq_globals_table
                0x0000000008028a08       0x20 build/extmod/moduheapq.o
 .rodata.mod_utimeq_heappop_obj
                0x0000000008028a28        0x8 build/extmod/modutimeq.o
 .rodata.mod_utimeq_heappush.str1.1
                0x0000000008028a30        0xf build/extmod/modutimeq.o
 *fill*         0x0000000008028a3f        0x1 
 .rodata.mod_utimeq_heappush_obj
                0x0000000008028a40        0xc build/extmod/modutimeq.o
 .rodata.mod_utimeq_peektime.str1.1
                0x0000000008028a4c        0xb build/extmod/modutimeq.o
 .rodata.mod_utimeq_peektime_obj
                0x0000000008028a4c        0x8 build/extmod/modutimeq.o
 .rodata.mp_module_utimeq
                0x0000000008028a54        0x8 build/extmod/modutimeq.o
                0x0000000008028a54                mp_module_utimeq
 .rodata.mp_module_utimeq_globals
                0x0000000008028a5c       0x10 build/extmod/modutimeq.o
 .rodata.mp_module_utimeq_globals_table
                0x0000000008028a6c       0x10 build/extmod/modutimeq.o
 .rodata.utimeq_locals_dict
                0x0000000008028a7c       0x10 build/extmod/modutimeq.o
 .rodata.utimeq_locals_dict_table
                0x0000000008028a8c       0x18 build/extmod/modutimeq.o
 .rodata.utimeq_type
                0x0000000008028aa4       0x3c build/extmod/modutimeq.o
 .rodata.k      0x0000000008028ae0      0x100 build/extmod/moduhashlib.o
 .rodata.mp_module_uhashlib
                0x0000000008028be0        0x8 build/extmod/moduhashlib.o
                0x0000000008028be0                mp_module_uhashlib
 .rodata.mp_module_uhashlib_globals
                0x0000000008028be8       0x10 build/extmod/moduhashlib.o
 .rodata.mp_module_uhashlib_globals_table
                0x0000000008028bf8       0x10 build/extmod/moduhashlib.o
 .rodata.uhashlib_sha256_digest_obj
                0x0000000008028c08        0x8 build/extmod/moduhashlib.o
 .rodata.uhashlib_sha256_locals_dict
                0x0000000008028c10       0x10 build/extmod/moduhashlib.o
 .rodata.uhashlib_sha256_locals_dict_table
                0x0000000008028c20       0x10 build/extmod/moduhashlib.o
 .rodata.uhashlib_sha256_type
                0x0000000008028c30       0x3c build/extmod/moduhashlib.o
 .rodata.uhashlib_sha256_update_obj
                0x0000000008028c6c        0x8 build/extmod/moduhashlib.o
 .rodata.mod_binascii_a2b_base64.str1.1
                0x0000000008028c74       0x12 build/extmod/modubinascii.o
 *fill*         0x0000000008028c86        0x2 
 .rodata.mod_binascii_a2b_base64_obj
                0x0000000008028c88        0x8 build/extmod/modubinascii.o
                0x0000000008028c88                mod_binascii_a2b_base64_obj
 .rodata.mod_binascii_b2a_base64_obj
                0x0000000008028c90        0x8 build/extmod/modubinascii.o
                0x0000000008028c90                mod_binascii_b2a_base64_obj
 .rodata.mod_binascii_crc32_obj
                0x0000000008028c98        0xc build/extmod/modubinascii.o
                0x0000000008028c98                mod_binascii_crc32_obj
 .rodata.mod_binascii_hexlify_obj
                0x0000000008028ca4        0xc build/extmod/modubinascii.o
                0x0000000008028ca4                mod_binascii_hexlify_obj
 .rodata.mod_binascii_unhexlify.str1.1
                0x0000000008028cb0       0x26 build/extmod/modubinascii.o
 *fill*         0x0000000008028cd6        0x2 
 .rodata.mod_binascii_unhexlify_obj
                0x0000000008028cd8        0x8 build/extmod/modubinascii.o
                0x0000000008028cd8                mod_binascii_unhexlify_obj
 .rodata.mp_module_binascii_globals
                0x0000000008028ce0       0x10 build/extmod/modubinascii.o
 .rodata.mp_module_binascii_globals_table
                0x0000000008028cf0       0x30 build/extmod/modubinascii.o
 .rodata.mp_module_ubinascii
                0x0000000008028d20        0x8 build/extmod/modubinascii.o
                0x0000000008028d20                mp_module_ubinascii
 .rodata.mod_urandom_choice_obj
                0x0000000008028d28        0x8 build/extmod/modurandom.o
 .rodata.mod_urandom_getrandbits_obj
                0x0000000008028d30        0x8 build/extmod/modurandom.o
 .rodata.mod_urandom_randint_obj
                0x0000000008028d38        0x8 build/extmod/modurandom.o
 .rodata.mod_urandom_random_obj
                0x0000000008028d40        0x8 build/extmod/modurandom.o
 .rodata.mod_urandom_randrange_obj
                0x0000000008028d48        0xc build/extmod/modurandom.o
 .rodata.mod_urandom_seed_obj
                0x0000000008028d54        0x8 build/extmod/modurandom.o
 .rodata.mod_urandom_uniform_obj
                0x0000000008028d5c        0x8 build/extmod/modurandom.o
 .rodata.mp_module_urandom
                0x0000000008028d64        0x8 build/extmod/modurandom.o
                0x0000000008028d64                mp_module_urandom
 .rodata.mp_module_urandom_globals
                0x0000000008028d6c       0x10 build/extmod/modurandom.o
 .rodata.mp_module_urandom_globals_table
                0x0000000008028d7c       0x40 build/extmod/modurandom.o
 .rodata.allowed_args.6667
                0x0000000008028dbc       0x10 build/extmod/vfs.o
 .rodata.allowed_args.6701
                0x0000000008028dcc       0x20 build/extmod/vfs.o
 .rodata.mp_vfs_chdir_obj
                0x0000000008028dec        0x8 build/extmod/vfs.o
                0x0000000008028dec                mp_vfs_chdir_obj
 .rodata.mp_vfs_getcwd_obj
                0x0000000008028df4        0x8 build/extmod/vfs.o
                0x0000000008028df4                mp_vfs_getcwd_obj
 .rodata.mp_vfs_ilistdir_obj
                0x0000000008028dfc        0xc build/extmod/vfs.o
                0x0000000008028dfc                mp_vfs_ilistdir_obj
 .rodata.mp_vfs_listdir_obj
                0x0000000008028e08        0xc build/extmod/vfs.o
                0x0000000008028e08                mp_vfs_listdir_obj
 .rodata.mp_vfs_lookup_path.str1.1
                0x0000000008028e14       0x26 build/extmod/vfs.o
                                          0x2 (size before relaxing)
 .rodata.mp_vfs_mkdir_obj
                0x0000000008028e14        0x8 build/extmod/vfs.o
                0x0000000008028e14                mp_vfs_mkdir_obj
 .rodata.mp_vfs_mount_obj
                0x0000000008028e1c        0xc build/extmod/vfs.o
                0x0000000008028e1c                mp_vfs_mount_obj
 .rodata.mp_vfs_open_obj
                0x0000000008028e28        0xc build/extmod/vfs.o
                0x0000000008028e28                mp_vfs_open_obj
 .rodata.mp_vfs_remove_obj
                0x0000000008028e34        0x8 build/extmod/vfs.o
                0x0000000008028e34                mp_vfs_remove_obj
 .rodata.mp_vfs_rename_obj
                0x0000000008028e3c        0x8 build/extmod/vfs.o
                0x0000000008028e3c                mp_vfs_rename_obj
 .rodata.mp_vfs_rmdir_obj
                0x0000000008028e44        0x8 build/extmod/vfs.o
                0x0000000008028e44                mp_vfs_rmdir_obj
 .rodata.mp_vfs_stat_obj
                0x0000000008028e4c        0x8 build/extmod/vfs.o
                0x0000000008028e4c                mp_vfs_stat_obj
 .rodata.mp_vfs_statvfs_obj
                0x0000000008028e54        0x8 build/extmod/vfs.o
                0x0000000008028e54                mp_vfs_statvfs_obj
 .rodata.mp_vfs_umount_obj
                0x0000000008028e5c        0x8 build/extmod/vfs.o
                0x0000000008028e5c                mp_vfs_umount_obj
 .rodata.mp_utime_sleep_ms_obj
                0x0000000008028e64        0x8 build/extmod/utime_mphal.o
                0x0000000008028e64                mp_utime_sleep_ms_obj
 .rodata.mp_utime_sleep_obj
                0x0000000008028e6c        0x8 build/extmod/utime_mphal.o
                0x0000000008028e6c                mp_utime_sleep_obj
 .rodata.mp_utime_ticks_add_obj
                0x0000000008028e74        0x8 build/extmod/utime_mphal.o
                0x0000000008028e74                mp_utime_ticks_add_obj
 .rodata.mp_utime_ticks_cpu_obj
                0x0000000008028e7c        0x8 build/extmod/utime_mphal.o
                0x0000000008028e7c                mp_utime_ticks_cpu_obj
 .rodata.mp_utime_ticks_diff_obj
                0x0000000008028e84        0x8 build/extmod/utime_mphal.o
                0x0000000008028e84                mp_utime_ticks_diff_obj
 .rodata.mp_utime_ticks_ms_obj
                0x0000000008028e8c        0x8 build/extmod/utime_mphal.o
                0x0000000008028e8c                mp_utime_ticks_ms_obj
 .rodata.mp_frozen_str_content
                0x0000000008028e94     0x1fab build/build/frozen.o
                0x0000000008028e94                mp_frozen_str_content
 .rodata.mp_frozen_str_names
                0x000000000802ae3f        0xd build/build/frozen.o
                0x000000000802ae3f                mp_frozen_str_names
 .rodata.mp_frozen_str_sizes
                0x000000000802ae4c        0x4 build/build/frozen.o
                0x000000000802ae4c                mp_frozen_str_sizes
 .rodata.const_obj__bios__lt_module_gt__main_0
                0x000000000802ae50       0x10 build/build/frozen_mpy.o
 .rodata.const_obj__bios__lt_module_gt__main_1
                0x000000000802ae60       0x10 build/build/frozen_mpy.o
 .rodata.const_obj__bios__lt_module_gt__main_2
                0x000000000802ae70       0x10 build/build/frozen_mpy.o
 .rodata.const_obj__bios__lt_module_gt__main_3
                0x000000000802ae80       0x10 build/build/frozen_mpy.o
 .rodata.const_obj_component__lt_module_gt__ComponentMethod___repr___0
                0x000000000802ae90       0x10 build/build/frozen_mpy.o
 .rodata.const_obj_component__lt_module_gt__Component___repr___0
                0x000000000802aea0       0x10 build/build/frozen_mpy.o
 .rodata.const_obj_handler__lt_module_gt__signal_handle_0
                0x000000000802aeb0       0x10 build/build/frozen_mpy.o
 .rodata.const_obj_vfs__lt_module_gt__FileSystem___repr___0
                0x000000000802aec0       0x10 build/build/frozen_mpy.o
 .rodata.const_table_data__bios__lt_module_gt_
                0x000000000802aed0       0x1c build/build/frozen_mpy.o
 .rodata.const_table_data__bios__lt_module_gt__Command
                0x000000000802aeec        0xc build/build/frozen_mpy.o
 .rodata.const_table_data__bios__lt_module_gt__Command___call__
                0x000000000802aef8        0x4 build/build/frozen_mpy.o
 .rodata.const_table_data__bios__lt_module_gt__Command___init__
                0x000000000802aefc        0x8 build/build/frozen_mpy.o
 .rodata.const_table_data__bios__lt_module_gt__Command___repr__
                0x000000000802af04        0x4 build/build/frozen_mpy.o
 .rodata.const_table_data__bios__lt_module_gt___listdir
                0x000000000802af08        0x8 build/build/frozen_mpy.o
 .rodata.const_table_data__bios__lt_module_gt___listdir__lt_listcomp_gt_
                0x000000000802af10        0x4 build/build/frozen_mpy.o
 .rodata.const_table_data__bios__lt_module_gt___show
                0x000000000802af14        0x4 build/build/frozen_mpy.o
 .rodata.const_table_data__bios__lt_module_gt__input
                0x000000000802af18        0x4 build/build/frozen_mpy.o
 .rodata.const_table_data__bios__lt_module_gt__main
                0x000000000802af1c       0x10 build/build/frozen_mpy.o
 .rodata.const_table_data_component__lt_module_gt_
                0x000000000802af2c       0x10 build/build/frozen_mpy.o
 .rodata.const_table_data_component__lt_module_gt__Component
                0x000000000802af3c       0x10 build/build/frozen_mpy.o
 .rodata.const_table_data_component__lt_module_gt__ComponentMethod
                0x000000000802af4c       0x10 build/build/frozen_mpy.o
 .rodata.const_table_data_component__lt_module_gt__ComponentMethod___call__
                0x000000000802af5c        0x4 build/build/frozen_mpy.o
 .rodata.const_table_data_component__lt_module_gt__ComponentMethod___init__
                0x000000000802af60        0xc build/build/frozen_mpy.o
 .rodata.const_table_data_component__lt_module_gt__ComponentMethod___repr__
                0x000000000802af6c        0x8 build/build/frozen_mpy.o
 .rodata.const_table_data_component__lt_module_gt__ComponentMethod_doc
                0x000000000802af74        0x4 build/build/frozen_mpy.o
 .rodata.const_table_data_component__lt_module_gt__Component___dir__
                0x000000000802af78        0x4 build/build/frozen_mpy.o
 .rodata.const_table_data_component__lt_module_gt__Component___getattr__
                0x000000000802af7c        0x8 build/build/frozen_mpy.o
 .rodata.const_table_data_component__lt_module_gt__Component___init__
                0x000000000802af84        0xc build/build/frozen_mpy.o
 .rodata.const_table_data_component__lt_module_gt__Component___repr__
                0x000000000802af90        0x8 build/build/frozen_mpy.o
 .rodata.const_table_data_component__lt_module_gt__Monitor
                0x000000000802af98       0x10 build/build/frozen_mpy.o
 .rodata.const_table_data_component__lt_module_gt__Monitor___getattr__
                0x000000000802afa8        0x8 build/build/frozen_mpy.o
 .rodata.const_table_data_component__lt_module_gt__Monitor___init__
                0x000000000802afb0        0x8 build/build/frozen_mpy.o
 .rodata.const_table_data_component__lt_module_gt__Monitor_putChar
                0x000000000802afb8        0x8 build/build/frozen_mpy.o
 .rodata.const_table_data_component__lt_module_gt__Monitor_scroll
                0x000000000802afc0        0x4 build/build/frozen_mpy.o
 .rodata.const_table_data_component__lt_module_gt__devices
                0x000000000802afc4        0x4 build/build/frozen_mpy.o
 .rodata.const_table_data_component__lt_module_gt__devices__lt_dictcomp_gt_
                0x000000000802afc8        0x4 build/build/frozen_mpy.o
 .rodata.const_table_data_handler__lt_module_gt_
                0x000000000802afcc        0xc build/build/frozen_mpy.o
 .rodata.const_table_data_handler__lt_module_gt__print_handler
                0x000000000802afd8        0x4 build/build/frozen_mpy.o
 .rodata.const_table_data_handler__lt_module_gt__signal_handle
                0x000000000802afdc        0x8 build/build/frozen_mpy.o
 .rodata.const_table_data_handler__lt_module_gt__signal_handler
                0x000000000802afe4        0x4 build/build/frozen_mpy.o
 .rodata.const_table_data_vfs__lt_module_gt_
                0x000000000802afe8        0x4 build/build/frozen_mpy.o
 .rodata.const_table_data_vfs__lt_module_gt__FileSystem
                0x000000000802afec       0x38 build/build/frozen_mpy.o
 .rodata.const_table_data_vfs__lt_module_gt__FileSystem___init__
                0x000000000802b024        0x8 build/build/frozen_mpy.o
 .rodata.const_table_data_vfs__lt_module_gt__FileSystem___repr__
                0x000000000802b02c        0x8 build/build/frozen_mpy.o
 .rodata.const_table_data_vfs__lt_module_gt__FileSystem_chdir
                0x000000000802b034        0x8 build/build/frozen_mpy.o
 .rodata.const_table_data_vfs__lt_module_gt__FileSystem_getcwd
                0x000000000802b03c        0x4 build/build/frozen_mpy.o
 .rodata.const_table_data_vfs__lt_module_gt__FileSystem_ilistdir
                0x000000000802b040        0x8 build/build/frozen_mpy.o
 .rodata.const_table_data_vfs__lt_module_gt__FileSystem_mkdir
                0x000000000802b048        0x8 build/build/frozen_mpy.o
 .rodata.const_table_data_vfs__lt_module_gt__FileSystem_mount
                0x000000000802b050        0xc build/build/frozen_mpy.o
 .rodata.const_table_data_vfs__lt_module_gt__FileSystem_open
                0x000000000802b05c        0xc build/build/frozen_mpy.o
 .rodata.const_table_data_vfs__lt_module_gt__FileSystem_remove
                0x000000000802b068        0x8 build/build/frozen_mpy.o
 .rodata.const_table_data_vfs__lt_module_gt__FileSystem_rename
                0x000000000802b070        0xc build/build/frozen_mpy.o
 .rodata.const_table_data_vfs__lt_module_gt__FileSystem_rmdir
                0x000000000802b07c        0x8 build/build/frozen_mpy.o
 .rodata.const_table_data_vfs__lt_module_gt__FileSystem_stat
                0x000000000802b084        0x8 build/build/frozen_mpy.o
 .rodata.const_table_data_vfs__lt_module_gt__FileSystem_statvfs
                0x000000000802b08c        0x8 build/build/frozen_mpy.o
 .rodata.const_table_data_vfs__lt_module_gt__FileSystem_umount
                0x000000000802b094        0x4 build/build/frozen_mpy.o
 .rodata.mp_frozen_mpy_content
                0x000000000802b098       0x14 build/build/frozen_mpy.o
                0x000000000802b098                mp_frozen_mpy_content
 .rodata.mp_frozen_mpy_names
                0x000000000802b0ac       0x33 build/build/frozen_mpy.o
                0x000000000802b0ac                mp_frozen_mpy_names
 *fill*         0x000000000802b0df        0x1 
 .rodata.mp_qstr_frozen_const_pool
                0x000000000802b0e0      0x118 build/build/frozen_mpy.o
                0x000000000802b0e0                mp_qstr_frozen_const_pool
 .rodata.raw_code__bios__lt_module_gt_
                0x000000000802b1f8       0x10 build/build/frozen_mpy.o
                0x000000000802b1f8                raw_code__bios__lt_module_gt_
 .rodata.raw_code__bios__lt_module_gt__Command
                0x000000000802b208       0x10 build/build/frozen_mpy.o
 .rodata.raw_code__bios__lt_module_gt__Command___call__
                0x000000000802b218       0x10 build/build/frozen_mpy.o
 .rodata.raw_code__bios__lt_module_gt__Command___init__
                0x000000000802b228       0x10 build/build/frozen_mpy.o
 .rodata.raw_code__bios__lt_module_gt__Command___repr__
                0x000000000802b238       0x10 build/build/frozen_mpy.o
 .rodata.raw_code__bios__lt_module_gt___cls
                0x000000000802b248       0x10 build/build/frozen_mpy.o
 .rodata.raw_code__bios__lt_module_gt___listdir
                0x000000000802b258       0x10 build/build/frozen_mpy.o
 .rodata.raw_code__bios__lt_module_gt___listdir__lt_listcomp_gt_
                0x000000000802b268       0x10 build/build/frozen_mpy.o
 .rodata.raw_code__bios__lt_module_gt___show
                0x000000000802b278       0x10 build/build/frozen_mpy.o
 .rodata.raw_code__bios__lt_module_gt__input
                0x000000000802b288       0x10 build/build/frozen_mpy.o
 .rodata.raw_code__bios__lt_module_gt__main
                0x000000000802b298       0x10 build/build/frozen_mpy.o
 .rodata.raw_code__bios__lt_module_gt__mem_info
                0x000000000802b2a8       0x10 build/build/frozen_mpy.o
 .rodata.raw_code__boot__lt_module_gt_
                0x000000000802b2b8       0x10 build/build/frozen_mpy.o
                0x000000000802b2b8                raw_code__boot__lt_module_gt_
 .rodata.raw_code_component__lt_module_gt_
                0x000000000802b2c8       0x10 build/build/frozen_mpy.o
                0x000000000802b2c8                raw_code_component__lt_module_gt_
 .rodata.raw_code_component__lt_module_gt__Component
                0x000000000802b2d8       0x10 build/build/frozen_mpy.o
 .rodata.raw_code_component__lt_module_gt__ComponentMethod
                0x000000000802b2e8       0x10 build/build/frozen_mpy.o
 .rodata.raw_code_component__lt_module_gt__ComponentMethod___call__
                0x000000000802b2f8       0x10 build/build/frozen_mpy.o
 .rodata.raw_code_component__lt_module_gt__ComponentMethod___init__
                0x000000000802b308       0x10 build/build/frozen_mpy.o
 .rodata.raw_code_component__lt_module_gt__ComponentMethod___repr__
                0x000000000802b318       0x10 build/build/frozen_mpy.o
 .rodata.raw_code_component__lt_module_gt__ComponentMethod_doc
                0x000000000802b328       0x10 build/build/frozen_mpy.o
 .rodata.raw_code_component__lt_module_gt__Component___dir__
                0x000000000802b338       0x10 build/build/frozen_mpy.o
 .rodata.raw_code_component__lt_module_gt__Component___getattr__
                0x000000000802b348       0x10 build/build/frozen_mpy.o
 .rodata.raw_code_component__lt_module_gt__Component___init__
                0x000000000802b358       0x10 build/build/frozen_mpy.o
 .rodata.raw_code_component__lt_module_gt__Component___repr__
                0x000000000802b368       0x10 build/build/frozen_mpy.o
 .rodata.raw_code_component__lt_module_gt__Monitor
                0x000000000802b378       0x10 build/build/frozen_mpy.o
 .rodata.raw_code_component__lt_module_gt__Monitor___getattr__
                0x000000000802b388       0x10 build/build/frozen_mpy.o
 .rodata.raw_code_component__lt_module_gt__Monitor___init__
                0x000000000802b398       0x10 build/build/frozen_mpy.o
 .rodata.raw_code_component__lt_module_gt__Monitor_putChar
                0x000000000802b3a8       0x10 build/build/frozen_mpy.o
 .rodata.raw_code_component__lt_module_gt__Monitor_scroll
                0x000000000802b3b8       0x10 build/build/frozen_mpy.o
 .rodata.raw_code_component__lt_module_gt__devices
                0x000000000802b3c8       0x10 build/build/frozen_mpy.o
 .rodata.raw_code_component__lt_module_gt__devices__lt_dictcomp_gt_
                0x000000000802b3d8       0x10 build/build/frozen_mpy.o
 .rodata.raw_code_handler__lt_module_gt_
                0x000000000802b3e8       0x10 build/build/frozen_mpy.o
                0x000000000802b3e8                raw_code_handler__lt_module_gt_
 .rodata.raw_code_handler__lt_module_gt__print_handler
                0x000000000802b3f8       0x10 build/build/frozen_mpy.o
 .rodata.raw_code_handler__lt_module_gt__signal_handle
                0x000000000802b408       0x10 build/build/frozen_mpy.o
 .rodata.raw_code_handler__lt_module_gt__signal_handler
                0x000000000802b418       0x10 build/build/frozen_mpy.o
 .rodata.raw_code_vfs__lt_module_gt_
                0x000000000802b428       0x10 build/build/frozen_mpy.o
                0x000000000802b428                raw_code_vfs__lt_module_gt_
 .rodata.raw_code_vfs__lt_module_gt__FileSystem
                0x000000000802b438       0x10 build/build/frozen_mpy.o
 .rodata.raw_code_vfs__lt_module_gt__FileSystem___init__
                0x000000000802b448       0x10 build/build/frozen_mpy.o
 .rodata.raw_code_vfs__lt_module_gt__FileSystem___repr__
                0x000000000802b458       0x10 build/build/frozen_mpy.o
 .rodata.raw_code_vfs__lt_module_gt__FileSystem_chdir
                0x000000000802b468       0x10 build/build/frozen_mpy.o
 .rodata.raw_code_vfs__lt_module_gt__FileSystem_getcwd
                0x000000000802b478       0x10 build/build/frozen_mpy.o
 .rodata.raw_code_vfs__lt_module_gt__FileSystem_ilistdir
                0x000000000802b488       0x10 build/build/frozen_mpy.o
 .rodata.raw_code_vfs__lt_module_gt__FileSystem_mkdir
                0x000000000802b498       0x10 build/build/frozen_mpy.o
 .rodata.raw_code_vfs__lt_module_gt__FileSystem_mount
                0x000000000802b4a8       0x10 build/build/frozen_mpy.o
 .rodata.raw_code_vfs__lt_module_gt__FileSystem_open
                0x000000000802b4b8       0x10 build/build/frozen_mpy.o
 .rodata.raw_code_vfs__lt_module_gt__FileSystem_remove
                0x000000000802b4c8       0x10 build/build/frozen_mpy.o
 .rodata.raw_code_vfs__lt_module_gt__FileSystem_rename
                0x000000000802b4d8       0x10 build/build/frozen_mpy.o
 .rodata.raw_code_vfs__lt_module_gt__FileSystem_rmdir
                0x000000000802b4e8       0x10 build/build/frozen_mpy.o
 .rodata.raw_code_vfs__lt_module_gt__FileSystem_stat
                0x000000000802b4f8       0x10 build/build/frozen_mpy.o
 .rodata.raw_code_vfs__lt_module_gt__FileSystem_statvfs
                0x000000000802b508       0x10 build/build/frozen_mpy.o
 .rodata.raw_code_vfs__lt_module_gt__FileSystem_umount
                0x000000000802b518       0x10 build/build/frozen_mpy.o
 .rodata.str1.1
                0x000000000802b528      0x3ea build/build/frozen_mpy.o
                                        0x3eb (size before relaxing)
 *fill*         0x000000000802b912        0x2 
 .rodata.debug_print
                0x000000000802b914        0x8 build/main.o
                0x000000000802b914                debug_print
 .rodata.main.str1.1
                0x000000000802b91c       0x11 build/main.o
                                         0x23 (size before relaxing)
 .rodata.openpie_help_text
                0x000000000802b92d       0x9c build/help.o
                0x000000000802b92d                openpie_help_text
 .rodata.Call_Handler.str1.1
                0x000000000802b9c9       0x14 build/machine.o
 *fill*         0x000000000802b9dd        0x3 
 .rodata.mp_type_SystemError
                0x000000000802b9e0       0x3c build/machine.o
                0x000000000802b9e0                mp_type_SystemError
 .rodata.nlr_jump_fail.str1.1
                0x000000000802ba1c        0xe build/machine.o
 *fill*         0x000000000802ba2a        0x2 
 .rodata.machine_module_globals
                0x000000000802ba2c       0x10 build/modmachine.o
 .rodata.machine_module_globals_table
                0x000000000802ba3c       0x78 build/modmachine.o
 .rodata.mp_module_machine
                0x000000000802bab4        0x8 build/modmachine.o
                0x000000000802bab4                mp_module_machine
 .rodata.usystem_annotations_obj
                0x000000000802babc        0x8 build/modmachine.o
                0x000000000802babc                usystem_annotations_obj
 .rodata.usystem_components_obj
                0x000000000802bac4        0x8 build/modmachine.o
                0x000000000802bac4                usystem_components_obj
 .rodata.usystem_debug_obj
                0x000000000802bacc        0x8 build/modmachine.o
                0x000000000802bacc                usystem_debug_obj
 .rodata.usystem_get_stdout_str_obj
                0x000000000802bad4        0x8 build/modmachine.o
                0x000000000802bad4                usystem_get_stdout_str_obj
 .rodata.usystem_invoke.str1.1
                0x000000000802badc       0x16 build/modmachine.o
 *fill*         0x000000000802baf2        0x2 
 .rodata.usystem_invoke_obj
                0x000000000802baf4        0xc build/modmachine.o
                0x000000000802baf4                usystem_invoke_obj
 .rodata.usystem_methods_obj
                0x000000000802bb00        0x8 build/modmachine.o
                0x000000000802bb00                usystem_methods_obj
 .rodata.usystem_print_hook_obj
                0x000000000802bb08        0x8 build/modmachine.o
                0x000000000802bb08                usystem_print_hook_obj
 .rodata.usystem_reboot.str1.1
                0x000000000802bb10        0xf build/modmachine.o
 *fill*         0x000000000802bb1f        0x1 
 .rodata.usystem_reboot_obj
                0x000000000802bb20        0x8 build/modmachine.o
                0x000000000802bb20                usystem_reboot_obj
 .rodata.usystem_repl_call.str1.1
                0x000000000802bb28       0x14 build/modmachine.o
 .rodata.usystem_repl_call_obj
                0x000000000802bb3c        0x8 build/modmachine.o
                0x000000000802bb3c                usystem_repl_call_obj
 .rodata.usystem_repl_compile.str1.1
                0x000000000802bb44       0x15 build/modmachine.o
 *fill*         0x000000000802bb59        0x3 
 .rodata.usystem_repl_compile_obj
                0x000000000802bb5c        0x8 build/modmachine.o
                0x000000000802bb5c                usystem_repl_compile_obj
 .rodata.usystem_repl_input.str1.1
                0x000000000802bb64        0xa build/modmachine.o
                                          0xd (size before relaxing)
 *fill*         0x000000000802bb6e        0x2 
 .rodata.usystem_repl_input_obj
                0x000000000802bb70        0x8 build/modmachine.o
                0x000000000802bb70                usystem_repl_input_obj
 .rodata.usystem_set_stdin_char_obj
                0x000000000802bb78        0x8 build/modmachine.o
                0x000000000802bb78                usystem_set_stdin_char_obj
 .rodata.usystem_shutdown.str1.1
                0x000000000802bb80       0x11 build/modmachine.o
 *fill*         0x000000000802bb91        0x3 
 .rodata.usystem_shutdown_obj
                0x000000000802bb94        0x8 build/modmachine.o
                0x000000000802bb94                usystem_shutdown_obj
 .rodata.usystem_signal_obj
                0x000000000802bb9c        0x8 build/modmachine.o
                0x000000000802bb9c                usystem_signal_obj
 .rodata.mp_module_uos
                0x000000000802bba4        0x8 build/moduos.o
                0x000000000802bba4                mp_module_uos
 .rodata.uos_module_globals
                0x000000000802bbac       0x10 build/moduos.o
 .rodata.uos_module_globals_table
                0x000000000802bbbc       0x68 build/moduos.o
 .rodata.mp_module_utime
                0x000000000802bc24        0x8 build/modutime.o
                0x000000000802bc24                mp_module_utime
 .rodata.time_module_globals
                0x000000000802bc2c       0x10 build/modutime.o
 .rodata.time_module_globals_table
                0x000000000802bc3c       0x38 build/modutime.o
 .rodata.mp_module_umsgpack
                0x000000000802bc74        0x8 build/modumsgpack.o
                0x000000000802bc74                mp_module_umsgpack
 .rodata.umsgpack_dumps_obj
                0x000000000802bc7c        0x8 build/modumsgpack.o
                0x000000000802bc7c                umsgpack_dumps_obj
 .rodata.umsgpack_loads_obj
                0x000000000802bc84        0x8 build/modumsgpack.o
                0x000000000802bc84                umsgpack_loads_obj
 .rodata.umsgpack_module_globals
                0x000000000802bc8c       0x10 build/modumsgpack.o
 .rodata.umsgpack_module_globals_table
                0x000000000802bc9c       0x18 build/modumsgpack.o
 .rodata.allowed_args.7529
                0x000000000802bcb4       0x18 build/openpie_vfs.o
 .rodata.check_fd_is_open.isra.0.part.1.str1.1
                0x000000000802bccc       0x1d build/openpie_vfs.o
 .rodata.fileio_stream_p
                0x000000000802bccc       0x10 build/openpie_vfs.o
 .rodata.mp_type_vfs_openpie_fileio
                0x000000000802bcdc       0x3c build/openpie_vfs.o
                0x000000000802bcdc                mp_type_vfs_openpie_fileio
 .rodata.mp_type_vfs_openpie_textio
                0x000000000802bd18       0x3c build/openpie_vfs.o
                0x000000000802bd18                mp_type_vfs_openpie_textio
 .rodata.rawfile_locals_dict
                0x000000000802bd54       0x10 build/openpie_vfs.o
 .rodata.rawfile_locals_dict_table
                0x000000000802bd64       0x60 build/openpie_vfs.o
 .rodata.textio_stream_p
                0x000000000802bdc4       0x10 build/openpie_vfs.o
 .rodata.vfs_openpie_file___exit___obj
                0x000000000802bdd4        0xc build/openpie_vfs.o
 .rodata.vfs_openpie_file_fileno_obj
                0x000000000802bde0        0x8 build/openpie_vfs.o
 .rodata.vfs_openpie_file_print.str1.1
                0x000000000802bde8        0xe build/openpie_vfs.o
 .rodata.msgpack_dump_close.str1.1
                0x000000000802bdf6       0x13 build/msgpack.o
 .rodata.msgpack_load.str1.1
                0x000000000802be09       0x1e build/msgpack.o
 .rodata.msgpack_loads.str1.1
                0x000000000802be27       0x18 build/msgpack.o
 *fill*         0x000000000802be3f        0x1 
 .rodata.mp_sys_stderr_obj
                0x000000000802be40        0x8 build/lib/utils/sys_stdio_mphal.o
                0x000000000802be40                mp_sys_stderr_obj
 .rodata.mp_sys_stdin_obj
                0x000000000802be48        0x8 build/lib/utils/sys_stdio_mphal.o
                0x000000000802be48                mp_sys_stdin_obj
 .rodata.mp_sys_stdout_obj
                0x000000000802be50        0x8 build/lib/utils/sys_stdio_mphal.o
                0x000000000802be50                mp_sys_stdout_obj
 .rodata.stdio_buffer_obj
                0x000000000802be58        0x8 build/lib/utils/sys_stdio_mphal.o
 .rodata.stdio_buffer_obj_stream_p
                0x000000000802be60       0x10 build/lib/utils/sys_stdio_mphal.o
 .rodata.stdio_buffer_obj_type
                0x000000000802be70       0x3c build/lib/utils/sys_stdio_mphal.o
 .rodata.stdio_locals_dict
                0x000000000802beac       0x10 build/lib/utils/sys_stdio_mphal.o
 .rodata.stdio_locals_dict_table
                0x000000000802bebc       0x50 build/lib/utils/sys_stdio_mphal.o
 .rodata.stdio_obj___exit___obj
                0x000000000802bf0c        0xc build/lib/utils/sys_stdio_mphal.o
 .rodata.stdio_obj_print.str1.1
                0x000000000802bf18        0xf build/lib/utils/sys_stdio_mphal.o
 *fill*         0x000000000802bf27        0x1 
 .rodata.stdio_obj_stream_p
                0x000000000802bf28       0x10 build/lib/utils/sys_stdio_mphal.o
 .rodata.stdio_obj_type
                0x000000000802bf38       0x3c build/lib/utils/sys_stdio_mphal.o
 .rodata.mp_hal_stdout_tx_strn_cooked.str1.1
                0x000000000802bf74        0xf build/lib/utils/stdout_helpers.o
                                          0x2 (size before relaxing)
 .rodata.parse_compile_execute.str1.1
                0x000000000802bf74       0x56 build/lib/utils/pyexec.o
 .rodata.pyexec_friendly_repl.str1.1
                0x000000000802bfca       0x9f build/lib/utils/pyexec.o
                                         0xb0 (size before relaxing)
 .rodata.pyexec_frozen_module.str1.1
                0x000000000802c069       0x1c build/lib/utils/pyexec.o
 .rodata.pyexec_raw_repl.str1.1
                0x000000000802c085       0x1e build/lib/utils/pyexec.o
                                         0x23 (size before relaxing)
 .rodata.mp_hal_move_cursor_back.str1.1
                0x000000000802c0a3        0xa build/lib/mp-readline/readline.o
 .rodata.readline_process_char.str1.1
                0x000000000802c0ad        0x4 build/lib/mp-readline/readline.o
                                          0x7 (size before relaxing)
 *fill*         0x000000000802c0b1        0x3 
 .rodata.bp     0x000000000802c0b4        0x8 build/lib/libm/math.o
 .rodata.dp_h   0x000000000802c0bc        0x8 build/lib/libm/math.o
 .rodata.dp_l   0x000000000802c0c4        0x8 build/lib/libm/math.o
 .rodata.half   0x000000000802c0cc        0x8 build/lib/libm/math.o
 .rodata.atanhi
                0x000000000802c0d4       0x10 build/lib/libm/atanf.o
 .rodata.atanlo
                0x000000000802c0e4       0x10 build/lib/libm/atanf.o
 .rodata.npio2_hw
                0x000000000802c0f4       0x80 build/lib/libm/ef_rem_pio2.o
 .rodata.two_over_pi
                0x000000000802c174      0x318 build/lib/libm/ef_rem_pio2.o
 .rodata.PIo2   0x000000000802c48c       0x2c build/lib/libm/kf_rem_pio2.o
 .rodata.init_jk
                0x000000000802c4b8        0xc build/lib/libm/kf_rem_pio2.o
 .rodata        0x000000000802c4c4       0x80 /opt/gcc-arm-none-eabi-7-2018-q2-update/bin/../lib/gcc/arm-none-eabi/7.3.1/thumb/v6-m/libgcc.a(divsf3.o)
 .rodata        0x000000000802c544       0x40 /opt/gcc-arm-none-eabi-7-2018-q2-update/bin/../lib/gcc/arm-none-eabi/7.3.1/thumb/v6-m/libgcc.a(mulsf3.o)
                0x000000000802c584                . = ALIGN (0x4)
                0x000000000802c584                _etext = .
                0x000000000802c584                _sidata = LOADADDR (.data)

.glue_7         0x000000000802c584        0x0
 .glue_7        0x000000000802c584        0x0 linker stubs

.glue_7t        0x000000000802c584        0x0
 .glue_7t       0x000000000802c584        0x0 linker stubs

.vfp11_veneer   0x000000000802c584        0x0
 .vfp11_veneer  0x000000000802c584        0x0 linker stubs

.v4_bx          0x000000000802c584        0x0
 .v4_bx         0x000000000802c584        0x0 linker stubs

.iplt           0x000000000802c584        0x0
 .iplt          0x000000000802c584        0x0 build/py/nlr.o

.rel.dyn        0x000000000802c584        0x0
 .rel.iplt      0x000000000802c584        0x0 build/py/nlr.o

.data           0x0000000020000000     0x1060 load address 0x000000000802c584
                0x0000000020000000                . = ALIGN (0x4)
                0x0000000020000000                _sdata = .
 *(.data*)
 .data.yasmarang_d
                0x0000000020000000        0x4 build/extmod/modurandom.o
 .data.yasmarang_n
                0x0000000020000004        0x4 build/extmod/modurandom.o
 .data.yasmarang_pad
                0x0000000020000008        0x4 build/extmod/modurandom.o
 .data.bytecode_data__bios__lt_module_gt_
                0x000000002000000c      0x157 build/build/frozen_mpy.o
 .data.bytecode_data__bios__lt_module_gt__Command
                0x0000000020000163       0x30 build/build/frozen_mpy.o
 .data.bytecode_data__bios__lt_module_gt__Command___call__
                0x0000000020000193       0x19 build/build/frozen_mpy.o
 .data.bytecode_data__bios__lt_module_gt__Command___init__
                0x00000000200001ac       0x18 build/build/frozen_mpy.o
 .data.bytecode_data__bios__lt_module_gt__Command___repr__
                0x00000000200001c4       0x39 build/build/frozen_mpy.o
 .data.bytecode_data__bios__lt_module_gt___cls
                0x00000000200001fd       0x45 build/build/frozen_mpy.o
 .data.bytecode_data__bios__lt_module_gt___listdir
                0x0000000020000242       0x27 build/build/frozen_mpy.o
 .data.bytecode_data__bios__lt_module_gt___listdir__lt_listcomp_gt_
                0x0000000020000269       0x20 build/build/frozen_mpy.o
 .data.bytecode_data__bios__lt_module_gt___show
                0x0000000020000289       0x38 build/build/frozen_mpy.o
 .data.bytecode_data__bios__lt_module_gt__input
                0x00000000200002c1       0xb6 build/build/frozen_mpy.o
 .data.bytecode_data__bios__lt_module_gt__main
                0x0000000020000377      0x14b build/build/frozen_mpy.o
 .data.bytecode_data__bios__lt_module_gt__mem_info
                0x00000000200004c2       0x2b build/build/frozen_mpy.o
 .data.bytecode_data__boot__lt_module_gt_
                0x00000000200004ed       0x39 build/build/frozen_mpy.o
 .data.bytecode_data_component__lt_module_gt_
                0x0000000020000526       0x69 build/build/frozen_mpy.o
 .data.bytecode_data_component__lt_module_gt__Component
                0x000000002000058f       0x37 build/build/frozen_mpy.o
 .data.bytecode_data_component__lt_module_gt__ComponentMethod
                0x00000000200005c6       0x3e build/build/frozen_mpy.o
 .data.bytecode_data_component__lt_module_gt__ComponentMethod___call__
                0x0000000020000604       0x27 build/build/frozen_mpy.o
 .data.bytecode_data_component__lt_module_gt__ComponentMethod___init__
                0x000000002000062b       0x1f build/build/frozen_mpy.o
 .data.bytecode_data_component__lt_module_gt__ComponentMethod___repr__
                0x000000002000064a       0x49 build/build/frozen_mpy.o
 .data.bytecode_data_component__lt_module_gt__ComponentMethod_doc
                0x0000000020000693       0x25 build/build/frozen_mpy.o
 .data.bytecode_data_component__lt_module_gt__Component___dir__
                0x00000000200006b8       0x32 build/build/frozen_mpy.o
 .data.bytecode_data_component__lt_module_gt__Component___getattr__
                0x00000000200006ea       0x19 build/build/frozen_mpy.o
 .data.bytecode_data_component__lt_module_gt__Component___init__
                0x0000000020000703       0x1f build/build/frozen_mpy.o
 .data.bytecode_data_component__lt_module_gt__Component___repr__
                0x0000000020000722       0x22 build/build/frozen_mpy.o
 .data.bytecode_data_component__lt_module_gt__Monitor
                0x0000000020000744       0x38 build/build/frozen_mpy.o
 .data.bytecode_data_component__lt_module_gt__Monitor___getattr__
                0x000000002000077c       0x1d build/build/frozen_mpy.o
 .data.bytecode_data_component__lt_module_gt__Monitor___init__
                0x0000000020000799       0x3d build/build/frozen_mpy.o
 .data.bytecode_data_component__lt_module_gt__Monitor_putChar
                0x00000000200007d6      0x10d build/build/frozen_mpy.o
 .data.bytecode_data_component__lt_module_gt__Monitor_scroll
                0x00000000200008e3       0x46 build/build/frozen_mpy.o
 .data.bytecode_data_component__lt_module_gt__devices
                0x0000000020000929       0x23 build/build/frozen_mpy.o
 .data.bytecode_data_component__lt_module_gt__devices__lt_dictcomp_gt_
                0x000000002000094c       0x2a build/build/frozen_mpy.o
 .data.bytecode_data_handler__lt_module_gt_
                0x0000000020000976       0xe0 build/build/frozen_mpy.o
 .data.bytecode_data_handler__lt_module_gt__print_handler
                0x0000000020000a56       0x62 build/build/frozen_mpy.o
 .data.bytecode_data_handler__lt_module_gt__signal_handle
                0x0000000020000ab8      0x164 build/build/frozen_mpy.o
 .data.bytecode_data_handler__lt_module_gt__signal_handler
                0x0000000020000c1c       0x21 build/build/frozen_mpy.o
 .data.bytecode_data_vfs__lt_module_gt_
                0x0000000020000c3d       0x4e build/build/frozen_mpy.o
 .data.bytecode_data_vfs__lt_module_gt__FileSystem
                0x0000000020000c8b       0x7c build/build/frozen_mpy.o
 .data.bytecode_data_vfs__lt_module_gt__FileSystem___init__
                0x0000000020000d07       0x46 build/build/frozen_mpy.o
 .data.bytecode_data_vfs__lt_module_gt__FileSystem___repr__
                0x0000000020000d4d       0x1d build/build/frozen_mpy.o
 .data.bytecode_data_vfs__lt_module_gt__FileSystem_chdir
                0x0000000020000d6a       0x31 build/build/frozen_mpy.o
 .data.bytecode_data_vfs__lt_module_gt__FileSystem_getcwd
                0x0000000020000d9b       0x16 build/build/frozen_mpy.o
 .data.bytecode_data_vfs__lt_module_gt__FileSystem_ilistdir
                0x0000000020000db1       0x62 build/build/frozen_mpy.o
 .data.bytecode_data_vfs__lt_module_gt__FileSystem_mkdir
                0x0000000020000e13       0x7a build/build/frozen_mpy.o
 .data.bytecode_data_vfs__lt_module_gt__FileSystem_mount
                0x0000000020000e8d       0x25 build/build/frozen_mpy.o
 .data.bytecode_data_vfs__lt_module_gt__FileSystem_open
                0x0000000020000eb2       0x22 build/build/frozen_mpy.o
 .data.bytecode_data_vfs__lt_module_gt__FileSystem_remove
                0x0000000020000ed4       0x31 build/build/frozen_mpy.o
 .data.bytecode_data_vfs__lt_module_gt__FileSystem_rename
                0x0000000020000f05       0x41 build/build/frozen_mpy.o
 .data.bytecode_data_vfs__lt_module_gt__FileSystem_rmdir
                0x0000000020000f46       0x72 build/build/frozen_mpy.o
 .data.bytecode_data_vfs__lt_module_gt__FileSystem_stat
                0x0000000020000fb8       0x74 build/build/frozen_mpy.o
 .data.bytecode_data_vfs__lt_module_gt__FileSystem_statvfs
                0x000000002000102c       0x1f build/build/frozen_mpy.o
 .data.bytecode_data_vfs__lt_module_gt__FileSystem_umount
                0x000000002000104b       0x12 build/build/frozen_mpy.o
 .data.pyexec_mode_kind
                0x000000002000105d        0x1 build/lib/utils/pyexec.o
                0x000000002000105d                pyexec_mode_kind
                0x0000000020001060                . = ALIGN (0x4)
 *fill*         0x000000002000105e        0x2 
                0x0000000020001060                _edata = .

.igot.plt       0x0000000020001060        0x0 load address 0x000000000802d5e4
 .igot.plt      0x0000000020001060        0x0 build/py/nlr.o

.bss            0x0000000020001060     0x9f9c load address 0x000000000802d5e4
                0x0000000020001060                . = ALIGN (0x4)
                0x0000000020001060                _sbss = .
 *(.bss*)
 .bss.utimeq_id
                0x0000000020001060        0x4 build/extmod/modutimeq.o
 .bss.yasmarang_dat
                0x0000000020001064        0x1 build/extmod/modurandom.o
 *fill*         0x0000000020001065        0x3 
 .bss.pystack.6838
                0x0000000020001068     0x9c40 build/main.o
 .bss.handler   0x000000002000aca8        0x4 build/machine.o
 .bss.print_hook
                0x000000002000acac        0x4 build/modmachine.o
                0x000000002000acac                print_hook
 .bss.pyexec_system_exit
                0x000000002000acb0        0x4 build/lib/utils/pyexec.o
                0x000000002000acb0                pyexec_system_exit
 .bss.repl_display_debugging_info
                0x000000002000acb4        0x1 build/lib/utils/pyexec.o
 *fill*         0x000000002000acb5        0x3 
 .bss.rl        0x000000002000acb8       0x1c build/lib/mp-readline/readline.o
 *(COMMON)
 COMMON         0x000000002000acd4      0x324 build/py/mpstate.o
                0x000000002000acd4                mp_state_ctx
 COMMON         0x000000002000aff8        0x4 build/lib/utils/interrupt_char.o
                0x000000002000aff8                mp_interrupt_char
                0x000000002000affc                . = ALIGN (0x4)
                0x000000002000affc                _ebss = .

.stack          0x000000002000affc     0x4000 load address 0x000000000802d5e4
                0x000000002000affc                . = ALIGN (0x4)
                0x000000002000effc                . = (. + _minimum_stack_size)
 *fill*         0x000000002000affc     0x4000 
                0x000000002000effc                . = ALIGN (0x4)

.heap           0x0000000060000000    0x20000
                0x0000000060000000                . = ALIGN (0x4)
                0x0000000060020000                . = (. + _minimum_heap_size)
 *fill*         0x0000000060000000    0x20000 
                0x0000000060020000                . = ALIGN (0x4)

.ARM.attributes
                0x0000000000000000       0x2f
 *(.ARM.attributes)
 .ARM.attributes
                0x0000000000000000       0x31 build/py/mpstate.o
 .ARM.attributes
                0x0000000000000031       0x31 build/py/nlr.o
 .ARM.attributes
                0x0000000000000062       0x31 build/py/nlrthumb.o
 .ARM.attributes
                0x0000000000000093       0x31 build/py/malloc.o
 .ARM.attributes
                0x00000000000000c4       0x31 build/py/gc.o
 .ARM.attributes
                0x00000000000000f5       0x31 build/py/pystack.o
 .ARM.attributes
                0x0000000000000126       0x31 build/py/qstr.o
 .ARM.attributes
                0x0000000000000157       0x31 build/py/vstr.o
 .ARM.attributes
                0x0000000000000188       0x31 build/py/mpprint.o
 .ARM.attributes
                0x00000000000001b9       0x31 build/py/unicode.o
 .ARM.attributes
                0x00000000000001ea       0x31 build/py/mpz.o
 .ARM.attributes
                0x000000000000021b       0x31 build/py/reader.o
 .ARM.attributes
                0x000000000000024c       0x31 build/py/lexer.o
 .ARM.attributes
                0x000000000000027d       0x31 build/py/parse.o
 .ARM.attributes
                0x00000000000002ae       0x31 build/py/scope.o
 .ARM.attributes
                0x00000000000002df       0x31 build/py/compile.o
 .ARM.attributes
                0x0000000000000310       0x31 build/py/emitcommon.o
 .ARM.attributes
                0x0000000000000341       0x31 build/py/emitbc.o
 .ARM.attributes
                0x0000000000000372       0x31 build/py/formatfloat.o
 .ARM.attributes
                0x00000000000003a3       0x31 build/py/parsenumbase.o
 .ARM.attributes
                0x00000000000003d4       0x31 build/py/parsenum.o
 .ARM.attributes
                0x0000000000000405       0x31 build/py/emitglue.o
 .ARM.attributes
                0x0000000000000436       0x31 build/py/persistentcode.o
 .ARM.attributes
                0x0000000000000467       0x31 build/py/runtime.o
 .ARM.attributes
                0x0000000000000498       0x31 build/py/runtime_utils.o
 .ARM.attributes
                0x00000000000004c9       0x31 build/py/scheduler.o
 .ARM.attributes
                0x00000000000004fa       0x31 build/py/stackctrl.o
 .ARM.attributes
                0x000000000000052b       0x31 build/py/argcheck.o
 .ARM.attributes
                0x000000000000055c       0x31 build/py/warning.o
 .ARM.attributes
                0x000000000000058d       0x31 build/py/map.o
 .ARM.attributes
                0x00000000000005be       0x31 build/py/obj.o
 .ARM.attributes
                0x00000000000005ef       0x31 build/py/objarray.o
 .ARM.attributes
                0x0000000000000620       0x31 build/py/objattrtuple.o
 .ARM.attributes
                0x0000000000000651       0x31 build/py/objbool.o
 .ARM.attributes
                0x0000000000000682       0x31 build/py/objboundmeth.o
 .ARM.attributes
                0x00000000000006b3       0x31 build/py/objcell.o
 .ARM.attributes
                0x00000000000006e4       0x31 build/py/objclosure.o
 .ARM.attributes
                0x0000000000000715       0x31 build/py/objcomplex.o
 .ARM.attributes
                0x0000000000000746       0x31 build/py/objdeque.o
 .ARM.attributes
                0x0000000000000777       0x31 build/py/objdict.o
 .ARM.attributes
                0x00000000000007a8       0x31 build/py/objenumerate.o
 .ARM.attributes
                0x00000000000007d9       0x31 build/py/objexcept.o
 .ARM.attributes
                0x000000000000080a       0x31 build/py/objfilter.o
 .ARM.attributes
                0x000000000000083b       0x31 build/py/objfloat.o
 .ARM.attributes
                0x000000000000086c       0x31 build/py/objfun.o
 .ARM.attributes
                0x000000000000089d       0x31 build/py/objgenerator.o
 .ARM.attributes
                0x00000000000008ce       0x31 build/py/objgetitemiter.o
 .ARM.attributes
                0x00000000000008ff       0x31 build/py/objint.o
 .ARM.attributes
                0x0000000000000930       0x31 build/py/objint_mpz.o
 .ARM.attributes
                0x0000000000000961       0x31 build/py/objlist.o
 .ARM.attributes
                0x0000000000000992       0x31 build/py/objmap.o
 .ARM.attributes
                0x00000000000009c3       0x31 build/py/objmodule.o
 .ARM.attributes
                0x00000000000009f4       0x31 build/py/objobject.o
 .ARM.attributes
                0x0000000000000a25       0x31 build/py/objpolyiter.o
 .ARM.attributes
                0x0000000000000a56       0x31 build/py/objproperty.o
 .ARM.attributes
                0x0000000000000a87       0x31 build/py/objnone.o
 .ARM.attributes
                0x0000000000000ab8       0x31 build/py/objnamedtuple.o
 .ARM.attributes
                0x0000000000000ae9       0x31 build/py/objrange.o
 .ARM.attributes
                0x0000000000000b1a       0x31 build/py/objreversed.o
 .ARM.attributes
                0x0000000000000b4b       0x31 build/py/objset.o
 .ARM.attributes
                0x0000000000000b7c       0x31 build/py/objsingleton.o
 .ARM.attributes
                0x0000000000000bad       0x31 build/py/objslice.o
 .ARM.attributes
                0x0000000000000bde       0x31 build/py/objstr.o
 .ARM.attributes
                0x0000000000000c0f       0x31 build/py/objstrunicode.o
 .ARM.attributes
                0x0000000000000c40       0x31 build/py/objstringio.o
 .ARM.attributes
                0x0000000000000c71       0x31 build/py/objtuple.o
 .ARM.attributes
                0x0000000000000ca2       0x31 build/py/objtype.o
 .ARM.attributes
                0x0000000000000cd3       0x31 build/py/objzip.o
 .ARM.attributes
                0x0000000000000d04       0x31 build/py/opmethods.o
 .ARM.attributes
                0x0000000000000d35       0x31 build/py/sequence.o
 .ARM.attributes
                0x0000000000000d66       0x31 build/py/stream.o
 .ARM.attributes
                0x0000000000000d97       0x31 build/py/binary.o
 .ARM.attributes
                0x0000000000000dc8       0x31 build/py/builtinimport.o
 .ARM.attributes
                0x0000000000000df9       0x31 build/py/builtinevex.o
 .ARM.attributes
                0x0000000000000e2a       0x31 build/py/builtinhelp.o
 .ARM.attributes
                0x0000000000000e5b       0x31 build/py/modarray.o
 .ARM.attributes
                0x0000000000000e8c       0x31 build/py/modbuiltins.o
 .ARM.attributes
                0x0000000000000ebd       0x31 build/py/modcollections.o
 .ARM.attributes
                0x0000000000000eee       0x31 build/py/modgc.o
 .ARM.attributes
                0x0000000000000f1f       0x31 build/py/modio.o
 .ARM.attributes
                0x0000000000000f50       0x31 build/py/modmath.o
 .ARM.attributes
                0x0000000000000f81       0x31 build/py/modcmath.o
 .ARM.attributes
                0x0000000000000fb2       0x31 build/py/modmicropython.o
 .ARM.attributes
                0x0000000000000fe3       0x31 build/py/modstruct.o
 .ARM.attributes
                0x0000000000001014       0x31 build/py/modsys.o
 .ARM.attributes
                0x0000000000001045       0x31 build/py/moduerrno.o
 .ARM.attributes
                0x0000000000001076       0x31 build/py/vm.o
 .ARM.attributes
                0x00000000000010a7       0x31 build/py/bc.o
 .ARM.attributes
                0x00000000000010d8       0x31 build/py/repl.o
 .ARM.attributes
                0x0000000000001109       0x31 build/py/smallint.o
 .ARM.attributes
                0x000000000000113a       0x31 build/py/frozenmod.o
 .ARM.attributes
                0x000000000000116b       0x31 build/extmod/moductypes.o
 .ARM.attributes
                0x000000000000119c       0x31 build/extmod/modujson.o
 .ARM.attributes
                0x00000000000011cd       0x31 build/extmod/modure.o
 .ARM.attributes
                0x00000000000011fe       0x31 build/extmod/moduzlib.o
 .ARM.attributes
                0x000000000000122f       0x31 build/extmod/moduheapq.o
 .ARM.attributes
                0x0000000000001260       0x31 build/extmod/modutimeq.o
 .ARM.attributes
                0x0000000000001291       0x31 build/extmod/moduhashlib.o
 .ARM.attributes
                0x00000000000012c2       0x31 build/extmod/modubinascii.o
 .ARM.attributes
                0x00000000000012f3       0x31 build/extmod/modurandom.o
 .ARM.attributes
                0x0000000000001324       0x31 build/extmod/vfs.o
 .ARM.attributes
                0x0000000000001355       0x31 build/extmod/vfs_reader.o
 .ARM.attributes
                0x0000000000001386       0x31 build/extmod/utime_mphal.o
 .ARM.attributes
                0x00000000000013b7       0x31 build/lib/utils/printf.o
 .ARM.attributes
                0x00000000000013e8       0x31 build/build/frozen.o
 .ARM.attributes
                0x0000000000001419       0x31 build/build/frozen_mpy.o
 .ARM.attributes
                0x000000000000144a       0x31 build/main.o
 .ARM.attributes
                0x000000000000147b       0x31 build/help.o
 .ARM.attributes
                0x00000000000014ac       0x31 build/machine.o
 .ARM.attributes
                0x00000000000014dd       0x31 build/mphalport.o
 .ARM.attributes
                0x000000000000150e       0x31 build/modmachine.o
 .ARM.attributes
                0x000000000000153f       0x31 build/moduos.o
 .ARM.attributes
                0x0000000000001570       0x31 build/modutime.o
 .ARM.attributes
                0x00000000000015a1       0x31 build/modumsgpack.o
 .ARM.attributes
                0x00000000000015d2       0x31 build/gccollect.o
 .ARM.attributes
                0x0000000000001603       0x31 build/openpie_vfs.o
 .ARM.attributes
                0x0000000000001634       0x31 build/msgpack.o
 .ARM.attributes
                0x0000000000001665       0x21 build/gchelper_m0.o
 .ARM.attributes
                0x0000000000001686       0x31 build/lib/mpack/mpack-common.o
 .ARM.attributes
                0x00000000000016b7       0x31 build/lib/mpack/mpack-platform.o
 .ARM.attributes
                0x00000000000016e8       0x31 build/lib/mpack/mpack-reader.o
 .ARM.attributes
                0x0000000000001719       0x31 build/lib/mpack/mpack-writer.o
 .ARM.attributes
                0x000000000000174a       0x31 build/lib/utils/sys_stdio_mphal.o
 .ARM.attributes
                0x000000000000177b       0x31 build/lib/utils/stdout_helpers.o
 .ARM.attributes
                0x00000000000017ac       0x31 build/lib/utils/interrupt_char.o
 .ARM.attributes
                0x00000000000017dd       0x31 build/lib/utils/pyexec.o
 .ARM.attributes
                0x000000000000180e       0x31 build/lib/libc/string0.o
 .ARM.attributes
                0x000000000000183f       0x31 build/lib/mp-readline/readline.o
 .ARM.attributes
                0x0000000000001870       0x31 build/lib/libm/math.o
 .ARM.attributes
                0x00000000000018a1       0x31 build/lib/libm/acoshf.o
 .ARM.attributes
                0x00000000000018d2       0x31 build/lib/libm/asinfacosf.o
 .ARM.attributes
                0x0000000000001903       0x31 build/lib/libm/asinhf.o
 .ARM.attributes
                0x0000000000001934       0x31 build/lib/libm/atan2f.o
 .ARM.attributes
                0x0000000000001965       0x31 build/lib/libm/atanf.o
 .ARM.attributes
                0x0000000000001996       0x31 build/lib/libm/atanhf.o
 .ARM.attributes
                0x00000000000019c7       0x31 build/lib/libm/ef_rem_pio2.o
 .ARM.attributes
                0x00000000000019f8       0x31 build/lib/libm/ef_sqrt.o
 .ARM.attributes
                0x0000000000001a29       0x31 build/lib/libm/erf_lgamma.o
 .ARM.attributes
                0x0000000000001a5a       0x31 build/lib/libm/fmodf.o
 .ARM.attributes
                0x0000000000001a8b       0x31 build/lib/libm/kf_cos.o
 .ARM.attributes
                0x0000000000001abc       0x31 build/lib/libm/kf_rem_pio2.o
 .ARM.attributes
                0x0000000000001aed       0x31 build/lib/libm/kf_sin.o
 .ARM.attributes
                0x0000000000001b1e       0x31 build/lib/libm/kf_tan.o
 .ARM.attributes
                0x0000000000001b4f       0x31 build/lib/libm/log1pf.o
 .ARM.attributes
                0x0000000000001b80       0x31 build/lib/libm/nearbyintf.o
 .ARM.attributes
                0x0000000000001bb1       0x31 build/lib/libm/sf_cos.o
 .ARM.attributes
                0x0000000000001be2       0x31 build/lib/libm/sf_erf.o
 .ARM.attributes
                0x0000000000001c13       0x31 build/lib/libm/sf_frexp.o
 .ARM.attributes
                0x0000000000001c44       0x31 build/lib/libm/sf_ldexp.o
 .ARM.attributes
                0x0000000000001c75       0x31 build/lib/libm/sf_modf.o
 .ARM.attributes
                0x0000000000001ca6       0x31 build/lib/libm/sf_sin.o
 .ARM.attributes
                0x0000000000001cd7       0x31 build/lib/libm/sf_tan.o
 .ARM.attributes
                0x0000000000001d08       0x31 build/lib/libm/wf_lgamma.o
 .ARM.attributes
                0x0000000000001d39       0x31 build/lib/libm/wf_tgamma.o
 .ARM.attributes
                0x0000000000001d6a       0x1e /opt/gcc-arm-none-eabi-7-2018-q2-update/bin/../lib/gcc/arm-none-eabi/7.3.1/thumb/v6-m/libgcc.a(_udivsi3.o)
 .ARM.attributes
                0x0000000000001d88       0x1e /opt/gcc-arm-none-eabi-7-2018-q2-update/bin/../lib/gcc/arm-none-eabi/7.3.1/thumb/v6-m/libgcc.a(_divsi3.o)
 .ARM.attributes
                0x0000000000001da6       0x1e /opt/gcc-arm-none-eabi-7-2018-q2-update/bin/../lib/gcc/arm-none-eabi/7.3.1/thumb/v6-m/libgcc.a(_dvmd_tls.o)
 .ARM.attributes
                0x0000000000001dc4       0x1e /opt/gcc-arm-none-eabi-7-2018-q2-update/bin/../lib/gcc/arm-none-eabi/7.3.1/thumb/v6-m/libgcc.a(_arm_cmpsf2.o)
 .ARM.attributes
                0x0000000000001de2       0x2c /opt/gcc-arm-none-eabi-7-2018-q2-update/bin/../lib/gcc/arm-none-eabi/7.3.1/thumb/v6-m/libgcc.a(_fixunssfsi.o)
 .ARM.attributes
                0x0000000000001e0e       0x2c /opt/gcc-arm-none-eabi-7-2018-q2-update/bin/../lib/gcc/arm-none-eabi/7.3.1/thumb/v6-m/libgcc.a(addsf3.o)
 .ARM.attributes
                0x0000000000001e3a       0x2c /opt/gcc-arm-none-eabi-7-2018-q2-update/bin/../lib/gcc/arm-none-eabi/7.3.1/thumb/v6-m/libgcc.a(divsf3.o)
 .ARM.attributes
                0x0000000000001e66       0x2c /opt/gcc-arm-none-eabi-7-2018-q2-update/bin/../lib/gcc/arm-none-eabi/7.3.1/thumb/v6-m/libgcc.a(eqsf2.o)
 .ARM.attributes
                0x0000000000001e92       0x2c /opt/gcc-arm-none-eabi-7-2018-q2-update/bin/../lib/gcc/arm-none-eabi/7.3.1/thumb/v6-m/libgcc.a(gesf2.o)
 .ARM.attributes
                0x0000000000001ebe       0x2c /opt/gcc-arm-none-eabi-7-2018-q2-update/bin/../lib/gcc/arm-none-eabi/7.3.1/thumb/v6-m/libgcc.a(lesf2.o)
 .ARM.attributes
                0x0000000000001eea       0x2c /opt/gcc-arm-none-eabi-7-2018-q2-update/bin/../lib/gcc/arm-none-eabi/7.3.1/thumb/v6-m/libgcc.a(mulsf3.o)
 .ARM.attributes
                0x0000000000001f16       0x2c /opt/gcc-arm-none-eabi-7-2018-q2-update/bin/../lib/gcc/arm-none-eabi/7.3.1/thumb/v6-m/libgcc.a(subsf3.o)
 .ARM.attributes
                0x0000000000001f42       0x2c /opt/gcc-arm-none-eabi-7-2018-q2-update/bin/../lib/gcc/arm-none-eabi/7.3.1/thumb/v6-m/libgcc.a(unordsf2.o)
 .ARM.attributes
                0x0000000000001f6e       0x2c /opt/gcc-arm-none-eabi-7-2018-q2-update/bin/../lib/gcc/arm-none-eabi/7.3.1/thumb/v6-m/libgcc.a(fixsfsi.o)
 .ARM.attributes
                0x0000000000001f9a       0x2c /opt/gcc-arm-none-eabi-7-2018-q2-update/bin/../lib/gcc/arm-none-eabi/7.3.1/thumb/v6-m/libgcc.a(floatsisf.o)
 .ARM.attributes
                0x0000000000001fc6       0x2c /opt/gcc-arm-none-eabi-7-2018-q2-update/bin/../lib/gcc/arm-none-eabi/7.3.1/thumb/v6-m/libgcc.a(floatunsisf.o)
 .ARM.attributes
                0x0000000000001ff2       0x2c /opt/gcc-arm-none-eabi-7-2018-q2-update/bin/../lib/gcc/arm-none-eabi/7.3.1/thumb/v6-m/libgcc.a(floatsidf.o)
 .ARM.attributes
                0x000000000000201e       0x2c /opt/gcc-arm-none-eabi-7-2018-q2-update/bin/../lib/gcc/arm-none-eabi/7.3.1/thumb/v6-m/libgcc.a(extendsfdf2.o)
 .ARM.attributes
                0x000000000000204a       0x2c /opt/gcc-arm-none-eabi-7-2018-q2-update/bin/../lib/gcc/arm-none-eabi/7.3.1/thumb/v6-m/libgcc.a(truncdfsf2.o)
 .ARM.attributes
                0x0000000000002076       0x1e /opt/gcc-arm-none-eabi-7-2018-q2-update/bin/../lib/gcc/arm-none-eabi/7.3.1/thumb/v6-m/libgcc.a(_clzsi2.o)
LOAD build/py/mpstate.o
LOAD build/py/nlr.o
LOAD build/py/nlrx86.o
LOAD build/py/nlrx64.o
LOAD build/py/nlrthumb.o
LOAD build/py/nlrxtensa.o
LOAD build/py/nlrsetjmp.o
LOAD build/py/malloc.o
LOAD build/py/gc.o
LOAD build/py/pystack.o
LOAD build/py/qstr.o
LOAD build/py/vstr.o
LOAD build/py/mpprint.o
LOAD build/py/unicode.o
LOAD build/py/mpz.o
LOAD build/py/reader.o
LOAD build/py/lexer.o
LOAD build/py/parse.o
LOAD build/py/scope.o
LOAD build/py/compile.o
LOAD build/py/emitcommon.o
LOAD build/py/emitbc.o
LOAD build/py/asmbase.o
LOAD build/py/asmx64.o
LOAD build/py/emitnx64.o
LOAD build/py/asmx86.o
LOAD build/py/emitnx86.o
LOAD build/py/asmthumb.o
LOAD build/py/emitnthumb.o
LOAD build/py/emitinlinethumb.o
LOAD build/py/asmarm.o
LOAD build/py/emitnarm.o
LOAD build/py/asmxtensa.o
LOAD build/py/emitnxtensa.o
LOAD build/py/emitinlinextensa.o
LOAD build/py/formatfloat.o
LOAD build/py/parsenumbase.o
LOAD build/py/parsenum.o
LOAD build/py/emitglue.o
LOAD build/py/persistentcode.o
LOAD build/py/runtime.o
LOAD build/py/runtime_utils.o
LOAD build/py/scheduler.o
LOAD build/py/nativeglue.o
LOAD build/py/stackctrl.o
LOAD build/py/argcheck.o
LOAD build/py/warning.o
LOAD build/py/map.o
LOAD build/py/obj.o
LOAD build/py/objarray.o
LOAD build/py/objattrtuple.o
LOAD build/py/objbool.o
LOAD build/py/objboundmeth.o
LOAD build/py/objcell.o
LOAD build/py/objclosure.o
LOAD build/py/objcomplex.o
LOAD build/py/objdeque.o
LOAD build/py/objdict.o
LOAD build/py/objenumerate.o
LOAD build/py/objexcept.o
LOAD build/py/objfilter.o
LOAD build/py/objfloat.o
LOAD build/py/objfun.o
LOAD build/py/objgenerator.o
LOAD build/py/objgetitemiter.o
LOAD build/py/objint.o
LOAD build/py/objint_longlong.o
LOAD build/py/objint_mpz.o
LOAD build/py/objlist.o
LOAD build/py/objmap.o
LOAD build/py/objmodule.o
LOAD build/py/objobject.o
LOAD build/py/objpolyiter.o
LOAD build/py/objproperty.o
LOAD build/py/objnone.o
LOAD build/py/objnamedtuple.o
LOAD build/py/objrange.o
LOAD build/py/objreversed.o
LOAD build/py/objset.o
LOAD build/py/objsingleton.o
LOAD build/py/objslice.o
LOAD build/py/objstr.o
LOAD build/py/objstrunicode.o
LOAD build/py/objstringio.o
LOAD build/py/objtuple.o
LOAD build/py/objtype.o
LOAD build/py/objzip.o
LOAD build/py/opmethods.o
LOAD build/py/sequence.o
LOAD build/py/stream.o
LOAD build/py/binary.o
LOAD build/py/builtinimport.o
LOAD build/py/builtinevex.o
LOAD build/py/builtinhelp.o
LOAD build/py/modarray.o
LOAD build/py/modbuiltins.o
LOAD build/py/modcollections.o
LOAD build/py/modgc.o
LOAD build/py/modio.o
LOAD build/py/modmath.o
LOAD build/py/modcmath.o
LOAD build/py/modmicropython.o
LOAD build/py/modstruct.o
LOAD build/py/modsys.o
LOAD build/py/moduerrno.o
LOAD build/py/modthread.o
LOAD build/py/vm.o
LOAD build/py/bc.o
LOAD build/py/showbc.o
LOAD build/py/repl.o
LOAD build/py/smallint.o
LOAD build/py/frozenmod.o
LOAD build/extmod/moductypes.o
LOAD build/extmod/modujson.o
LOAD build/extmod/modure.o
LOAD build/extmod/moduzlib.o
LOAD build/extmod/moduheapq.o
LOAD build/extmod/modutimeq.o
LOAD build/extmod/moduhashlib.o
LOAD build/extmod/moducryptolib.o
LOAD build/extmod/modubinascii.o
LOAD build/extmod/virtpin.o
LOAD build/extmod/machine_mem.o
LOAD build/extmod/machine_pinbase.o
LOAD build/extmod/machine_signal.o
LOAD build/extmod/machine_pulse.o
LOAD build/extmod/machine_i2c.o
LOAD build/extmod/machine_spi.o
LOAD build/extmod/modussl_axtls.o
LOAD build/extmod/modussl_mbedtls.o
LOAD build/extmod/modurandom.o
LOAD build/extmod/moduselect.o
LOAD build/extmod/modwebsocket.o
LOAD build/extmod/modwebrepl.o
LOAD build/extmod/modframebuf.o
LOAD build/extmod/vfs.o
LOAD build/extmod/vfs_reader.o
LOAD build/extmod/vfs_posix.o
LOAD build/extmod/vfs_posix_file.o
LOAD build/extmod/vfs_fat.o
LOAD build/extmod/vfs_fat_diskio.o
LOAD build/extmod/vfs_fat_file.o
LOAD build/extmod/utime_mphal.o
LOAD build/extmod/uos_dupterm.o
LOAD build/lib/embed/abort_.o
LOAD build/lib/utils/printf.o
LOAD build/build/frozen.o
LOAD build/build/frozen_mpy.o
LOAD build/main.o
LOAD build/help.o
LOAD build/machine.o
LOAD build/mphalport.o
LOAD build/modmachine.o
LOAD build/moduos.o
LOAD build/modutime.o
LOAD build/modumsgpack.o
LOAD build/gccollect.o
LOAD build/openpie_vfs.o
LOAD build/msgpack.o
LOAD build/gchelper_m0.o
LOAD build/lib/mpack/mpack-common.o
LOAD build/lib/mpack/mpack-expect.o
LOAD build/lib/mpack/mpack-node.o
LOAD build/lib/mpack/mpack-platform.o
LOAD build/lib/mpack/mpack-reader.o
LOAD build/lib/mpack/mpack-writer.o
LOAD build/lib/utils/sys_stdio_mphal.o
LOAD build/lib/utils/stdout_helpers.o
LOAD build/lib/utils/interrupt_char.o
LOAD build/lib/utils/pyexec.o
LOAD build/lib/libc/string0.o
LOAD build/lib/mp-readline/readline.o
LOAD build/lib/libm/math.o
LOAD build/lib/libm/acoshf.o
LOAD build/lib/libm/asinfacosf.o
LOAD build/lib/libm/asinhf.o
LOAD build/lib/libm/atan2f.o
LOAD build/lib/libm/atanf.o
LOAD build/lib/libm/atanhf.o
LOAD build/lib/libm/ef_rem_pio2.o
LOAD build/lib/libm/ef_sqrt.o
LOAD build/lib/libm/erf_lgamma.o
LOAD build/lib/libm/fmodf.o
LOAD build/lib/libm/kf_cos.o
LOAD build/lib/libm/kf_rem_pio2.o
LOAD build/lib/libm/kf_sin.o
LOAD build/lib/libm/kf_tan.o
LOAD build/lib/libm/log1pf.o
LOAD build/lib/libm/nearbyintf.o
LOAD build/lib/libm/sf_cos.o
LOAD build/lib/libm/sf_erf.o
LOAD build/lib/libm/sf_frexp.o
LOAD build/lib/libm/sf_ldexp.o
LOAD build/lib/libm/sf_modf.o
LOAD build/lib/libm/sf_sin.o
LOAD build/lib/libm/sf_tan.o
LOAD build/lib/libm/wf_lgamma.o
LOAD build/lib/libm/wf_tgamma.o
LOAD /opt/gcc-arm-none-eabi-7-2018-q2-update/bin/../lib/gcc/arm-none-eabi/7.3.1/thumb/v6-m/libgcc.a
OUTPUT(build/firmware.elf elf32-littlearm)

.comment        0x0000000000000000       0x7f
 .comment       0x0000000000000000       0x7f build/py/mpstate.o
                                         0x80 (size before relaxing)
 .comment       0x000000000000007f       0x80 build/py/nlr.o
 .comment       0x000000000000007f       0x80 build/py/nlrthumb.o
 .comment       0x000000000000007f       0x80 build/py/malloc.o
 .comment       0x000000000000007f       0x80 build/py/gc.o
 .comment       0x000000000000007f       0x80 build/py/pystack.o
 .comment       0x000000000000007f       0x80 build/py/qstr.o
 .comment       0x000000000000007f       0x80 build/py/vstr.o
 .comment       0x000000000000007f       0x80 build/py/mpprint.o
 .comment       0x000000000000007f       0x80 build/py/unicode.o
 .comment       0x000000000000007f       0x80 build/py/mpz.o
 .comment       0x000000000000007f       0x80 build/py/reader.o
 .comment       0x000000000000007f       0x80 build/py/lexer.o
 .comment       0x000000000000007f       0x80 build/py/parse.o
 .comment       0x000000000000007f       0x80 build/py/scope.o
 .comment       0x000000000000007f       0x80 build/py/compile.o
 .comment       0x000000000000007f       0x80 build/py/emitcommon.o
 .comment       0x000000000000007f       0x80 build/py/emitbc.o
 .comment       0x000000000000007f       0x80 build/py/formatfloat.o
 .comment       0x000000000000007f       0x80 build/py/parsenumbase.o
 .comment       0x000000000000007f       0x80 build/py/parsenum.o
 .comment       0x000000000000007f       0x80 build/py/emitglue.o
 .comment       0x000000000000007f       0x80 build/py/persistentcode.o
 .comment       0x000000000000007f       0x80 build/py/runtime.o
 .comment       0x000000000000007f       0x80 build/py/runtime_utils.o
 .comment       0x000000000000007f       0x80 build/py/scheduler.o
 .comment       0x000000000000007f       0x80 build/py/stackctrl.o
 .comment       0x000000000000007f       0x80 build/py/argcheck.o
 .comment       0x000000000000007f       0x80 build/py/warning.o
 .comment       0x000000000000007f       0x80 build/py/map.o
 .comment       0x000000000000007f       0x80 build/py/obj.o
 .comment       0x000000000000007f       0x80 build/py/objarray.o
 .comment       0x000000000000007f       0x80 build/py/objattrtuple.o
 .comment       0x000000000000007f       0x80 build/py/objbool.o
 .comment       0x000000000000007f       0x80 build/py/objboundmeth.o
 .comment       0x000000000000007f       0x80 build/py/objcell.o
 .comment       0x000000000000007f       0x80 build/py/objclosure.o
 .comment       0x000000000000007f       0x80 build/py/objcomplex.o
 .comment       0x000000000000007f       0x80 build/py/objdeque.o
 .comment       0x000000000000007f       0x80 build/py/objdict.o
 .comment       0x000000000000007f       0x80 build/py/objenumerate.o
 .comment       0x000000000000007f       0x80 build/py/objexcept.o
 .comment       0x000000000000007f       0x80 build/py/objfilter.o
 .comment       0x000000000000007f       0x80 build/py/objfloat.o
 .comment       0x000000000000007f       0x80 build/py/objfun.o
 .comment       0x000000000000007f       0x80 build/py/objgenerator.o
 .comment       0x000000000000007f       0x80 build/py/objgetitemiter.o
 .comment       0x000000000000007f       0x80 build/py/objint.o
 .comment       0x000000000000007f       0x80 build/py/objint_mpz.o
 .comment       0x000000000000007f       0x80 build/py/objlist.o
 .comment       0x000000000000007f       0x80 build/py/objmap.o
 .comment       0x000000000000007f       0x80 build/py/objmodule.o
 .comment       0x000000000000007f       0x80 build/py/objobject.o
 .comment       0x000000000000007f       0x80 build/py/objpolyiter.o
 .comment       0x000000000000007f       0x80 build/py/objproperty.o
 .comment       0x000000000000007f       0x80 build/py/objnone.o
 .comment       0x000000000000007f       0x80 build/py/objnamedtuple.o
 .comment       0x000000000000007f       0x80 build/py/objrange.o
 .comment       0x000000000000007f       0x80 build/py/objreversed.o
 .comment       0x000000000000007f       0x80 build/py/objset.o
 .comment       0x000000000000007f       0x80 build/py/objsingleton.o
 .comment       0x000000000000007f       0x80 build/py/objslice.o
 .comment       0x000000000000007f       0x80 build/py/objstr.o
 .comment       0x000000000000007f       0x80 build/py/objstrunicode.o
 .comment       0x000000000000007f       0x80 build/py/objstringio.o
 .comment       0x000000000000007f       0x80 build/py/objtuple.o
 .comment       0x000000000000007f       0x80 build/py/objtype.o
 .comment       0x000000000000007f       0x80 build/py/objzip.o
 .comment       0x000000000000007f       0x80 build/py/opmethods.o
 .comment       0x000000000000007f       0x80 build/py/sequence.o
 .comment       0x000000000000007f       0x80 build/py/stream.o
 .comment       0x000000000000007f       0x80 build/py/binary.o
 .comment       0x000000000000007f       0x80 build/py/builtinimport.o
 .comment       0x000000000000007f       0x80 build/py/builtinevex.o
 .comment       0x000000000000007f       0x80 build/py/builtinhelp.o
 .comment       0x000000000000007f       0x80 build/py/modarray.o
 .comment       0x000000000000007f       0x80 build/py/modbuiltins.o
 .comment       0x000000000000007f       0x80 build/py/modcollections.o
 .comment       0x000000000000007f       0x80 build/py/modgc.o
 .comment       0x000000000000007f       0x80 build/py/modio.o
 .comment       0x000000000000007f       0x80 build/py/modmath.o
 .comment       0x000000000000007f       0x80 build/py/modcmath.o
 .comment       0x000000000000007f       0x80 build/py/modmicropython.o
 .comment       0x000000000000007f       0x80 build/py/modstruct.o
 .comment       0x000000000000007f       0x80 build/py/modsys.o
 .comment       0x000000000000007f       0x80 build/py/moduerrno.o
 .comment       0x000000000000007f       0x80 build/py/vm.o
 .comment       0x000000000000007f       0x80 build/py/bc.o
 .comment       0x000000000000007f       0x80 build/py/repl.o
 .comment       0x000000000000007f       0x80 build/py/smallint.o
 .comment       0x000000000000007f       0x80 build/py/frozenmod.o
 .comment       0x000000000000007f       0x80 build/extmod/moductypes.o
 .comment       0x000000000000007f       0x80 build/extmod/modujson.o
 .comment       0x000000000000007f       0x80 build/extmod/modure.o
 .comment       0x000000000000007f       0x80 build/extmod/moduzlib.o
 .comment       0x000000000000007f       0x80 build/extmod/moduheapq.o
 .comment       0x000000000000007f       0x80 build/extmod/modutimeq.o
 .comment       0x000000000000007f       0x80 build/extmod/moduhashlib.o
 .comment       0x000000000000007f       0x80 build/extmod/modubinascii.o
 .comment       0x000000000000007f       0x80 build/extmod/modurandom.o
 .comment       0x000000000000007f       0x80 build/extmod/vfs.o
 .comment       0x000000000000007f       0x80 build/extmod/vfs_reader.o
 .comment       0x000000000000007f       0x80 build/extmod/utime_mphal.o
 .comment       0x000000000000007f       0x80 build/lib/utils/printf.o
 .comment       0x000000000000007f       0x80 build/build/frozen.o
 .comment       0x000000000000007f       0x80 build/build/frozen_mpy.o
 .comment       0x000000000000007f       0x80 build/main.o
 .comment       0x000000000000007f       0x80 build/help.o
 .comment       0x000000000000007f       0x80 build/machine.o
 .comment       0x000000000000007f       0x80 build/mphalport.o
 .comment       0x000000000000007f       0x80 build/modmachine.o
 .comment       0x000000000000007f       0x80 build/moduos.o
 .comment       0x000000000000007f       0x80 build/modutime.o
 .comment       0x000000000000007f       0x80 build/modumsgpack.o
 .comment       0x000000000000007f       0x80 build/gccollect.o
 .comment       0x000000000000007f       0x80 build/openpie_vfs.o
 .comment       0x000000000000007f       0x80 build/msgpack.o
 .comment       0x000000000000007f       0x80 build/lib/mpack/mpack-common.o
 .comment       0x000000000000007f       0x80 build/lib/mpack/mpack-platform.o
 .comment       0x000000000000007f       0x80 build/lib/mpack/mpack-reader.o
 .comment       0x000000000000007f       0x80 build/lib/mpack/mpack-writer.o
 .comment       0x000000000000007f       0x80 build/lib/utils/sys_stdio_mphal.o
 .comment       0x000000000000007f       0x80 build/lib/utils/stdout_helpers.o
 .comment       0x000000000000007f       0x80 build/lib/utils/interrupt_char.o
 .comment       0x000000000000007f       0x80 build/lib/utils/pyexec.o
 .comment       0x000000000000007f       0x80 build/lib/libc/string0.o
 .comment       0x000000000000007f       0x80 build/lib/mp-readline/readline.o
 .comment       0x000000000000007f       0x80 build/lib/libm/math.o
 .comment       0x000000000000007f       0x80 build/lib/libm/acoshf.o
 .comment       0x000000000000007f       0x80 build/lib/libm/asinfacosf.o
 .comment       0x000000000000007f       0x80 build/lib/libm/asinhf.o
 .comment       0x000000000000007f       0x80 build/lib/libm/atan2f.o
 .comment       0x000000000000007f       0x80 build/lib/libm/atanf.o
 .comment       0x000000000000007f       0x80 build/lib/libm/atanhf.o
 .comment       0x000000000000007f       0x80 build/lib/libm/ef_rem_pio2.o
 .comment       0x000000000000007f       0x80 build/lib/libm/ef_sqrt.o
 .comment       0x000000000000007f       0x80 build/lib/libm/erf_lgamma.o
 .comment       0x000000000000007f       0x80 build/lib/libm/fmodf.o
 .comment       0x000000000000007f       0x80 build/lib/libm/kf_cos.o
 .comment       0x000000000000007f       0x80 build/lib/libm/kf_rem_pio2.o
 .comment       0x000000000000007f       0x80 build/lib/libm/kf_sin.o
 .comment       0x000000000000007f       0x80 build/lib/libm/kf_tan.o
 .comment       0x000000000000007f       0x80 build/lib/libm/log1pf.o
 .comment       0x000000000000007f       0x80 build/lib/libm/nearbyintf.o
 .comment       0x000000000000007f       0x80 build/lib/libm/sf_cos.o
 .comment       0x000000000000007f       0x80 build/lib/libm/sf_erf.o
 .comment       0x000000000000007f       0x80 build/lib/libm/sf_frexp.o
 .comment       0x000000000000007f       0x80 build/lib/libm/sf_ldexp.o
 .comment       0x000000000000007f       0x80 build/lib/libm/sf_modf.o
 .comment       0x000000000000007f       0x80 build/lib/libm/sf_sin.o
 .comment       0x000000000000007f       0x80 build/lib/libm/sf_tan.o
 .comment       0x000000000000007f       0x80 build/lib/libm/wf_lgamma.o
 .comment       0x000000000000007f       0x80 build/lib/libm/wf_tgamma.o

.debug_frame    0x0000000000000000      0x2f4
 .debug_frame   0x0000000000000000       0x20 /opt/gcc-arm-none-eabi-7-2018-q2-update/bin/../lib/gcc/arm-none-eabi/7.3.1/thumb/v6-m/libgcc.a(_udivsi3.o)
 .debug_frame   0x0000000000000020       0x20 /opt/gcc-arm-none-eabi-7-2018-q2-update/bin/../lib/gcc/arm-none-eabi/7.3.1/thumb/v6-m/libgcc.a(_divsi3.o)
 .debug_frame   0x0000000000000040       0x28 /opt/gcc-arm-none-eabi-7-2018-q2-update/bin/../lib/gcc/arm-none-eabi/7.3.1/thumb/v6-m/libgcc.a(_fixunssfsi.o)
 .debug_frame   0x0000000000000068       0x38 /opt/gcc-arm-none-eabi-7-2018-q2-update/bin/../lib/gcc/arm-none-eabi/7.3.1/thumb/v6-m/libgcc.a(addsf3.o)
 .debug_frame   0x00000000000000a0       0x3c /opt/gcc-arm-none-eabi-7-2018-q2-update/bin/../lib/gcc/arm-none-eabi/7.3.1/thumb/v6-m/libgcc.a(divsf3.o)
 .debug_frame   0x00000000000000dc       0x2c /opt/gcc-arm-none-eabi-7-2018-q2-update/bin/../lib/gcc/arm-none-eabi/7.3.1/thumb/v6-m/libgcc.a(eqsf2.o)
 .debug_frame   0x0000000000000108       0x2c /opt/gcc-arm-none-eabi-7-2018-q2-update/bin/../lib/gcc/arm-none-eabi/7.3.1/thumb/v6-m/libgcc.a(gesf2.o)
 .debug_frame   0x0000000000000134       0x2c /opt/gcc-arm-none-eabi-7-2018-q2-update/bin/../lib/gcc/arm-none-eabi/7.3.1/thumb/v6-m/libgcc.a(lesf2.o)
 .debug_frame   0x0000000000000160       0x3c /opt/gcc-arm-none-eabi-7-2018-q2-update/bin/../lib/gcc/arm-none-eabi/7.3.1/thumb/v6-m/libgcc.a(mulsf3.o)
 .debug_frame   0x000000000000019c       0x38 /opt/gcc-arm-none-eabi-7-2018-q2-update/bin/../lib/gcc/arm-none-eabi/7.3.1/thumb/v6-m/libgcc.a(subsf3.o)
 .debug_frame   0x00000000000001d4       0x20 /opt/gcc-arm-none-eabi-7-2018-q2-update/bin/../lib/gcc/arm-none-eabi/7.3.1/thumb/v6-m/libgcc.a(unordsf2.o)
 .debug_frame   0x00000000000001f4       0x20 /opt/gcc-arm-none-eabi-7-2018-q2-update/bin/../lib/gcc/arm-none-eabi/7.3.1/thumb/v6-m/libgcc.a(fixsfsi.o)
 .debug_frame   0x0000000000000214       0x2c /opt/gcc-arm-none-eabi-7-2018-q2-update/bin/../lib/gcc/arm-none-eabi/7.3.1/thumb/v6-m/libgcc.a(floatsisf.o)
 .debug_frame   0x0000000000000240       0x2c /opt/gcc-arm-none-eabi-7-2018-q2-update/bin/../lib/gcc/arm-none-eabi/7.3.1/thumb/v6-m/libgcc.a(floatunsisf.o)
 .debug_frame   0x000000000000026c       0x2c /opt/gcc-arm-none-eabi-7-2018-q2-update/bin/../lib/gcc/arm-none-eabi/7.3.1/thumb/v6-m/libgcc.a(floatsidf.o)
 .debug_frame   0x0000000000000298       0x2c /opt/gcc-arm-none-eabi-7-2018-q2-update/bin/../lib/gcc/arm-none-eabi/7.3.1/thumb/v6-m/libgcc.a(extendsfdf2.o)
 .debug_frame   0x00000000000002c4       0x30 /opt/gcc-arm-none-eabi-7-2018-q2-update/bin/../lib/gcc/arm-none-eabi/7.3.1/thumb/v6-m/libgcc.a(truncdfsf2.o)

Cross Reference Table

Symbol                                            File
Call_Handler                                      build/machine.o
Reset_Handler                                     build/machine.o
SVC_CALL_VFS                                      build/openpie_vfs.o
SVC_CALL_VFS_OUT                                  build/openpie_vfs.o
Signal_Handler                                    build/machine.o
__GI_vsnprintf                                    build/lib/utils/printf.o
__aeabi_cdcmpeq                                   /opt/gcc-arm-none-eabi-7-2018-q2-update/bin/../lib/gcc/arm-none-eabi/7.3.1/thumb/v6-m/libgcc.a(_arm_cmpdf2.o)
__aeabi_cdcmple                                   /opt/gcc-arm-none-eabi-7-2018-q2-update/bin/../lib/gcc/arm-none-eabi/7.3.1/thumb/v6-m/libgcc.a(_arm_cmpdf2.o)
__aeabi_cdrcmple                                  /opt/gcc-arm-none-eabi-7-2018-q2-update/bin/../lib/gcc/arm-none-eabi/7.3.1/thumb/v6-m/libgcc.a(_arm_cmpdf2.o)
__aeabi_cfcmpeq                                   /opt/gcc-arm-none-eabi-7-2018-q2-update/bin/../lib/gcc/arm-none-eabi/7.3.1/thumb/v6-m/libgcc.a(_arm_cmpsf2.o)
__aeabi_cfcmple                                   /opt/gcc-arm-none-eabi-7-2018-q2-update/bin/../lib/gcc/arm-none-eabi/7.3.1/thumb/v6-m/libgcc.a(_arm_cmpsf2.o)
__aeabi_cfrcmple                                  /opt/gcc-arm-none-eabi-7-2018-q2-update/bin/../lib/gcc/arm-none-eabi/7.3.1/thumb/v6-m/libgcc.a(_arm_cmpsf2.o)
__aeabi_d2f                                       /opt/gcc-arm-none-eabi-7-2018-q2-update/bin/../lib/gcc/arm-none-eabi/7.3.1/thumb/v6-m/libgcc.a(truncdfsf2.o)
                                                  /opt/gcc-arm-none-eabi-7-2018-q2-update/bin/../lib/gcc/arm-none-eabi/7.3.1/thumb/v6-m/libgcc.a(_floatundisf.o)
                                                  /opt/gcc-arm-none-eabi-7-2018-q2-update/bin/../lib/gcc/arm-none-eabi/7.3.1/thumb/v6-m/libgcc.a(_floatdisf.o)
                                                  build/lib/mpack/mpack-node.o
                                                  build/lib/mpack/mpack-expect.o
                                                  build/msgpack.o
                                                  build/extmod/moductypes.o
                                                  build/py/binary.o
                                                  build/py/mpprint.o
__aeabi_dadd                                      /opt/gcc-arm-none-eabi-7-2018-q2-update/bin/../lib/gcc/arm-none-eabi/7.3.1/thumb/v6-m/libgcc.a(adddf3.o)
                                                  /opt/gcc-arm-none-eabi-7-2018-q2-update/bin/../lib/gcc/arm-none-eabi/7.3.1/thumb/v6-m/libgcc.a(_floatundidf.o)
                                                  /opt/gcc-arm-none-eabi-7-2018-q2-update/bin/../lib/gcc/arm-none-eabi/7.3.1/thumb/v6-m/libgcc.a(_floatundisf.o)
                                                  /opt/gcc-arm-none-eabi-7-2018-q2-update/bin/../lib/gcc/arm-none-eabi/7.3.1/thumb/v6-m/libgcc.a(_floatdidf.o)
                                                  /opt/gcc-arm-none-eabi-7-2018-q2-update/bin/../lib/gcc/arm-none-eabi/7.3.1/thumb/v6-m/libgcc.a(_floatdisf.o)
__aeabi_dcmpeq                                    /opt/gcc-arm-none-eabi-7-2018-q2-update/bin/../lib/gcc/arm-none-eabi/7.3.1/thumb/v6-m/libgcc.a(_arm_cmpdf2.o)
__aeabi_dcmpge                                    /opt/gcc-arm-none-eabi-7-2018-q2-update/bin/../lib/gcc/arm-none-eabi/7.3.1/thumb/v6-m/libgcc.a(_arm_cmpdf2.o)
__aeabi_dcmpgt                                    /opt/gcc-arm-none-eabi-7-2018-q2-update/bin/../lib/gcc/arm-none-eabi/7.3.1/thumb/v6-m/libgcc.a(_arm_cmpdf2.o)
                                                  build/lib/mpack/mpack-expect.o
__aeabi_dcmple                                    /opt/gcc-arm-none-eabi-7-2018-q2-update/bin/../lib/gcc/arm-none-eabi/7.3.1/thumb/v6-m/libgcc.a(_arm_cmpdf2.o)
__aeabi_dcmplt                                    /opt/gcc-arm-none-eabi-7-2018-q2-update/bin/../lib/gcc/arm-none-eabi/7.3.1/thumb/v6-m/libgcc.a(_arm_cmpdf2.o)
                                                  build/lib/mpack/mpack-expect.o
__aeabi_dmul                                      /opt/gcc-arm-none-eabi-7-2018-q2-update/bin/../lib/gcc/arm-none-eabi/7.3.1/thumb/v6-m/libgcc.a(muldf3.o)
                                                  /opt/gcc-arm-none-eabi-7-2018-q2-update/bin/../lib/gcc/arm-none-eabi/7.3.1/thumb/v6-m/libgcc.a(_floatundidf.o)
                                                  /opt/gcc-arm-none-eabi-7-2018-q2-update/bin/../lib/gcc/arm-none-eabi/7.3.1/thumb/v6-m/libgcc.a(_floatundisf.o)
                                                  /opt/gcc-arm-none-eabi-7-2018-q2-update/bin/../lib/gcc/arm-none-eabi/7.3.1/thumb/v6-m/libgcc.a(_floatdidf.o)
                                                  /opt/gcc-arm-none-eabi-7-2018-q2-update/bin/../lib/gcc/arm-none-eabi/7.3.1/thumb/v6-m/libgcc.a(_floatdisf.o)
__aeabi_f2d                                       /opt/gcc-arm-none-eabi-7-2018-q2-update/bin/../lib/gcc/arm-none-eabi/7.3.1/thumb/v6-m/libgcc.a(extendsfdf2.o)
                                                  build/lib/mpack/mpack-node.o
                                                  build/lib/mpack/mpack-expect.o
                                                  build/extmod/moductypes.o
                                                  build/py/binary.o
__aeabi_f2iz                                      /opt/gcc-arm-none-eabi-7-2018-q2-update/bin/../lib/gcc/arm-none-eabi/7.3.1/thumb/v6-m/libgcc.a(fixsfsi.o)
                                                  /opt/gcc-arm-none-eabi-7-2018-q2-update/bin/../lib/gcc/arm-none-eabi/7.3.1/thumb/v6-m/libgcc.a(_fixunssfsi.o)
                                                  build/lib/libm/kf_tan.o
                                                  build/lib/libm/kf_sin.o
                                                  build/lib/libm/kf_rem_pio2.o
                                                  build/lib/libm/kf_cos.o
                                                  build/lib/libm/erf_lgamma.o
                                                  build/lib/libm/ef_rem_pio2.o
                                                  build/lib/libm/math.o
                                                  build/py/objint.o
                                                  build/py/formatfloat.o
__aeabi_f2uiz                                     /opt/gcc-arm-none-eabi-7-2018-q2-update/bin/../lib/gcc/arm-none-eabi/7.3.1/thumb/v6-m/libgcc.a(_fixunssfsi.o)
                                                  build/extmod/utime_mphal.o
__aeabi_fadd                                      /opt/gcc-arm-none-eabi-7-2018-q2-update/bin/../lib/gcc/arm-none-eabi/7.3.1/thumb/v6-m/libgcc.a(addsf3.o)
                                                  build/lib/libm/wf_tgamma.o
                                                  build/lib/libm/sf_erf.o
                                                  build/lib/libm/nearbyintf.o
                                                  build/lib/libm/log1pf.o
                                                  build/lib/libm/kf_tan.o
                                                  build/lib/libm/kf_sin.o
                                                  build/lib/libm/kf_rem_pio2.o
                                                  build/lib/libm/kf_cos.o
                                                  build/lib/libm/erf_lgamma.o
                                                  build/lib/libm/ef_sqrt.o
                                                  build/lib/libm/ef_rem_pio2.o
                                                  build/lib/libm/atanhf.o
                                                  build/lib/libm/atanf.o
                                                  build/lib/libm/atan2f.o
                                                  build/lib/libm/asinhf.o
                                                  build/lib/libm/asinfacosf.o
                                                  build/lib/libm/acoshf.o
                                                  build/lib/libm/math.o
                                                  build/extmod/modurandom.o
                                                  build/py/modcmath.o
                                                  build/py/objfloat.o
                                                  build/py/objcomplex.o
                                                  build/py/parsenum.o
                                                  build/py/mpz.o
__aeabi_fcmpeq                                    /opt/gcc-arm-none-eabi-7-2018-q2-update/bin/../lib/gcc/arm-none-eabi/7.3.1/thumb/v6-m/libgcc.a(_arm_cmpsf2.o)
                                                  build/lib/libm/sf_ldexp.o
                                                  build/lib/libm/nearbyintf.o
                                                  build/lib/libm/log1pf.o
                                                  build/lib/libm/kf_rem_pio2.o
                                                  build/lib/libm/erf_lgamma.o
                                                  build/lib/libm/ef_rem_pio2.o
                                                  build/py/modmath.o
                                                  build/py/objfloat.o
                                                  build/py/objcomplex.o
__aeabi_fcmpge                                    /opt/gcc-arm-none-eabi-7-2018-q2-update/bin/../lib/gcc/arm-none-eabi/7.3.1/thumb/v6-m/libgcc.a(_arm_cmpsf2.o)
                                                  /opt/gcc-arm-none-eabi-7-2018-q2-update/bin/../lib/gcc/arm-none-eabi/7.3.1/thumb/v6-m/libgcc.a(_fixunssfsi.o)
                                                  build/lib/libm/kf_rem_pio2.o
                                                  build/lib/libm/math.o
                                                  build/py/objfloat.o
                                                  build/py/objcomplex.o
                                                  build/py/formatfloat.o
__aeabi_fcmpgt                                    /opt/gcc-arm-none-eabi-7-2018-q2-update/bin/../lib/gcc/arm-none-eabi/7.3.1/thumb/v6-m/libgcc.a(_arm_cmpsf2.o)
                                                  build/lib/libm/wf_tgamma.o
                                                  build/lib/libm/sf_ldexp.o
                                                  build/lib/libm/math.o
                                                  build/lib/mpack/mpack-expect.o
                                                  build/py/modmath.o
                                                  build/py/objint.o
                                                  build/py/objfloat.o
                                                  build/py/formatfloat.o
__aeabi_fcmple                                    /opt/gcc-arm-none-eabi-7-2018-q2-update/bin/../lib/gcc/arm-none-eabi/7.3.1/thumb/v6-m/libgcc.a(_arm_cmpsf2.o)
                                                  build/py/modmath.o
                                                  build/py/objfloat.o
                                                  build/py/formatfloat.o
__aeabi_fcmplt                                    /opt/gcc-arm-none-eabi-7-2018-q2-update/bin/../lib/gcc/arm-none-eabi/7.3.1/thumb/v6-m/libgcc.a(_arm_cmpsf2.o)
                                                  build/lib/libm/erf_lgamma.o
                                                  build/lib/libm/math.o
                                                  build/lib/mpack/mpack-expect.o
                                                  build/py/objfloat.o
                                                  build/py/parsenum.o
__aeabi_fcmpun                                    /opt/gcc-arm-none-eabi-7-2018-q2-update/bin/../lib/gcc/arm-none-eabi/7.3.1/thumb/v6-m/libgcc.a(unordsf2.o)
                                                  build/lib/libm/wf_tgamma.o
                                                  build/lib/libm/sf_ldexp.o
                                                  build/lib/libm/fmodf.o
                                                  build/lib/libm/atanf.o
                                                  build/lib/libm/atan2f.o
                                                  build/py/modmath.o
                                                  build/py/objint.o
                                                  build/py/objfloat.o
                                                  build/py/objcomplex.o
                                                  build/py/formatfloat.o
__aeabi_fdiv                                      /opt/gcc-arm-none-eabi-7-2018-q2-update/bin/../lib/gcc/arm-none-eabi/7.3.1/thumb/v6-m/libgcc.a(divsf3.o)
                                                  build/lib/libm/sf_erf.o
                                                  build/lib/libm/log1pf.o
                                                  build/lib/libm/kf_tan.o
                                                  build/lib/libm/fmodf.o
                                                  build/lib/libm/erf_lgamma.o
                                                  build/lib/libm/ef_sqrt.o
                                                  build/lib/libm/atanhf.o
                                                  build/lib/libm/atanf.o
                                                  build/lib/libm/atan2f.o
                                                  build/lib/libm/asinhf.o
                                                  build/lib/libm/asinfacosf.o
                                                  build/lib/libm/acoshf.o
                                                  build/lib/libm/math.o
                                                  build/py/modmath.o
                                                  build/py/modbuiltins.o
                                                  build/py/objint_mpz.o
                                                  build/py/objfloat.o
                                                  build/py/objcomplex.o
                                                  build/py/runtime.o
                                                  build/py/parsenum.o
__aeabi_fmul                                      /opt/gcc-arm-none-eabi-7-2018-q2-update/bin/../lib/gcc/arm-none-eabi/7.3.1/thumb/v6-m/libgcc.a(mulsf3.o)
                                                  build/lib/libm/sf_frexp.o
                                                  build/lib/libm/sf_erf.o
                                                  build/lib/libm/log1pf.o
                                                  build/lib/libm/kf_tan.o
                                                  build/lib/libm/kf_sin.o
                                                  build/lib/libm/kf_rem_pio2.o
                                                  build/lib/libm/kf_cos.o
                                                  build/lib/libm/fmodf.o
                                                  build/lib/libm/erf_lgamma.o
                                                  build/lib/libm/ef_sqrt.o
                                                  build/lib/libm/ef_rem_pio2.o
                                                  build/lib/libm/atanhf.o
                                                  build/lib/libm/atanf.o
                                                  build/lib/libm/asinhf.o
                                                  build/lib/libm/asinfacosf.o
                                                  build/lib/libm/acoshf.o
                                                  build/lib/libm/math.o
                                                  build/extmod/utime_mphal.o
                                                  build/extmod/modurandom.o
                                                  build/py/modcmath.o
                                                  build/py/modmath.o
                                                  build/py/modbuiltins.o
                                                  build/py/objstr.o
                                                  build/py/objfloat.o
                                                  build/py/objcomplex.o
                                                  build/py/parsenum.o
                                                  build/py/formatfloat.o
                                                  build/py/mpz.o
__aeabi_fsub                                      /opt/gcc-arm-none-eabi-7-2018-q2-update/bin/../lib/gcc/arm-none-eabi/7.3.1/thumb/v6-m/libgcc.a(subsf3.o)
                                                  /opt/gcc-arm-none-eabi-7-2018-q2-update/bin/../lib/gcc/arm-none-eabi/7.3.1/thumb/v6-m/libgcc.a(_fixunssfsi.o)
                                                  build/lib/libm/sf_tan.o
                                                  build/lib/libm/sf_sin.o
                                                  build/lib/libm/sf_modf.o
                                                  build/lib/libm/sf_erf.o
                                                  build/lib/libm/sf_cos.o
                                                  build/lib/libm/nearbyintf.o
                                                  build/lib/libm/log1pf.o
                                                  build/lib/libm/kf_tan.o
                                                  build/lib/libm/kf_sin.o
                                                  build/lib/libm/kf_rem_pio2.o
                                                  build/lib/libm/kf_cos.o
                                                  build/lib/libm/erf_lgamma.o
                                                  build/lib/libm/ef_sqrt.o
                                                  build/lib/libm/ef_rem_pio2.o
                                                  build/lib/libm/atanhf.o
                                                  build/lib/libm/atanf.o
                                                  build/lib/libm/atan2f.o
                                                  build/lib/libm/asinfacosf.o
                                                  build/lib/libm/acoshf.o
                                                  build/lib/libm/math.o
                                                  build/extmod/modurandom.o
                                                  build/py/objfloat.o
                                                  build/py/objcomplex.o
                                                  build/py/formatfloat.o
__aeabi_i2d                                       /opt/gcc-arm-none-eabi-7-2018-q2-update/bin/../lib/gcc/arm-none-eabi/7.3.1/thumb/v6-m/libgcc.a(floatsidf.o)
                                                  /opt/gcc-arm-none-eabi-7-2018-q2-update/bin/../lib/gcc/arm-none-eabi/7.3.1/thumb/v6-m/libgcc.a(_floatdidf.o)
                                                  /opt/gcc-arm-none-eabi-7-2018-q2-update/bin/../lib/gcc/arm-none-eabi/7.3.1/thumb/v6-m/libgcc.a(_floatdisf.o)
                                                  build/py/binary.o
__aeabi_i2f                                       /opt/gcc-arm-none-eabi-7-2018-q2-update/bin/../lib/gcc/arm-none-eabi/7.3.1/thumb/v6-m/libgcc.a(floatsisf.o)
                                                  build/lib/libm/sf_erf.o
                                                  build/lib/libm/log1pf.o
                                                  build/lib/libm/kf_tan.o
                                                  build/lib/libm/kf_rem_pio2.o
                                                  build/lib/libm/erf_lgamma.o
                                                  build/lib/libm/ef_rem_pio2.o
                                                  build/lib/libm/math.o
                                                  build/py/modbuiltins.o
                                                  build/py/binary.o
                                                  build/py/obj.o
                                                  build/py/runtime.o
                                                  build/py/parsenum.o
                                                  build/py/formatfloat.o
                                                  build/py/mpz.o
__aeabi_idiv                                      /opt/gcc-arm-none-eabi-7-2018-q2-update/bin/../lib/gcc/arm-none-eabi/7.3.1/thumb/v6-m/libgcc.a(_divsi3.o)
                                                  build/extmod/modurandom.o
                                                  build/py/smallint.o
                                                  build/py/objrange.o
                                                  build/py/formatfloat.o
__aeabi_idiv0                                     /opt/gcc-arm-none-eabi-7-2018-q2-update/bin/../lib/gcc/arm-none-eabi/7.3.1/thumb/v6-m/libgcc.a(_dvmd_tls.o)
                                                  /opt/gcc-arm-none-eabi-7-2018-q2-update/bin/../lib/gcc/arm-none-eabi/7.3.1/thumb/v6-m/libgcc.a(_divsi3.o)
                                                  /opt/gcc-arm-none-eabi-7-2018-q2-update/bin/../lib/gcc/arm-none-eabi/7.3.1/thumb/v6-m/libgcc.a(_udivsi3.o)
__aeabi_idivmod                                   /opt/gcc-arm-none-eabi-7-2018-q2-update/bin/../lib/gcc/arm-none-eabi/7.3.1/thumb/v6-m/libgcc.a(_divsi3.o)
                                                  build/extmod/moduzlib.o
                                                  build/py/smallint.o
                                                  build/py/formatfloat.o
__aeabi_l2d                                       /opt/gcc-arm-none-eabi-7-2018-q2-update/bin/../lib/gcc/arm-none-eabi/7.3.1/thumb/v6-m/libgcc.a(_floatdidf.o)
                                                  build/lib/mpack/mpack-node.o
                                                  build/lib/mpack/mpack-expect.o
__aeabi_l2f                                       /opt/gcc-arm-none-eabi-7-2018-q2-update/bin/../lib/gcc/arm-none-eabi/7.3.1/thumb/v6-m/libgcc.a(_floatdisf.o)
                                                  build/lib/mpack/mpack-node.o
                                                  build/lib/mpack/mpack-expect.o
__aeabi_ldiv0                                     /opt/gcc-arm-none-eabi-7-2018-q2-update/bin/../lib/gcc/arm-none-eabi/7.3.1/thumb/v6-m/libgcc.a(_dvmd_tls.o)
__aeabi_ui2d                                      /opt/gcc-arm-none-eabi-7-2018-q2-update/bin/../lib/gcc/arm-none-eabi/7.3.1/thumb/v6-m/libgcc.a(floatunsidf.o)
                                                  /opt/gcc-arm-none-eabi-7-2018-q2-update/bin/../lib/gcc/arm-none-eabi/7.3.1/thumb/v6-m/libgcc.a(_floatundidf.o)
                                                  /opt/gcc-arm-none-eabi-7-2018-q2-update/bin/../lib/gcc/arm-none-eabi/7.3.1/thumb/v6-m/libgcc.a(_floatundisf.o)
                                                  /opt/gcc-arm-none-eabi-7-2018-q2-update/bin/../lib/gcc/arm-none-eabi/7.3.1/thumb/v6-m/libgcc.a(_floatdidf.o)
                                                  /opt/gcc-arm-none-eabi-7-2018-q2-update/bin/../lib/gcc/arm-none-eabi/7.3.1/thumb/v6-m/libgcc.a(_floatdisf.o)
__aeabi_ui2f                                      /opt/gcc-arm-none-eabi-7-2018-q2-update/bin/../lib/gcc/arm-none-eabi/7.3.1/thumb/v6-m/libgcc.a(floatunsisf.o)
                                                  build/lib/libm/sf_erf.o
                                                  build/py/parsenum.o
__aeabi_uidiv                                     /opt/gcc-arm-none-eabi-7-2018-q2-update/bin/../lib/gcc/arm-none-eabi/7.3.1/thumb/v6-m/libgcc.a(_udivsi3.o)
                                                  build/extmod/modubinascii.o
                                                  build/py/objint.o
                                                  build/py/objarray.o
                                                  build/py/mpz.o
                                                  build/py/gc.o
__aeabi_uidivmod                                  /opt/gcc-arm-none-eabi-7-2018-q2-update/bin/../lib/gcc/arm-none-eabi/7.3.1/thumb/v6-m/libgcc.a(_udivsi3.o)
                                                  build/extmod/moduzlib.o
                                                  build/py/objint.o
                                                  build/py/map.o
                                                  build/py/mpz.o
                                                  build/py/mpprint.o
__aeabi_ul2d                                      /opt/gcc-arm-none-eabi-7-2018-q2-update/bin/../lib/gcc/arm-none-eabi/7.3.1/thumb/v6-m/libgcc.a(_floatundidf.o)
                                                  build/lib/mpack/mpack-node.o
                                                  build/lib/mpack/mpack-expect.o
__aeabi_ul2f                                      /opt/gcc-arm-none-eabi-7-2018-q2-update/bin/../lib/gcc/arm-none-eabi/7.3.1/thumb/v6-m/libgcc.a(_floatundisf.o)
                                                  build/lib/mpack/mpack-node.o
                                                  build/lib/mpack/mpack-expect.o
__clzsi2                                          /opt/gcc-arm-none-eabi-7-2018-q2-update/bin/../lib/gcc/arm-none-eabi/7.3.1/thumb/v6-m/libgcc.a(_clzsi2.o)
                                                  /opt/gcc-arm-none-eabi-7-2018-q2-update/bin/../lib/gcc/arm-none-eabi/7.3.1/thumb/v6-m/libgcc.a(extendsfdf2.o)
                                                  /opt/gcc-arm-none-eabi-7-2018-q2-update/bin/../lib/gcc/arm-none-eabi/7.3.1/thumb/v6-m/libgcc.a(floatunsidf.o)
                                                  /opt/gcc-arm-none-eabi-7-2018-q2-update/bin/../lib/gcc/arm-none-eabi/7.3.1/thumb/v6-m/libgcc.a(floatsidf.o)
                                                  /opt/gcc-arm-none-eabi-7-2018-q2-update/bin/../lib/gcc/arm-none-eabi/7.3.1/thumb/v6-m/libgcc.a(muldf3.o)
                                                  /opt/gcc-arm-none-eabi-7-2018-q2-update/bin/../lib/gcc/arm-none-eabi/7.3.1/thumb/v6-m/libgcc.a(adddf3.o)
                                                  /opt/gcc-arm-none-eabi-7-2018-q2-update/bin/../lib/gcc/arm-none-eabi/7.3.1/thumb/v6-m/libgcc.a(floatunsisf.o)
                                                  /opt/gcc-arm-none-eabi-7-2018-q2-update/bin/../lib/gcc/arm-none-eabi/7.3.1/thumb/v6-m/libgcc.a(floatsisf.o)
                                                  /opt/gcc-arm-none-eabi-7-2018-q2-update/bin/../lib/gcc/arm-none-eabi/7.3.1/thumb/v6-m/libgcc.a(subsf3.o)
                                                  /opt/gcc-arm-none-eabi-7-2018-q2-update/bin/../lib/gcc/arm-none-eabi/7.3.1/thumb/v6-m/libgcc.a(mulsf3.o)
                                                  /opt/gcc-arm-none-eabi-7-2018-q2-update/bin/../lib/gcc/arm-none-eabi/7.3.1/thumb/v6-m/libgcc.a(divsf3.o)
                                                  /opt/gcc-arm-none-eabi-7-2018-q2-update/bin/../lib/gcc/arm-none-eabi/7.3.1/thumb/v6-m/libgcc.a(addsf3.o)
__divsi3                                          /opt/gcc-arm-none-eabi-7-2018-q2-update/bin/../lib/gcc/arm-none-eabi/7.3.1/thumb/v6-m/libgcc.a(_divsi3.o)
__eqdf2                                           /opt/gcc-arm-none-eabi-7-2018-q2-update/bin/../lib/gcc/arm-none-eabi/7.3.1/thumb/v6-m/libgcc.a(eqdf2.o)
                                                  /opt/gcc-arm-none-eabi-7-2018-q2-update/bin/../lib/gcc/arm-none-eabi/7.3.1/thumb/v6-m/libgcc.a(_arm_cmpdf2.o)
__eqsf2                                           /opt/gcc-arm-none-eabi-7-2018-q2-update/bin/../lib/gcc/arm-none-eabi/7.3.1/thumb/v6-m/libgcc.a(eqsf2.o)
                                                  /opt/gcc-arm-none-eabi-7-2018-q2-update/bin/../lib/gcc/arm-none-eabi/7.3.1/thumb/v6-m/libgcc.a(_arm_cmpsf2.o)
__expo2f                                          build/lib/libm/math.o
__fatal_error                                     build/machine.o
                                                  build/modmachine.o
                                                  build/main.o
__fixunssfsi                                      /opt/gcc-arm-none-eabi-7-2018-q2-update/bin/../lib/gcc/arm-none-eabi/7.3.1/thumb/v6-m/libgcc.a(_fixunssfsi.o)
__floatdidf                                       /opt/gcc-arm-none-eabi-7-2018-q2-update/bin/../lib/gcc/arm-none-eabi/7.3.1/thumb/v6-m/libgcc.a(_floatdidf.o)
__floatdisf                                       /opt/gcc-arm-none-eabi-7-2018-q2-update/bin/../lib/gcc/arm-none-eabi/7.3.1/thumb/v6-m/libgcc.a(_floatdisf.o)
__floatundidf                                     /opt/gcc-arm-none-eabi-7-2018-q2-update/bin/../lib/gcc/arm-none-eabi/7.3.1/thumb/v6-m/libgcc.a(_floatundidf.o)
__floatundisf                                     /opt/gcc-arm-none-eabi-7-2018-q2-update/bin/../lib/gcc/arm-none-eabi/7.3.1/thumb/v6-m/libgcc.a(_floatundisf.o)
__fpclassifyf                                     build/lib/libm/math.o
__gedf2                                           /opt/gcc-arm-none-eabi-7-2018-q2-update/bin/../lib/gcc/arm-none-eabi/7.3.1/thumb/v6-m/libgcc.a(gedf2.o)
                                                  /opt/gcc-arm-none-eabi-7-2018-q2-update/bin/../lib/gcc/arm-none-eabi/7.3.1/thumb/v6-m/libgcc.a(_arm_cmpdf2.o)
__gesf2                                           /opt/gcc-arm-none-eabi-7-2018-q2-update/bin/../lib/gcc/arm-none-eabi/7.3.1/thumb/v6-m/libgcc.a(gesf2.o)
                                                  /opt/gcc-arm-none-eabi-7-2018-q2-update/bin/../lib/gcc/arm-none-eabi/7.3.1/thumb/v6-m/libgcc.a(_arm_cmpsf2.o)
__gtdf2                                           /opt/gcc-arm-none-eabi-7-2018-q2-update/bin/../lib/gcc/arm-none-eabi/7.3.1/thumb/v6-m/libgcc.a(gedf2.o)
__gtsf2                                           /opt/gcc-arm-none-eabi-7-2018-q2-update/bin/../lib/gcc/arm-none-eabi/7.3.1/thumb/v6-m/libgcc.a(gesf2.o)
__ieee754_lgammaf_r                               build/lib/libm/erf_lgamma.o
                                                  build/lib/libm/wf_tgamma.o
                                                  build/lib/libm/wf_lgamma.o
__ieee754_rem_pio2f                               build/lib/libm/ef_rem_pio2.o
                                                  build/lib/libm/sf_tan.o
                                                  build/lib/libm/sf_sin.o
                                                  build/lib/libm/sf_cos.o
__kernel_cosf                                     build/lib/libm/kf_cos.o
                                                  build/lib/libm/sf_sin.o
                                                  build/lib/libm/sf_cos.o
                                                  build/lib/libm/erf_lgamma.o
__kernel_rem_pio2f                                build/lib/libm/kf_rem_pio2.o
                                                  build/lib/libm/ef_rem_pio2.o
__kernel_sinf                                     build/lib/libm/kf_sin.o
                                                  build/lib/libm/sf_sin.o
                                                  build/lib/libm/sf_cos.o
                                                  build/lib/libm/erf_lgamma.o
__kernel_tanf                                     build/lib/libm/kf_tan.o
                                                  build/lib/libm/sf_tan.o
__ledf2                                           /opt/gcc-arm-none-eabi-7-2018-q2-update/bin/../lib/gcc/arm-none-eabi/7.3.1/thumb/v6-m/libgcc.a(ledf2.o)
                                                  /opt/gcc-arm-none-eabi-7-2018-q2-update/bin/../lib/gcc/arm-none-eabi/7.3.1/thumb/v6-m/libgcc.a(_arm_cmpdf2.o)
__lesf2                                           /opt/gcc-arm-none-eabi-7-2018-q2-update/bin/../lib/gcc/arm-none-eabi/7.3.1/thumb/v6-m/libgcc.a(lesf2.o)
                                                  /opt/gcc-arm-none-eabi-7-2018-q2-update/bin/../lib/gcc/arm-none-eabi/7.3.1/thumb/v6-m/libgcc.a(_arm_cmpsf2.o)
__ltdf2                                           /opt/gcc-arm-none-eabi-7-2018-q2-update/bin/../lib/gcc/arm-none-eabi/7.3.1/thumb/v6-m/libgcc.a(ledf2.o)
__ltsf2                                           /opt/gcc-arm-none-eabi-7-2018-q2-update/bin/../lib/gcc/arm-none-eabi/7.3.1/thumb/v6-m/libgcc.a(lesf2.o)
__nedf2                                           /opt/gcc-arm-none-eabi-7-2018-q2-update/bin/../lib/gcc/arm-none-eabi/7.3.1/thumb/v6-m/libgcc.a(eqdf2.o)
__nesf2                                           /opt/gcc-arm-none-eabi-7-2018-q2-update/bin/../lib/gcc/arm-none-eabi/7.3.1/thumb/v6-m/libgcc.a(eqsf2.o)
__signbitf                                        build/lib/libm/math.o
__udivsi3                                         /opt/gcc-arm-none-eabi-7-2018-q2-update/bin/../lib/gcc/arm-none-eabi/7.3.1/thumb/v6-m/libgcc.a(_udivsi3.o)
_ebss                                             build/machine.o
                                                  build/main.o
_edata                                            build/machine.o
_estack                                           build/gccollect.o
                                                  build/machine.o
                                                  build/main.o
_exit                                             build/machine.o
_ram_end                                          build/main.o
_ram_start                                        build/main.o
_re1_5_classmatch                                 build/extmod/modure.o
_re1_5_namedclassmatch                            build/extmod/modure.o
_sbss                                             build/machine.o
_sdata                                            build/machine.o
_sidata                                           build/machine.o
_start                                            build/machine.o
_svec                                             build/machine.o
abort_                                            build/lib/embed/abort_.o
acosf                                             build/lib/libm/asinfacosf.o
                                                  build/py/modmath.o
acoshf                                            build/lib/libm/acoshf.o
                                                  build/py/modmath.o
asinf                                             build/lib/libm/asinfacosf.o
                                                  build/py/modmath.o
asinhf                                            build/lib/libm/asinhf.o
                                                  build/py/modmath.o
atan2f                                            build/lib/libm/atan2f.o
                                                  build/py/modcmath.o
                                                  build/py/modmath.o
                                                  build/py/objcomplex.o
atanf                                             build/lib/libm/atanf.o
                                                  build/lib/libm/atan2f.o
                                                  build/py/modmath.o
atanhf                                            build/lib/libm/atanhf.o
                                                  build/py/modmath.o
bytes_decode_obj                                  build/py/objstr.o
ceilf                                             build/lib/libm/math.o
                                                  build/py/modmath.o
clcidx                                            build/extmod/moduzlib.o
closure_type                                      build/py/objclosure.o
cosf                                              build/lib/libm/sf_cos.o
                                                  build/py/modcmath.o
                                                  build/py/modmath.o
                                                  build/py/objcomplex.o
coshf                                             build/lib/libm/math.o
                                                  build/py/modcmath.o
                                                  build/py/modmath.o
debug_print                                       build/main.o
debug_printer                                     build/main.o
dist_base                                         build/extmod/moduzlib.o
dist_bits                                         build/extmod/moduzlib.o
do_str                                            build/main.o
emit_bc_free                                      build/py/emitbc.o
                                                  build/py/compile.o
emit_bc_new                                       build/py/emitbc.o
                                                  build/py/compile.o
emit_bc_set_max_num_labels                        build/py/emitbc.o
                                                  build/py/compile.o
erfcf                                             build/lib/libm/sf_erf.o
                                                  build/py/modmath.o
erff                                              build/lib/libm/sf_erf.o
                                                  build/py/modmath.o
expf                                              build/lib/libm/math.o
                                                  build/lib/libm/wf_tgamma.o
                                                  build/lib/libm/sf_erf.o
                                                  build/py/modcmath.o
                                                  build/py/modmath.o
                                                  build/py/objcomplex.o
expm1f                                            build/lib/libm/math.o
                                                  build/py/modmath.o
find_subbytes                                     build/py/objstr.o
                                                  build/py/objarray.o
floorf                                            build/lib/libm/math.o
                                                  build/lib/libm/kf_rem_pio2.o
                                                  build/lib/libm/erf_lgamma.o
                                                  build/py/modmath.o
                                                  build/py/objfloat.o
fmodf                                             build/lib/libm/fmodf.o
                                                  build/py/modmath.o
                                                  build/py/objfloat.o
frexpf                                            build/lib/libm/sf_frexp.o
                                                  build/py/modmath.o
gc_alloc                                          build/py/gc.o
                                                  build/lib/mpack/mpack-writer.o
                                                  build/lib/mpack/mpack-reader.o
                                                  build/lib/mpack/mpack-node.o
                                                  build/lib/mpack/mpack-expect.o
                                                  build/msgpack.o
                                                  build/py/malloc.o
gc_collect                                        build/gccollect.o
                                                  build/lib/utils/pyexec.o
                                                  build/py/modgc.o
                                                  build/py/gc.o
gc_collect_end                                    build/py/gc.o
                                                  build/gccollect.o
gc_collect_obj                                    build/py/modgc.o
gc_collect_root                                   build/py/gc.o
                                                  build/gccollect.o
gc_collect_start                                  build/py/gc.o
                                                  build/gccollect.o
gc_disable_obj                                    build/py/modgc.o
gc_dump_alloc_table                               build/py/gc.o
                                                  build/py/modmicropython.o
gc_dump_info                                      build/py/gc.o
                                                  build/lib/utils/pyexec.o
                                                  build/py/modmicropython.o
gc_enable_obj                                     build/py/modgc.o
gc_free                                           build/py/gc.o
                                                  build/lib/mpack/mpack-writer.o
                                                  build/lib/mpack/mpack-reader.o
                                                  build/lib/mpack/mpack-node.o
                                                  build/lib/mpack/mpack-expect.o
                                                  build/py/malloc.o
gc_helper_get_regs_and_sp                         build/gchelper_m0.o
                                                  build/gccollect.o
gc_info                                           build/py/gc.o
                                                  build/py/modgc.o
gc_init                                           build/py/gc.o
                                                  build/main.o
gc_is_locked                                      build/py/gc.o
                                                  build/py/runtime.o
gc_isenabled_obj                                  build/py/modgc.o
gc_lock                                           build/py/gc.o
                                                  build/py/modmicropython.o
gc_mem_alloc_obj                                  build/py/modgc.o
gc_mem_free_obj                                   build/py/modgc.o
gc_nbytes                                         build/py/gc.o
                                                  build/py/qstr.o
gc_realloc                                        build/py/gc.o
                                                  build/lib/mpack/mpack-writer.o
                                                  build/lib/mpack/mpack-platform.o
                                                  build/lib/mpack/mpack-node.o
                                                  build/py/malloc.o
gc_sweep_all                                      build/py/gc.o
gc_threshold_obj                                  build/py/modgc.o
gc_unlock                                         build/py/gc.o
                                                  build/py/modmicropython.o
ldexpf                                            build/lib/libm/sf_ldexp.o
                                                  build/py/modmath.o
length_base                                       build/extmod/moduzlib.o
length_bits                                       build/extmod/moduzlib.o
lgammaf                                           build/lib/libm/wf_lgamma.o
                                                  build/py/modmath.o
log10f                                            build/lib/libm/math.o
                                                  build/py/modcmath.o
                                                  build/py/modmath.o
log1pf                                            build/lib/libm/log1pf.o
                                                  build/lib/libm/atanhf.o
                                                  build/lib/libm/asinhf.o
                                                  build/lib/libm/acoshf.o
log2f                                             build/py/modmath.o
logf                                              build/lib/libm/math.o
                                                  build/lib/libm/erf_lgamma.o
                                                  build/lib/libm/asinhf.o
                                                  build/lib/libm/acoshf.o
                                                  build/py/modcmath.o
                                                  build/py/modmath.o
                                                  build/py/objcomplex.o
m_free                                            build/py/malloc.o
                                                  build/extmod/vfs_reader.o
                                                  build/extmod/moduzlib.o
                                                  build/extmod/modure.o
                                                  build/py/objtype.o
                                                  build/py/objtuple.o
                                                  build/py/objset.o
                                                  build/py/objmap.o
                                                  build/py/objint.o
                                                  build/py/objclosure.o
                                                  build/py/map.o
                                                  build/py/persistentcode.o
                                                  build/py/emitbc.o
                                                  build/py/scope.o
                                                  build/py/parse.o
                                                  build/py/lexer.o
                                                  build/py/reader.o
                                                  build/py/mpz.o
                                                  build/py/mpprint.o
                                                  build/py/vstr.o
m_get_current_bytes_allocated                     build/py/malloc.o
                                                  build/py/modmicropython.o
m_get_peak_bytes_allocated                        build/py/malloc.o
                                                  build/py/modmicropython.o
m_get_total_bytes_allocated                       build/py/malloc.o
                                                  build/py/modmicropython.o
m_malloc                                          build/py/malloc.o
                                                  build/openpie_vfs.o
                                                  build/extmod/vfs_reader.o
                                                  build/extmod/vfs.o
                                                  build/extmod/machine_signal.o
                                                  build/extmod/moduhashlib.o
                                                  build/extmod/modutimeq.o
                                                  build/extmod/moduzlib.o
                                                  build/extmod/modure.o
                                                  build/extmod/moductypes.o
                                                  build/py/modio.o
                                                  build/py/builtinevex.o
                                                  build/py/objzip.o
                                                  build/py/objtype.o
                                                  build/py/objtuple.o
                                                  build/py/objstringio.o
                                                  build/py/objstr.o
                                                  build/py/objslice.o
                                                  build/py/objset.o
                                                  build/py/objreversed.o
                                                  build/py/objrange.o
                                                  build/py/objnamedtuple.o
                                                  build/py/objproperty.o
                                                  build/py/objobject.o
                                                  build/py/objmodule.o
                                                  build/py/objmap.o
                                                  build/py/objlist.o
                                                  build/py/objint_mpz.o
                                                  build/py/objint.o
                                                  build/py/objgenerator.o
                                                  build/py/objfun.o
                                                  build/py/objfloat.o
                                                  build/py/objfilter.o
                                                  build/py/objenumerate.o
                                                  build/py/objdict.o
                                                  build/py/objdeque.o
                                                  build/py/objcomplex.o
                                                  build/py/objclosure.o
                                                  build/py/objcell.o
                                                  build/py/objboundmeth.o
                                                  build/py/objattrtuple.o
                                                  build/py/objarray.o
                                                  build/py/runtime.o
                                                  build/py/persistentcode.o
                                                  build/py/emitbc.o
                                                  build/py/scope.o
                                                  build/py/parse.o
                                                  build/py/lexer.o
                                                  build/py/reader.o
                                                  build/py/mpz.o
                                                  build/py/vstr.o
m_malloc0                                         build/py/malloc.o
                                                  build/py/objtype.o
                                                  build/py/objdeque.o
                                                  build/py/map.o
                                                  build/py/emitglue.o
                                                  build/py/emitbc.o
                                                  build/py/scope.o
m_malloc_fail                                     build/py/runtime.o
                                                  build/py/qstr.o
                                                  build/py/malloc.o
m_malloc_maybe                                    build/py/malloc.o
                                                  build/lib/mp-readline/readline.o
                                                  build/py/objexcept.o
                                                  build/py/qstr.o
m_malloc_with_finaliser                           build/py/malloc.o
m_realloc                                         build/py/malloc.o
                                                  build/extmod/moduzlib.o
                                                  build/py/objtuple.o
                                                  build/py/objstr.o
                                                  build/py/objlist.o
                                                  build/py/objarray.o
                                                  build/py/map.o
                                                  build/py/scope.o
                                                  build/py/parse.o
                                                  build/py/lexer.o
                                                  build/py/mpz.o
                                                  build/py/vstr.o
m_realloc_maybe                                   build/py/malloc.o
                                                  build/py/objexcept.o
                                                  build/py/parse.o
                                                  build/py/qstr.o
machine_mem16_obj                                 build/extmod/machine_mem.o
machine_mem32_obj                                 build/extmod/machine_mem.o
machine_mem8_obj                                  build/extmod/machine_mem.o
machine_mem_type                                  build/extmod/machine_mem.o
machine_pinbase_type                              build/extmod/machine_pinbase.o
machine_signal_type                               build/extmod/machine_signal.o
main                                              build/main.o
                                                  build/machine.o
match_end_obj                                     build/extmod/modure.o
match_group_obj                                   build/extmod/modure.o
match_groups_obj                                  build/extmod/modure.o
match_span_obj                                    build/extmod/modure.o
match_start_obj                                   build/extmod/modure.o
memchr                                            build/lib/libc/string0.o
memcmp                                            build/lib/libc/string0.o
                                                  build/lib/mpack/mpack-node.o
                                                  build/lib/mpack/mpack-expect.o
                                                  build/lib/mpack/mpack-common.o
                                                  build/extmod/vfs.o
                                                  build/py/frozenmod.o
                                                  build/py/repl.o
                                                  build/py/sequence.o
                                                  build/py/objstr.o
                                                  build/py/qstr.o
memcpy                                            build/lib/libc/string0.o
                                                  build/lib/mp-readline/readline.o
                                                  build/lib/mpack/mpack-writer.o
                                                  build/lib/mpack/mpack-reader.o
                                                  build/lib/mpack/mpack-platform.o
                                                  build/lib/mpack/mpack-node.o
                                                  build/lib/mpack/mpack-expect.o
                                                  build/lib/utils/printf.o
                                                  build/extmod/vfs.o
                                                  build/py/modstruct.o
                                                  build/py/builtinimport.o
                                                  build/py/binary.o
                                                  build/py/sequence.o
                                                  build/py/objtype.o
                                                  build/py/objtuple.o
                                                  build/py/objstringio.o
                                                  build/py/objstr.o
                                                  build/py/objset.o
                                                  build/py/objnamedtuple.o
                                                  build/py/objlist.o
                                                  build/py/objfun.o
                                                  build/py/objexcept.o
                                                  build/py/objdict.o
                                                  build/py/objclosure.o
                                                  build/py/objboundmeth.o
                                                  build/py/objarray.o
                                                  build/py/runtime.o
                                                  build/py/compile.o
                                                  build/py/mpz.o
                                                  build/py/qstr.o
                                                  build/py/gc.o
memmove                                           build/lib/libc/string0.o
                                                  build/extmod/modure.o
                                                  build/py/objstr.o
                                                  build/py/objlist.o
                                                  build/py/objarray.o
                                                  build/py/map.o
                                                  build/py/vstr.o
memset                                            build/lib/libc/string0.o
                                                  build/lib/mp-readline/readline.o
                                                  build/lib/mpack/mpack-reader.o
                                                  build/lib/mpack/mpack-node.o
                                                  build/extmod/moduhashlib.o
                                                  build/extmod/modutimeq.o
                                                  build/extmod/moduzlib.o
                                                  build/extmod/modure.o
                                                  build/py/bc.o
                                                  build/py/modstruct.o
                                                  build/py/binary.o
                                                  build/py/objtype.o
                                                  build/py/objstringio.o
                                                  build/py/objstr.o
                                                  build/py/objnamedtuple.o
                                                  build/py/objlist.o
                                                  build/py/objint_mpz.o
                                                  build/py/objint.o
                                                  build/py/objarray.o
                                                  build/py/map.o
                                                  build/py/compile.o
                                                  build/py/mpz.o
                                                  build/py/gc.o
mod_binascii_a2b_base64                           build/extmod/modubinascii.o
mod_binascii_a2b_base64_obj                       build/extmod/modubinascii.o
mod_binascii_b2a_base64                           build/extmod/modubinascii.o
mod_binascii_b2a_base64_obj                       build/extmod/modubinascii.o
mod_binascii_crc32                                build/extmod/modubinascii.o
mod_binascii_crc32_obj                            build/extmod/modubinascii.o
mod_binascii_hexlify                              build/extmod/modubinascii.o
mod_binascii_hexlify_obj                          build/extmod/modubinascii.o
mod_binascii_unhexlify                            build/extmod/modubinascii.o
mod_binascii_unhexlify_obj                        build/extmod/modubinascii.o
mod_re_compile_obj                                build/extmod/modure.o
mod_re_match_obj                                  build/extmod/modure.o
mod_re_search_obj                                 build/extmod/modure.o
mod_re_sub_obj                                    build/extmod/modure.o
modff                                             build/lib/libm/sf_modf.o
                                                  build/py/modmath.o
mp_arg_check_num_sig                              build/py/argcheck.o
                                                  build/extmod/machine_signal.o
                                                  build/extmod/moduhashlib.o
                                                  build/extmod/modutimeq.o
                                                  build/extmod/moduzlib.o
                                                  build/extmod/moductypes.o
                                                  build/py/objzip.o
                                                  build/py/objtype.o
                                                  build/py/objtuple.o
                                                  build/py/objstr.o
                                                  build/py/objset.o
                                                  build/py/objreversed.o
                                                  build/py/objrange.o
                                                  build/py/objobject.o
                                                  build/py/objmap.o
                                                  build/py/objlist.o
                                                  build/py/objint.o
                                                  build/py/objfun.o
                                                  build/py/objfloat.o
                                                  build/py/objfilter.o
                                                  build/py/objexcept.o
                                                  build/py/objdict.o
                                                  build/py/objdeque.o
                                                  build/py/objcomplex.o
                                                  build/py/objbool.o
                                                  build/py/objarray.o
mp_arg_error_terse_mismatch                       build/py/argcheck.o
mp_arg_error_unimpl_kw                            build/py/argcheck.o
                                                  build/py/objstr.o
mp_arg_parse_all                                  build/py/argcheck.o
                                                  build/extmod/vfs.o
                                                  build/py/modbuiltins.o
                                                  build/py/objstr.o
                                                  build/py/objlist.o
mp_arg_parse_all_kw_array                         build/py/argcheck.o
                                                  build/openpie_vfs.o
                                                  build/py/objproperty.o
                                                  build/py/objenumerate.o
mp_binary_get_int                                 build/py/binary.o
                                                  build/extmod/moductypes.o
mp_binary_get_size                                build/py/binary.o
                                                  build/py/modstruct.o
                                                  build/py/objarray.o
mp_binary_get_val                                 build/py/binary.o
                                                  build/extmod/moductypes.o
                                                  build/py/modstruct.o
mp_binary_get_val_array                           build/py/binary.o
                                                  build/py/objarray.o
mp_binary_op                                      build/py/runtime.o
                                                  build/extmod/moduheapq.o
                                                  build/py/vm.o
                                                  build/py/modbuiltins.o
                                                  build/py/sequence.o
                                                  build/py/objtype.o
                                                  build/py/objlist.o
                                                  build/py/objint.o
                                                  build/py/objbool.o
                                                  build/py/parse.o
mp_binary_op_method_name                          build/py/objtype.o
                                                  build/py/runtime.o
mp_binary_set_int                                 build/py/binary.o
                                                  build/extmod/moductypes.o
                                                  build/py/objint.o
mp_binary_set_val                                 build/py/binary.o
                                                  build/extmod/moductypes.o
                                                  build/py/modstruct.o
mp_binary_set_val_array                           build/py/binary.o
                                                  build/py/objarray.o
mp_binary_set_val_array_from_int                  build/py/binary.o
mp_builtin___build_class___obj                    build/py/modbuiltins.o
                                                  build/py/runtime.o
mp_builtin___import__                             build/py/builtinimport.o
                                                  build/py/modio.o
                                                  build/py/runtime.o
mp_builtin___import___obj                         build/py/builtinimport.o
                                                  build/py/modbuiltins.o
mp_builtin___repl_print___obj                     build/py/modbuiltins.o
mp_builtin_abs_obj                                build/py/modbuiltins.o
mp_builtin_all_obj                                build/py/modbuiltins.o
mp_builtin_any_obj                                build/py/modbuiltins.o
mp_builtin_bin_obj                                build/py/modbuiltins.o
mp_builtin_callable_obj                           build/py/modbuiltins.o
mp_builtin_chr_obj                                build/py/modbuiltins.o
mp_builtin_compile_obj                            build/py/builtinevex.o
                                                  build/py/modbuiltins.o
mp_builtin_delattr_obj                            build/py/modbuiltins.o
mp_builtin_dir_obj                                build/py/modbuiltins.o
mp_builtin_divmod_obj                             build/py/modbuiltins.o
mp_builtin_eval_obj                               build/py/builtinevex.o
                                                  build/py/modbuiltins.o
mp_builtin_exec_obj                               build/py/builtinevex.o
                                                  build/py/modbuiltins.o
mp_builtin_execfile_obj                           build/py/builtinevex.o
                                                  build/py/modbuiltins.o
mp_builtin_getattr_obj                            build/py/modbuiltins.o
mp_builtin_globals_obj                            build/py/modbuiltins.o
mp_builtin_hasattr_obj                            build/py/modbuiltins.o
mp_builtin_hash_obj                               build/py/modbuiltins.o
mp_builtin_help_obj                               build/py/builtinhelp.o
                                                  build/py/modbuiltins.o
mp_builtin_hex_obj                                build/py/modbuiltins.o
mp_builtin_id_obj                                 build/py/modbuiltins.o
mp_builtin_isinstance_obj                         build/py/objtype.o
                                                  build/py/modbuiltins.o
mp_builtin_issubclass_obj                         build/py/objtype.o
                                                  build/py/modbuiltins.o
mp_builtin_iter_obj                               build/py/modbuiltins.o
mp_builtin_len_obj                                build/py/modbuiltins.o
mp_builtin_locals_obj                             build/py/modbuiltins.o
mp_builtin_max_obj                                build/py/modbuiltins.o
mp_builtin_min_obj                                build/py/modbuiltins.o
mp_builtin_module_map                             build/py/objmodule.o
                                                  build/py/builtinhelp.o
mp_builtin_module_weak_links_map                  build/py/objmodule.o
                                                  build/py/builtinhelp.o
                                                  build/py/builtinimport.o
mp_builtin_next_obj                               build/py/modbuiltins.o
                                                  build/py/runtime.o
mp_builtin_oct_obj                                build/py/modbuiltins.o
mp_builtin_ord_obj                                build/py/modbuiltins.o
mp_builtin_pow_obj                                build/py/modbuiltins.o
mp_builtin_print_obj                              build/py/modbuiltins.o
mp_builtin_repr_obj                               build/py/modbuiltins.o
mp_builtin_round_obj                              build/py/modbuiltins.o
mp_builtin_setattr_obj                            build/py/modbuiltins.o
mp_builtin_sorted_obj                             build/py/modbuiltins.o
mp_builtin_sum_obj                                build/py/modbuiltins.o
mp_call_function_0                                build/py/runtime.o
                                                  build/lib/utils/pyexec.o
                                                  build/modmachine.o
                                                  build/main.o
                                                  build/py/modbuiltins.o
                                                  build/py/builtinevex.o
                                                  build/py/builtinimport.o
mp_call_function_1                                build/py/runtime.o
                                                  build/extmod/modure.o
                                                  build/py/modbuiltins.o
                                                  build/py/objtype.o
                                                  build/py/objlist.o
                                                  build/py/runtime_utils.o
mp_call_function_1_protected                      build/py/runtime_utils.o
                                                  build/mphalport.o
                                                  build/py/scheduler.o
                                                  build/py/gc.o
mp_call_function_2                                build/py/runtime.o
                                                  build/py/runtime_utils.o
mp_call_function_2_protected                      build/py/runtime_utils.o
mp_call_function_n_kw                             build/py/runtime.o
                                                  build/py/vm.o
                                                  build/py/modbuiltins.o
                                                  build/py/objtype.o
                                                  build/py/objmap.o
                                                  build/py/objfilter.o
                                                  build/py/objclosure.o
                                                  build/py/objboundmeth.o
mp_call_method_n_kw                               build/py/runtime.o
                                                  build/extmod/vfs.o
                                                  build/extmod/machine_pinbase.o
                                                  build/py/vm.o
                                                  build/py/modbuiltins.o
                                                  build/py/objtype.o
                                                  build/py/objreversed.o
                                                  build/py/objmodule.o
                                                  build/py/objgetitemiter.o
mp_call_method_n_kw_var                           build/py/runtime.o
                                                  build/py/vm.o
mp_call_method_self_n_kw                          build/py/objboundmeth.o
                                                  build/py/objtype.o
mp_call_prepare_args_n_kw_var                     build/py/runtime.o
                                                  build/py/vm.o
mp_compile                                        build/py/compile.o
                                                  build/lib/utils/pyexec.o
                                                  build/modmachine.o
                                                  build/main.o
                                                  build/py/runtime.o
mp_const_GeneratorExit_obj                        build/py/objexcept.o
                                                  build/py/vm.o
                                                  build/py/objgenerator.o
mp_const_ellipsis_obj                             build/py/objsingleton.o
                                                  build/py/modbuiltins.o
                                                  build/py/persistentcode.o
                                                  build/py/emitbc.o
mp_const_empty_bytes_obj                          build/py/objstr.o
                                                  build/extmod/modubinascii.o
mp_const_empty_map                                build/py/map.o
                                                  build/extmod/vfs_reader.o
                                                  build/py/modio.o
                                                  build/py/builtinhelp.o
mp_const_empty_tuple_obj                          build/py/objtuple.o
                                                  build/extmod/modure.o
                                                  build/py/bc.o
                                                  build/py/objexcept.o
                                                  build/py/objdeque.o
                                                  build/py/runtime.o
mp_const_false_obj                                build/py/objbool.o
                                                  build/msgpack.o
                                                  build/modmachine.o
                                                  build/extmod/vfs.o
                                                  build/extmod/machine_pinbase.o
                                                  build/extmod/modutimeq.o
                                                  build/extmod/moduheapq.o
                                                  build/extmod/modujson.o
                                                  build/py/vm.o
                                                  build/py/modmath.o
                                                  build/py/modgc.o
                                                  build/py/modbuiltins.o
                                                  build/py/builtinimport.o
                                                  build/py/objtype.o
                                                  build/py/objtuple.o
                                                  build/py/objstrunicode.o
                                                  build/py/objstr.o
                                                  build/py/objset.o
                                                  build/py/objrange.o
                                                  build/py/objlist.o
                                                  build/py/objint_mpz.o
                                                  build/py/objint.o
                                                  build/py/objfloat.o
                                                  build/py/objdict.o
                                                  build/py/objdeque.o
                                                  build/py/objcomplex.o
                                                  build/py/objarray.o
                                                  build/py/obj.o
                                                  build/py/runtime.o
mp_const_float_e_obj                              build/py/objfloat.o
                                                  build/py/modcmath.o
                                                  build/py/modmath.o
mp_const_float_pi_obj                             build/py/objfloat.o
                                                  build/py/modcmath.o
                                                  build/py/modmath.o
mp_const_none_obj                                 build/py/objnone.o
                                                  build/lib/utils/pyexec.o
                                                  build/lib/utils/sys_stdio_mphal.o
                                                  build/msgpack.o
                                                  build/openpie_vfs.o
                                                  build/modmachine.o
                                                  build/machine.o
                                                  build/extmod/utime_mphal.o
                                                  build/extmod/vfs.o
                                                  build/extmod/modurandom.o
                                                  build/extmod/machine_signal.o
                                                  build/extmod/machine_mem.o
                                                  build/extmod/moduhashlib.o
                                                  build/extmod/modutimeq.o
                                                  build/extmod/moduheapq.o
                                                  build/extmod/modure.o
                                                  build/extmod/modujson.o
                                                  build/py/vm.o
                                                  build/py/modsys.o
                                                  build/py/modstruct.o
                                                  build/py/modmicropython.o
                                                  build/py/modio.o
                                                  build/py/modgc.o
                                                  build/py/modbuiltins.o
                                                  build/py/builtinhelp.o
                                                  build/py/builtinevex.o
                                                  build/py/builtinimport.o
                                                  build/py/stream.o
                                                  build/py/sequence.o
                                                  build/py/objtype.o
                                                  build/py/objstrunicode.o
                                                  build/py/objstr.o
                                                  build/py/objset.o
                                                  build/py/objproperty.o
                                                  build/py/objobject.o
                                                  build/py/objlist.o
                                                  build/py/objgenerator.o
                                                  build/py/objfilter.o
                                                  build/py/objexcept.o
                                                  build/py/objdict.o
                                                  build/py/objdeque.o
                                                  build/py/objarray.o
                                                  build/py/obj.o
                                                  build/py/runtime.o
                                                  build/py/compile.o
mp_const_notimplemented_obj                       build/py/objsingleton.o
                                                  build/py/modbuiltins.o
                                                  build/py/objtype.o
mp_const_true_obj                                 build/py/objbool.o
                                                  build/msgpack.o
                                                  build/modmachine.o
                                                  build/extmod/machine_pinbase.o
                                                  build/extmod/modutimeq.o
                                                  build/extmod/moduheapq.o
                                                  build/extmod/modujson.o
                                                  build/py/vm.o
                                                  build/py/modmath.o
                                                  build/py/modio.o
                                                  build/py/modgc.o
                                                  build/py/modbuiltins.o
                                                  build/py/sequence.o
                                                  build/py/objtype.o
                                                  build/py/objtuple.o
                                                  build/py/objstrunicode.o
                                                  build/py/objstr.o
                                                  build/py/objset.o
                                                  build/py/objrange.o
                                                  build/py/objlist.o
                                                  build/py/objint_mpz.o
                                                  build/py/objint.o
                                                  build/py/objfloat.o
                                                  build/py/objdict.o
                                                  build/py/objdeque.o
                                                  build/py/objcomplex.o
                                                  build/py/objarray.o
                                                  build/py/obj.o
                                                  build/py/runtime.o
mp_convert_member_lookup                          build/py/runtime.o
                                                  build/py/objtype.o
mp_decode_uint                                    build/py/bc.o
                                                  build/py/persistentcode.o
mp_decode_uint_skip                               build/py/bc.o
                                                  build/py/vm.o
                                                  build/py/objgenerator.o
                                                  build/py/objfun.o
mp_decode_uint_value                              build/py/bc.o
                                                  build/py/vm.o
                                                  build/py/objgenerator.o
                                                  build/py/objfun.o
mp_deinit                                         build/py/runtime.o
                                                  build/main.o
mp_delete_global                                  build/py/runtime.o
                                                  build/py/vm.o
mp_delete_name                                    build/py/runtime.o
                                                  build/py/vm.o
mp_emit_bc_adjust_stack_size                      build/py/emitbc.o
                                                  build/py/compile.o
mp_emit_bc_attr                                   build/py/emitbc.o
                                                  build/py/compile.o
mp_emit_bc_binary_op                              build/py/emitbc.o
                                                  build/py/compile.o
mp_emit_bc_build                                  build/py/emitbc.o
                                                  build/py/compile.o
mp_emit_bc_call_function                          build/py/emitbc.o
                                                  build/py/compile.o
mp_emit_bc_call_method                            build/py/emitbc.o
                                                  build/py/compile.o
mp_emit_bc_delete_global                          build/py/emitbc.o
mp_emit_bc_delete_local                           build/py/emitbc.o
mp_emit_bc_dup_top                                build/py/emitbc.o
                                                  build/py/compile.o
mp_emit_bc_dup_top_two                            build/py/emitbc.o
                                                  build/py/compile.o
mp_emit_bc_end_except_handler                     build/py/emitbc.o
                                                  build/py/compile.o
mp_emit_bc_end_finally                            build/py/emitbc.o
                                                  build/py/compile.o
mp_emit_bc_end_pass                               build/py/emitbc.o
                                                  build/py/compile.o
mp_emit_bc_for_iter                               build/py/emitbc.o
                                                  build/py/compile.o
mp_emit_bc_for_iter_end                           build/py/emitbc.o
                                                  build/py/compile.o
mp_emit_bc_get_iter                               build/py/emitbc.o
                                                  build/py/compile.o
mp_emit_bc_import                                 build/py/emitbc.o
                                                  build/py/compile.o
mp_emit_bc_jump                                   build/py/emitbc.o
                                                  build/py/compile.o
mp_emit_bc_jump_if_or_pop                         build/py/emitbc.o
                                                  build/py/compile.o
mp_emit_bc_label_assign                           build/py/emitbc.o
                                                  build/py/compile.o
mp_emit_bc_last_emit_was_return_value             build/py/emitbc.o
                                                  build/py/compile.o
mp_emit_bc_load_build_class                       build/py/emitbc.o
                                                  build/py/compile.o
mp_emit_bc_load_const_obj                         build/py/emitbc.o
                                                  build/py/compile.o
mp_emit_bc_load_const_small_int                   build/py/emitbc.o
                                                  build/py/compile.o
mp_emit_bc_load_const_str                         build/py/emitbc.o
                                                  build/py/compile.o
mp_emit_bc_load_const_tok                         build/py/emitbc.o
                                                  build/py/compile.o
mp_emit_bc_load_global                            build/py/emitbc.o
                                                  build/py/compile.o
mp_emit_bc_load_local                             build/py/emitbc.o
                                                  build/py/compile.o
mp_emit_bc_load_method                            build/py/emitbc.o
                                                  build/py/compile.o
mp_emit_bc_load_null                              build/py/emitbc.o
                                                  build/py/compile.o
mp_emit_bc_make_closure                           build/py/emitbc.o
                                                  build/py/compile.o
mp_emit_bc_make_function                          build/py/emitbc.o
                                                  build/py/compile.o
mp_emit_bc_method_table_delete_id_ops             build/py/emitbc.o
                                                  build/py/compile.o
mp_emit_bc_method_table_load_id_ops               build/py/emitbc.o
                                                  build/py/compile.o
mp_emit_bc_method_table_store_id_ops              build/py/emitbc.o
                                                  build/py/compile.o
mp_emit_bc_pop_block                              build/py/emitbc.o
                                                  build/py/compile.o
mp_emit_bc_pop_except                             build/py/emitbc.o
                                                  build/py/compile.o
mp_emit_bc_pop_jump_if                            build/py/emitbc.o
                                                  build/py/compile.o
mp_emit_bc_pop_top                                build/py/emitbc.o
                                                  build/py/compile.o
mp_emit_bc_raise_varargs                          build/py/emitbc.o
                                                  build/py/compile.o
mp_emit_bc_return_value                           build/py/emitbc.o
                                                  build/py/compile.o
mp_emit_bc_rot_three                              build/py/emitbc.o
                                                  build/py/compile.o
mp_emit_bc_rot_two                                build/py/emitbc.o
                                                  build/py/compile.o
mp_emit_bc_set_source_line                        build/py/emitbc.o
                                                  build/py/compile.o
mp_emit_bc_setup_block                            build/py/emitbc.o
                                                  build/py/compile.o
mp_emit_bc_start_except_handler                   build/py/emitbc.o
                                                  build/py/compile.o
mp_emit_bc_start_pass                             build/py/emitbc.o
                                                  build/py/compile.o
mp_emit_bc_store_comp                             build/py/emitbc.o
                                                  build/py/compile.o
mp_emit_bc_store_global                           build/py/emitbc.o
mp_emit_bc_store_local                            build/py/emitbc.o
mp_emit_bc_store_map                              build/py/emitbc.o
                                                  build/py/compile.o
mp_emit_bc_subscr                                 build/py/emitbc.o
                                                  build/py/compile.o
mp_emit_bc_unary_op                               build/py/emitbc.o
                                                  build/py/compile.o
mp_emit_bc_unpack_ex                              build/py/emitbc.o
                                                  build/py/compile.o
mp_emit_bc_unpack_sequence                        build/py/emitbc.o
                                                  build/py/compile.o
mp_emit_bc_unwind_jump                            build/py/emitbc.o
                                                  build/py/compile.o
mp_emit_bc_with_cleanup                           build/py/emitbc.o
                                                  build/py/compile.o
mp_emit_bc_yield                                  build/py/emitbc.o
                                                  build/py/compile.o
mp_emit_common_get_id_for_load                    build/py/emitcommon.o
                                                  build/py/compile.o
mp_emit_common_get_id_for_modification            build/py/emitcommon.o
                                                  build/py/compile.o
mp_emit_common_id_op                              build/py/emitcommon.o
                                                  build/py/compile.o
mp_emit_glue_assign_bytecode                      build/py/emitglue.o
                                                  build/py/persistentcode.o
                                                  build/py/emitbc.o
mp_emit_glue_new_raw_code                         build/py/emitglue.o
                                                  build/py/persistentcode.o
                                                  build/py/scope.o
mp_emitter_warning                                build/py/warning.o
mp_errno_to_str                                   build/py/moduerrno.o
                                                  build/py/objexcept.o
mp_execute_bytecode                               build/py/vm.o
                                                  build/py/objgenerator.o
                                                  build/py/objfun.o
mp_find_frozen_module                             build/py/frozenmod.o
                                                  build/lib/utils/pyexec.o
                                                  build/py/builtinimport.o
mp_find_frozen_str                                build/py/frozenmod.o
                                                  build/py/modio.o
mp_float_hash                                     build/py/objfloat.o
                                                  build/py/objcomplex.o
mp_format_float                                   build/py/formatfloat.o
                                                  build/py/objfloat.o
                                                  build/py/objcomplex.o
                                                  build/py/mpprint.o
mp_frozen_mpy_content                             build/build/frozen_mpy.o
                                                  build/py/frozenmod.o
mp_frozen_mpy_names                               build/build/frozen_mpy.o
                                                  build/py/frozenmod.o
                                                  build/py/builtinhelp.o
mp_frozen_stat                                    build/py/frozenmod.o
                                                  build/py/builtinimport.o
mp_frozen_str_content                             build/build/frozen.o
                                                  build/py/frozenmod.o
mp_frozen_str_names                               build/build/frozen.o
                                                  build/py/frozenmod.o
                                                  build/py/builtinhelp.o
mp_frozen_str_sizes                               build/build/frozen.o
                                                  build/py/frozenmod.o
mp_generic_unary_op                               build/py/obj.o
                                                  build/py/objtype.o
                                                  build/py/objnone.o
                                                  build/py/objgenerator.o
                                                  build/py/objfun.o
mp_get_buffer                                     build/py/obj.o
                                                  build/py/stream.o
                                                  build/py/objstr.o
                                                  build/py/objfloat.o
                                                  build/py/objarray.o
mp_get_buffer_raise                               build/py/obj.o
                                                  build/extmod/modubinascii.o
                                                  build/extmod/moduhashlib.o
                                                  build/extmod/moduzlib.o
                                                  build/extmod/moductypes.o
                                                  build/py/modstruct.o
                                                  build/py/stream.o
                                                  build/py/objstringio.o
                                                  build/py/objstr.o
                                                  build/py/objint.o
                                                  build/py/objarray.o
mp_get_index                                      build/py/obj.o
                                                  build/py/sequence.o
                                                  build/py/objtuple.o
                                                  build/py/objstrunicode.o
                                                  build/py/objstr.o
                                                  build/py/objrange.o
                                                  build/py/objlist.o
                                                  build/py/objarray.o
mp_get_stream_raise                               build/py/stream.o
                                                  build/extmod/moduzlib.o
                                                  build/extmod/modujson.o
                                                  build/py/modsys.o
                                                  build/py/modbuiltins.o
mp_getiter                                        build/py/runtime.o
                                                  build/py/vm.o
                                                  build/py/modbuiltins.o
                                                  build/py/objzip.o
                                                  build/py/objtuple.o
                                                  build/py/objstr.o
                                                  build/py/objset.o
                                                  build/py/objmap.o
                                                  build/py/objlist.o
                                                  build/py/objfilter.o
                                                  build/py/objenumerate.o
                                                  build/py/objdict.o
                                                  build/py/objarray.o
mp_hal_delay_ms                                   build/mphalport.o
                                                  build/extmod/utime_mphal.o
mp_hal_delay_us                                   build/mphalport.o
                                                  build/extmod/utime_mphal.o
mp_hal_set_interrupt_char                         build/lib/utils/interrupt_char.o
                                                  build/lib/utils/pyexec.o
                                                  build/py/modmicropython.o
mp_hal_stdin_rx_chr                               build/mphalport.o
                                                  build/lib/mp-readline/readline.o
                                                  build/lib/utils/pyexec.o
                                                  build/lib/utils/sys_stdio_mphal.o
mp_hal_stdout_tx_str                              build/lib/utils/stdout_helpers.o
                                                  build/lib/mp-readline/readline.o
                                                  build/lib/utils/pyexec.o
                                                  build/modmachine.o
mp_hal_stdout_tx_strn                             build/mphalport.o
                                                  build/lib/mp-readline/readline.o
                                                  build/lib/utils/pyexec.o
                                                  build/lib/utils/stdout_helpers.o
                                                  build/lib/utils/sys_stdio_mphal.o
mp_hal_stdout_tx_strn_cooked                      build/lib/utils/stdout_helpers.o
                                                  build/lib/utils/sys_stdio_mphal.o
                                                  build/lib/utils/printf.o
                                                  build/py/mpprint.o
mp_hal_ticks_cpu                                  build/mphalport.o
                                                  build/extmod/utime_mphal.o
mp_hal_ticks_ms                                   build/mphalport.o
                                                  build/lib/utils/pyexec.o
                                                  build/extmod/utime_mphal.o
mp_hal_ticks_us                                   build/mphalport.o
                                                  build/extmod/utime_mphal.o
mp_handle_pending                                 build/py/scheduler.o
                                                  build/mphalport.o
mp_handle_pending_tail                            build/py/scheduler.o
                                                  build/py/vm.o
mp_help_default_text                              build/py/builtinhelp.o
mp_identity                                       build/py/obj.o
mp_identity_getiter                               build/py/obj.o
                                                  build/lib/utils/sys_stdio_mphal.o
                                                  build/openpie_vfs.o
                                                  build/py/objzip.o
                                                  build/py/objstringio.o
                                                  build/py/objreversed.o
                                                  build/py/objrange.o
                                                  build/py/objpolyiter.o
                                                  build/py/objmap.o
                                                  build/py/objgetitemiter.o
                                                  build/py/objgenerator.o
                                                  build/py/objfilter.o
                                                  build/py/objenumerate.o
                                                  build/py/objdict.o
                                                  build/py/objarray.o
                                                  build/py/runtime.o
mp_identity_obj                                   build/py/obj.o
                                                  build/lib/utils/sys_stdio_mphal.o
                                                  build/openpie_vfs.o
                                                  build/py/modmicropython.o
                                                  build/py/objstringio.o
mp_import_all                                     build/py/runtime.o
                                                  build/py/vm.o
mp_import_from                                    build/py/runtime.o
                                                  build/py/vm.o
mp_import_name                                    build/py/runtime.o
                                                  build/py/vm.o
mp_init                                           build/py/runtime.o
                                                  build/main.o
mp_init_emergency_exception_buf                   build/py/objexcept.o
                                                  build/py/runtime.o
mp_instance_cast_to_native_base                   build/py/objtype.o
                                                  build/py/objtuple.o
mp_int_format_size                                build/py/objint.o
                                                  build/py/objint_mpz.o
mp_interrupt_char                                 build/lib/utils/interrupt_char.o
                                                  build/machine.o
mp_iternext                                       build/py/runtime.o
                                                  build/extmod/vfs.o
                                                  build/py/modbuiltins.o
                                                  build/py/objzip.o
                                                  build/py/objtuple.o
                                                  build/py/objstr.o
                                                  build/py/objset.o
                                                  build/py/objmap.o
                                                  build/py/objlist.o
                                                  build/py/objfilter.o
                                                  build/py/objenumerate.o
                                                  build/py/objdict.o
                                                  build/py/objarray.o
mp_iternext_allow_raise                           build/py/runtime.o
                                                  build/py/vm.o
                                                  build/py/modbuiltins.o
mp_keyboard_interrupt                             build/lib/utils/interrupt_char.o
mp_lexer_free                                     build/py/lexer.o
                                                  build/py/parse.o
mp_lexer_new                                      build/py/lexer.o
mp_lexer_new_from_fd                              build/py/lexer.o
mp_lexer_new_from_file                            build/py/lexer.o
                                                  build/lib/utils/pyexec.o
                                                  build/py/builtinevex.o
                                                  build/py/builtinimport.o
mp_lexer_new_from_str_len                         build/py/lexer.o
                                                  build/lib/utils/pyexec.o
                                                  build/modmachine.o
                                                  build/main.o
                                                  build/py/frozenmod.o
                                                  build/py/builtinevex.o
mp_lexer_to_next                                  build/py/lexer.o
                                                  build/py/parse.o
mp_load_attr                                      build/py/runtime.o
                                                  build/py/vm.o
mp_load_build_class                               build/py/runtime.o
                                                  build/py/vm.o
mp_load_global                                    build/py/runtime.o
                                                  build/py/vm.o
mp_load_method                                    build/py/runtime.o
                                                  build/extmod/vfs.o
                                                  build/extmod/machine_pinbase.o
                                                  build/py/vm.o
                                                  build/py/modbuiltins.o
                                                  build/py/objtype.o
mp_load_method_maybe                              build/py/runtime.o
                                                  build/extmod/vfs.o
                                                  build/py/modio.o
                                                  build/py/modbuiltins.o
                                                  build/py/builtinimport.o
                                                  build/py/objtype.o
                                                  build/py/objreversed.o
                                                  build/py/objmodule.o
                                                  build/py/parse.o
                                                  build/py/gc.o
mp_load_method_protected                          build/py/runtime.o
                                                  build/py/repl.o
                                                  build/py/modbuiltins.o
                                                  build/py/objtype.o
mp_load_name                                      build/py/runtime.o
                                                  build/py/vm.o
mp_load_super_method                              build/py/objtype.o
                                                  build/py/vm.o
mp_make_closure_from_raw_code                     build/py/emitglue.o
                                                  build/py/vm.o
mp_make_function_from_raw_code                    build/py/emitglue.o
                                                  build/lib/utils/pyexec.o
                                                  build/py/vm.o
                                                  build/py/builtinimport.o
                                                  build/py/compile.o
mp_make_raise_obj                                 build/py/runtime.o
                                                  build/py/vm.o
mp_map_clear                                      build/py/map.o
                                                  build/py/objdict.o
mp_map_deinit                                     build/py/map.o
                                                  build/py/parse.o
mp_map_init                                       build/py/map.o
                                                  build/py/objtype.o
                                                  build/py/objdict.o
                                                  build/py/parse.o
mp_map_init_fixed_table                           build/py/map.o
                                                  build/py/objfun.o
                                                  build/py/objdict.o
                                                  build/py/argcheck.o
mp_map_lookup                                     build/py/map.o
                                                  build/py/bc.o
                                                  build/py/vm.o
                                                  build/py/moduerrno.o
                                                  build/py/modbuiltins.o
                                                  build/py/builtinimport.o
                                                  build/py/objtype.o
                                                  build/py/objstr.o
                                                  build/py/objmodule.o
                                                  build/py/objdict.o
                                                  build/py/argcheck.o
                                                  build/py/runtime.o
                                                  build/py/parse.o
mp_maxsize_obj                                    build/py/objint_mpz.o
                                                  build/py/modsys.o
mp_micropython_mem_info                           build/py/modmicropython.o
mp_module___main__                                build/py/runtime.o
                                                  build/py/repl.o
                                                  build/py/objmodule.o
mp_module_array                                   build/py/modarray.o
                                                  build/py/objmodule.o
mp_module_builtins                                build/py/modbuiltins.o
                                                  build/py/objmodule.o
mp_module_builtins_globals                        build/py/modbuiltins.o
                                                  build/py/objmodule.o
                                                  build/py/runtime.o
mp_module_call_init                               build/py/objmodule.o
                                                  build/py/builtinimport.o
mp_module_cmath                                   build/py/modcmath.o
                                                  build/py/objmodule.o
mp_module_collections                             build/py/modcollections.o
                                                  build/py/objmodule.o
mp_module_gc                                      build/py/modgc.o
                                                  build/py/objmodule.o
mp_module_get                                     build/py/objmodule.o
                                                  build/py/builtinimport.o
mp_module_io                                      build/py/modio.o
                                                  build/py/objmodule.o
mp_module_machine                                 build/modmachine.o
                                                  build/py/objmodule.o
mp_module_math                                    build/py/modmath.o
                                                  build/py/objmodule.o
mp_module_micropython                             build/py/modmicropython.o
                                                  build/py/objmodule.o
mp_module_register                                build/py/objmodule.o
mp_module_sys                                     build/py/modsys.o
                                                  build/py/objmodule.o
mp_module_ubinascii                               build/extmod/modubinascii.o
                                                  build/py/objmodule.o
mp_module_uctypes                                 build/extmod/moductypes.o
                                                  build/py/objmodule.o
                                                  build/py/parse.o
mp_module_uerrno                                  build/py/moduerrno.o
                                                  build/py/objmodule.o
                                                  build/py/parse.o
mp_module_uhashlib                                build/extmod/moduhashlib.o
                                                  build/py/objmodule.o
mp_module_uheapq                                  build/extmod/moduheapq.o
                                                  build/py/objmodule.o
mp_module_ujson                                   build/extmod/modujson.o
                                                  build/py/objmodule.o
mp_module_umsgpack                                build/modumsgpack.o
                                                  build/py/objmodule.o
mp_module_uos                                     build/moduos.o
                                                  build/py/objmodule.o
mp_module_urandom                                 build/extmod/modurandom.o
                                                  build/py/objmodule.o
mp_module_ure                                     build/extmod/modure.o
                                                  build/py/objmodule.o
mp_module_ustruct                                 build/py/modstruct.o
                                                  build/py/objmodule.o
mp_module_utime                                   build/modutime.o
                                                  build/py/objmodule.o
mp_module_utimeq                                  build/extmod/modutimeq.o
                                                  build/py/objmodule.o
mp_module_uzlib                                   build/extmod/moduzlib.o
                                                  build/py/objmodule.o
mp_namedtuple_obj                                 build/py/objnamedtuple.o
                                                  build/py/modcollections.o
mp_obj_attrtuple_print_helper                     build/py/objattrtuple.o
                                                  build/py/objnamedtuple.o
mp_obj_cell_get                                   build/py/objcell.o
                                                  build/py/vm.o
mp_obj_cell_set                                   build/py/objcell.o
                                                  build/py/vm.o
                                                  build/py/modbuiltins.o
mp_obj_code_get_name                              build/py/objfun.o
mp_obj_complex_binary_op                          build/py/objcomplex.o
                                                  build/py/objint_mpz.o
                                                  build/py/objfloat.o
                                                  build/py/runtime.o
mp_obj_complex_get                                build/py/objcomplex.o
                                                  build/py/obj.o
mp_obj_dict_delete                                build/py/objdict.o
                                                  build/py/objmodule.o
                                                  build/py/runtime.o
mp_obj_dict_get                                   build/py/objdict.o
                                                  build/mphalport.o
                                                  build/machine.o
                                                  build/extmod/moductypes.o
                                                  build/py/builtinimport.o
                                                  build/py/objstr.o
mp_obj_dict_init                                  build/py/objdict.o
                                                  build/py/runtime.o
mp_obj_dict_len                                   build/py/objdict.o
                                                  build/py/runtime.o
mp_obj_dict_store                                 build/py/objdict.o
                                                  build/msgpack.o
                                                  build/extmod/modujson.o
                                                  build/py/bc.o
                                                  build/py/vm.o
                                                  build/py/builtinimport.o
                                                  build/py/objtype.o
                                                  build/py/objnamedtuple.o
                                                  build/py/objmodule.o
                                                  build/py/runtime.o
mp_obj_equal                                      build/py/obj.o
                                                  build/py/sequence.o
                                                  build/py/objdict.o
                                                  build/py/map.o
                                                  build/py/runtime.o
mp_obj_exception_add_traceback                    build/py/objexcept.o
                                                  build/modmachine.o
                                                  build/py/vm.o
                                                  build/py/parsenum.o
                                                  build/py/compile.o
                                                  build/py/parse.o
mp_obj_exception_attr                             build/py/objexcept.o
                                                  build/machine.o
mp_obj_exception_clear_traceback                  build/py/objexcept.o
                                                  build/lib/utils/interrupt_char.o
mp_obj_exception_get_traceback                    build/py/objexcept.o
                                                  build/py/obj.o
mp_obj_exception_get_value                        build/py/objexcept.o
                                                  build/py/vm.o
mp_obj_exception_make_new                         build/py/objexcept.o
                                                  build/machine.o
                                                  build/py/objtype.o
mp_obj_exception_match                            build/py/objexcept.o
                                                  build/py/vm.o
                                                  build/py/runtime.o
mp_obj_exception_print                            build/py/objexcept.o
                                                  build/machine.o
mp_obj_float_binary_op                            build/py/objfloat.o
                                                  build/py/objint_mpz.o
                                                  build/py/runtime.o
mp_obj_float_get                                  build/py/objfloat.o
                                                  build/msgpack.o
                                                  build/py/objstr.o
                                                  build/py/objint.o
                                                  build/py/obj.o
mp_obj_fun_bc_attr                                build/py/objfun.o
                                                  build/py/objgenerator.o
mp_obj_fun_bc_prepare_codestate                   build/py/objfun.o
                                                  build/py/vm.o
mp_obj_fun_get_name                               build/py/objfun.o
                                                  build/py/bc.o
                                                  build/py/objgenerator.o
                                                  build/py/objboundmeth.o
mp_obj_gen_resume                                 build/py/objgenerator.o
                                                  build/py/runtime.o
mp_obj_get_array                                  build/py/obj.o
                                                  build/msgpack.o
                                                  build/modmachine.o
                                                  build/py/objstr.o
                                                  build/py/objnamedtuple.o
                                                  build/py/objlist.o
                                                  build/py/runtime.o
mp_obj_get_array_fixed_n                          build/py/obj.o
                                                  build/extmod/vfs.o
mp_obj_get_complex                                build/py/obj.o
                                                  build/py/modcmath.o
                                                  build/py/objcomplex.o
mp_obj_get_float                                  build/py/obj.o
                                                  build/extmod/utime_mphal.o
                                                  build/extmod/modurandom.o
                                                  build/extmod/moductypes.o
                                                  build/py/modcmath.o
                                                  build/py/modmath.o
                                                  build/py/modbuiltins.o
                                                  build/py/binary.o
                                                  build/py/objstr.o
                                                  build/py/objfloat.o
                                                  build/py/objcomplex.o
mp_obj_get_float_maybe                            build/py/obj.o
                                                  build/py/objfloat.o
mp_obj_get_int                                    build/py/obj.o
                                                  build/lib/utils/pyexec.o
                                                  build/modmachine.o
                                                  build/extmod/utime_mphal.o
                                                  build/extmod/vfs.o
                                                  build/extmod/modurandom.o
                                                  build/extmod/machine_pinbase.o
                                                  build/extmod/modutimeq.o
                                                  build/extmod/moduzlib.o
                                                  build/extmod/modure.o
                                                  build/extmod/moductypes.o
                                                  build/py/modstruct.o
                                                  build/py/modmicropython.o
                                                  build/py/modmath.o
                                                  build/py/modgc.o
                                                  build/py/modbuiltins.o
                                                  build/py/binary.o
                                                  build/py/stream.o
                                                  build/py/sequence.o
                                                  build/py/objstringio.o
                                                  build/py/objstr.o
                                                  build/py/objreversed.o
                                                  build/py/objrange.o
                                                  build/py/objint.o
                                                  build/py/objdeque.o
                                                  build/py/objarray.o
                                                  build/py/argcheck.o
                                                  build/py/mpprint.o
mp_obj_get_int_maybe                              build/py/obj.o
                                                  build/py/objtuple.o
                                                  build/py/objstrunicode.o
                                                  build/py/objstr.o
                                                  build/py/objlist.o
mp_obj_get_int_truncated                          build/py/obj.o
                                                  build/msgpack.o
                                                  build/extmod/modurandom.o
                                                  build/extmod/machine_mem.o
                                                  build/extmod/modubinascii.o
                                                  build/extmod/moductypes.o
                                                  build/py/stream.o
                                                  build/py/objtype.o
mp_obj_get_type                                   build/py/obj.o
                                                  build/extmod/vfs.o
                                                  build/extmod/modure.o
                                                  build/extmod/modujson.o
                                                  build/py/vm.o
                                                  build/py/modsys.o
                                                  build/py/modbuiltins.o
                                                  build/py/builtinhelp.o
                                                  build/py/stream.o
                                                  build/py/sequence.o
                                                  build/py/opmethods.o
                                                  build/py/objtype.o
                                                  build/py/objtuple.o
                                                  build/py/objstrunicode.o
                                                  build/py/objstr.o
                                                  build/py/objgenerator.o
                                                  build/py/objexcept.o
                                                  build/py/runtime.o
mp_obj_get_type_str                               build/py/obj.o
                                                  build/openpie_vfs.o
                                                  build/py/objtype.o
                                                  build/py/objstrunicode.o
                                                  build/py/objstr.o
                                                  build/py/runtime.o
mp_obj_id                                         build/py/obj.o
                                                  build/py/modbuiltins.o
mp_obj_instance_call                              build/py/objtype.o
                                                  build/py/obj.o
mp_obj_instance_is_callable                       build/py/objtype.o
                                                  build/py/obj.o
mp_obj_instance_make_new                          build/py/objtype.o
                                                  build/py/vm.o
                                                  build/py/objobject.o
mp_obj_int_as_float_impl                          build/py/objint_mpz.o
                                                  build/py/obj.o
mp_obj_int_binary_op                              build/py/objint_mpz.o
                                                  build/py/objint.o
mp_obj_int_binary_op_extra_cases                  build/py/objint.o
                                                  build/py/objint_mpz.o
mp_obj_int_formatted                              build/py/objint.o
                                                  build/py/mpprint.o
mp_obj_int_formatted_impl                         build/py/objint_mpz.o
                                                  build/py/objint.o
mp_obj_int_from_bytes_impl                        build/py/objint_mpz.o
                                                  build/py/objint.o
mp_obj_int_get_checked                            build/py/objint_mpz.o
                                                  build/py/obj.o
mp_obj_int_get_truncated                          build/py/objint_mpz.o
                                                  build/extmod/machine_mem.o
                                                  build/extmod/moductypes.o
                                                  build/py/obj.o
mp_obj_int_new_mpz                                build/py/objint_mpz.o
                                                  build/py/objint.o
mp_obj_int_pow3                                   build/py/objint_mpz.o
                                                  build/py/modbuiltins.o
mp_obj_int_print                                  build/py/objint.o
mp_obj_int_sign                                   build/py/objint_mpz.o
                                                  build/py/parse.o
                                                  build/py/mpprint.o
mp_obj_int_to_bytes_impl                          build/py/objint_mpz.o
                                                  build/py/binary.o
                                                  build/py/objint.o
mp_obj_int_unary_op                               build/py/objint_mpz.o
                                                  build/py/objint.o
mp_obj_is_callable                                build/py/obj.o
                                                  build/extmod/modure.o
                                                  build/py/modbuiltins.o
mp_obj_is_exception_instance                      build/py/objexcept.o
                                                  build/py/obj.o
                                                  build/py/runtime.o
mp_obj_is_exception_type                          build/py/objexcept.o
                                                  build/py/runtime.o
mp_obj_is_package                                 build/py/builtinimport.o
                                                  build/py/runtime.o
mp_obj_is_subclass_fast                           build/py/objtype.o
                                                  build/lib/utils/pyexec.o
                                                  build/py/vm.o
                                                  build/py/objtuple.o
                                                  build/py/objgenerator.o
                                                  build/py/objexcept.o
                                                  build/py/runtime.o
mp_obj_is_true                                    build/py/obj.o
                                                  build/extmod/machine_signal.o
                                                  build/py/vm.o
                                                  build/py/modbuiltins.o
                                                  build/py/stream.o
                                                  build/py/objfilter.o
                                                  build/py/objbool.o
                                                  build/py/argcheck.o
                                                  build/py/runtime.o
mp_obj_len                                        build/py/obj.o
                                                  build/extmod/modurandom.o
                                                  build/extmod/moductypes.o
                                                  build/py/modbuiltins.o
                                                  build/py/objreversed.o
mp_obj_len_maybe                                  build/py/obj.o
                                                  build/py/objstr.o
                                                  build/py/objdict.o
                                                  build/py/objarray.o
mp_obj_list_append                                build/py/objlist.o
                                                  build/main.o
                                                  build/extmod/vfs.o
                                                  build/extmod/moduheapq.o
                                                  build/extmod/modure.o
                                                  build/extmod/modujson.o
                                                  build/py/vm.o
                                                  build/py/modbuiltins.o
                                                  build/py/builtinhelp.o
                                                  build/py/stream.o
                                                  build/py/sequence.o
                                                  build/py/objstr.o
                                                  build/py/runtime.o
mp_obj_list_get                                   build/py/objlist.o
                                                  build/py/builtinhelp.o
                                                  build/py/builtinimport.o
                                                  build/py/obj.o
mp_obj_list_init                                  build/py/objlist.o
                                                  build/main.o
                                                  build/extmod/modujson.o
mp_obj_list_remove                                build/py/objlist.o
mp_obj_list_set_len                               build/py/objlist.o
                                                  build/py/runtime.o
mp_obj_list_sort                                  build/py/objlist.o
                                                  build/py/modbuiltins.o
                                                  build/py/builtinhelp.o
mp_obj_list_store                                 build/py/objlist.o
                                                  build/msgpack.o
mp_obj_namedtuple_find_field                      build/py/objnamedtuple.o
mp_obj_new_attrtuple                              build/py/objattrtuple.o
mp_obj_new_bound_meth                             build/py/objboundmeth.o
                                                  build/py/modbuiltins.o
                                                  build/py/runtime.o
mp_obj_new_bytearray                              build/py/objarray.o
mp_obj_new_bytearray_by_ref                       build/py/objarray.o
                                                  build/extmod/moduzlib.o
                                                  build/extmod/moductypes.o
mp_obj_new_bytes                                  build/py/objstr.o
                                                  build/msgpack.o
                                                  build/modumsgpack.o
                                                  build/extmod/moductypes.o
                                                  build/py/modstruct.o
                                                  build/py/compile.o
mp_obj_new_cell                                   build/py/objcell.o
                                                  build/py/bc.o
mp_obj_new_closure                                build/py/objclosure.o
                                                  build/py/emitglue.o
mp_obj_new_complex                                build/py/objcomplex.o
                                                  build/py/modcmath.o
                                                  build/py/parsenum.o
mp_obj_new_dict                                   build/py/objdict.o
                                                  build/msgpack.o
                                                  build/extmod/modujson.o
                                                  build/py/bc.o
                                                  build/py/vm.o
                                                  build/py/modbuiltins.o
                                                  build/py/objtype.o
                                                  build/py/objnamedtuple.o
                                                  build/py/objmodule.o
mp_obj_new_exception                              build/py/objexcept.o
                                                  build/extmod/modurandom.o
                                                  build/extmod/moduzlib.o
                                                  build/py/modsys.o
                                                  build/py/modbuiltins.o
                                                  build/py/objgenerator.o
                                                  build/py/runtime.o
mp_obj_new_exception_arg1                         build/py/objexcept.o
                                                  build/modmachine.o
                                                  build/extmod/moduzlib.o
                                                  build/extmod/modure.o
                                                  build/py/modsys.o
                                                  build/py/objstr.o
                                                  build/py/objset.o
                                                  build/py/objdict.o
                                                  build/py/runtime.o
                                                  build/py/parsenum.o
                                                  build/py/pystack.o
mp_obj_new_exception_args                         build/py/objexcept.o
                                                  build/py/objgenerator.o
mp_obj_new_exception_msg                          build/py/objexcept.o
                                                  build/openpie_vfs.o
                                                  build/modmachine.o
                                                  build/extmod/modutimeq.o
                                                  build/extmod/moduheapq.o
                                                  build/extmod/moductypes.o
                                                  build/py/vm.o
                                                  build/py/objint.o
                                                  build/py/objgenerator.o
                                                  build/py/runtime.o
                                                  build/py/parsenum.o
                                                  build/py/compile.o
                                                  build/py/parse.o
mp_obj_new_exception_msg_varg                     build/py/objexcept.o
                                                  build/extmod/machine_mem.o
                                                  build/py/bc.o
                                                  build/py/modbuiltins.o
                                                  build/py/builtinimport.o
                                                  build/py/objtype.o
                                                  build/py/objstrunicode.o
                                                  build/py/objstr.o
                                                  build/py/objnamedtuple.o
                                                  build/py/obj.o
                                                  build/py/argcheck.o
                                                  build/py/runtime.o
mp_obj_new_float                                  build/py/objfloat.o
                                                  build/msgpack.o
                                                  build/extmod/modurandom.o
                                                  build/extmod/moductypes.o
                                                  build/py/modcmath.o
                                                  build/py/modmath.o
                                                  build/py/modbuiltins.o
                                                  build/py/binary.o
                                                  build/py/objint_mpz.o
                                                  build/py/objcomplex.o
                                                  build/py/runtime.o
                                                  build/py/parsenum.o
mp_obj_new_fun_bc                                 build/py/objfun.o
                                                  build/py/emitglue.o
mp_obj_new_getitem_iter                           build/py/objgetitemiter.o
                                                  build/py/runtime.o
mp_obj_new_instance                               build/py/objtype.o
                                                  build/py/objobject.o
mp_obj_new_int                                    build/py/objint_mpz.o
                                                  build/msgpack.o
                                                  build/openpie_vfs.o
                                                  build/extmod/modurandom.o
                                                  build/extmod/machine_mem.o
                                                  build/extmod/modure.o
                                                  build/extmod/moductypes.o
                                                  build/py/modmath.o
                                                  build/py/modgc.o
                                                  build/py/modbuiltins.o
                                                  build/py/binary.o
                                                  build/py/stream.o
                                                  build/py/objrange.o
                                                  build/py/obj.o
                                                  build/py/runtime.o
mp_obj_new_int_from_float                         build/py/objint.o
                                                  build/py/modmath.o
                                                  build/py/modbuiltins.o
                                                  build/py/objstr.o
mp_obj_new_int_from_ll                            build/py/objint_mpz.o
                                                  build/msgpack.o
                                                  build/extmod/moductypes.o
                                                  build/py/binary.o
                                                  build/py/runtime.o
mp_obj_new_int_from_str_len                       build/py/objint_mpz.o
                                                  build/py/parsenum.o
mp_obj_new_int_from_uint                          build/py/objint_mpz.o
                                                  build/msgpack.o
                                                  build/extmod/modurandom.o
                                                  build/extmod/modubinascii.o
                                                  build/extmod/moductypes.o
                                                  build/py/binary.o
                                                  build/py/stream.o
                                                  build/py/objint.o
                                                  build/py/obj.o
mp_obj_new_int_from_ull                           build/py/objint_mpz.o
                                                  build/msgpack.o
                                                  build/extmod/moductypes.o
                                                  build/py/binary.o
mp_obj_new_list                                   build/py/objlist.o
                                                  build/msgpack.o
                                                  build/extmod/vfs.o
                                                  build/extmod/modure.o
                                                  build/extmod/modujson.o
                                                  build/py/vm.o
                                                  build/py/modbuiltins.o
                                                  build/py/builtinhelp.o
                                                  build/py/stream.o
                                                  build/py/sequence.o
                                                  build/py/objstr.o
                                                  build/py/runtime.o
mp_obj_new_memoryview                             build/py/objarray.o
mp_obj_new_module                                 build/py/objmodule.o
                                                  build/py/builtinimport.o
mp_obj_new_namedtuple_base                        build/py/objnamedtuple.o
mp_obj_new_set                                    build/py/objset.o
                                                  build/py/vm.o
mp_obj_new_slice                                  build/py/objslice.o
                                                  build/py/vm.o
mp_obj_new_str                                    build/py/objstr.o
                                                  build/msgpack.o
                                                  build/mphalport.o
                                                  build/extmod/vfs_reader.o
                                                  build/extmod/vfs.o
                                                  build/extmod/modujson.o
                                                  build/py/modio.o
                                                  build/py/builtinhelp.o
                                                  build/py/builtinimport.o
                                                  build/py/binary.o
mp_obj_new_str_copy                               build/py/objstr.o
                                                  build/py/parse.o
mp_obj_new_str_from_vstr                          build/py/objstr.o
                                                  build/modmachine.o
                                                  build/extmod/vfs.o
                                                  build/extmod/modubinascii.o
                                                  build/extmod/moduhashlib.o
                                                  build/extmod/modure.o
                                                  build/extmod/modujson.o
                                                  build/py/modstruct.o
                                                  build/py/modbuiltins.o
                                                  build/py/stream.o
                                                  build/py/objint.o
                                                  build/py/persistentcode.o
                                                  build/py/parsenum.o
mp_obj_new_str_of_type                            build/py/objstr.o
                                                  build/extmod/vfs.o
                                                  build/extmod/modure.o
                                                  build/py/objstringio.o
                                                  build/py/objstrunicode.o
mp_obj_new_str_via_qstr                           build/py/objstr.o
                                                  build/py/modbuiltins.o
                                                  build/py/objstrunicode.o
mp_obj_new_tuple                                  build/py/objtuple.o
                                                  build/extmod/vfs.o
                                                  build/extmod/modure.o
                                                  build/py/bc.o
                                                  build/py/vm.o
                                                  build/py/modsys.o
                                                  build/py/modstruct.o
                                                  build/py/modcmath.o
                                                  build/py/modmath.o
                                                  build/py/modbuiltins.o
                                                  build/py/objzip.o
                                                  build/py/objstr.o
                                                  build/py/objnamedtuple.o
                                                  build/py/objint_mpz.o
                                                  build/py/objfloat.o
                                                  build/py/objenumerate.o
                                                  build/py/objdict.o
                                                  build/py/runtime.o
mp_obj_new_type                                   build/py/objtype.o
mp_obj_print                                      build/py/obj.o
                                                  build/py/builtinhelp.o
mp_obj_print_exception                            build/py/obj.o
                                                  build/lib/utils/pyexec.o
                                                  build/main.o
                                                  build/py/modsys.o
                                                  build/py/runtime_utils.o
mp_obj_print_helper                               build/py/obj.o
                                                  build/extmod/modujson.o
                                                  build/py/modbuiltins.o
                                                  build/py/objtype.o
                                                  build/py/objtuple.o
                                                  build/py/objstr.o
                                                  build/py/objslice.o
                                                  build/py/objset.o
                                                  build/py/objlist.o
                                                  build/py/objexcept.o
                                                  build/py/objdict.o
                                                  build/py/objclosure.o
                                                  build/py/objcell.o
                                                  build/py/objboundmeth.o
                                                  build/py/objattrtuple.o
                                                  build/py/objarray.o
mp_obj_property_get                               build/py/objproperty.o
                                                  build/py/objtype.o
mp_obj_set_store                                  build/py/objset.o
                                                  build/py/vm.o
mp_obj_slice_get                                  build/py/objslice.o
                                                  build/py/sequence.o
                                                  build/py/objstrunicode.o
mp_obj_str_binary_op                              build/py/objstr.o
                                                  build/py/objstringio.o
                                                  build/py/objstrunicode.o
                                                  build/py/objint.o
                                                  build/py/runtime.o
mp_obj_str_equal                                  build/py/objstr.o
                                                  build/py/obj.o
mp_obj_str_format                                 build/py/objstr.o
                                                  build/py/modbuiltins.o
mp_obj_str_get_buffer                             build/py/objstr.o
                                                  build/py/objstrunicode.o
mp_obj_str_get_data                               build/py/objstr.o
                                                  build/msgpack.o
                                                  build/modumsgpack.o
                                                  build/modmachine.o
                                                  build/extmod/vfs.o
                                                  build/extmod/modure.o
                                                  build/extmod/modujson.o
                                                  build/py/modio.o
                                                  build/py/modbuiltins.o
                                                  build/py/builtinevex.o
                                                  build/py/builtinimport.o
                                                  build/py/objint.o
                                                  build/py/objcomplex.o
                                                  build/py/runtime.o
mp_obj_str_get_qstr                               build/py/objstr.o
                                                  build/py/modbuiltins.o
                                                  build/py/builtinevex.o
                                                  build/py/builtinimport.o
                                                  build/py/objtype.o
                                                  build/py/objnamedtuple.o
mp_obj_str_get_str                                build/py/objstr.o
                                                  build/openpie_vfs.o
                                                  build/extmod/vfs.o
                                                  build/extmod/modubinascii.o
                                                  build/extmod/modure.o
                                                  build/py/modstruct.o
                                                  build/py/builtinhelp.o
                                                  build/py/objmodule.o
                                                  build/py/objarray.o
mp_obj_str_intern                                 build/py/objstr.o
mp_obj_str_intern_checked                         build/py/objstr.o
                                                  build/py/runtime.o
mp_obj_str_make_new                               build/py/objstr.o
                                                  build/py/objstrunicode.o
mp_obj_str_split                                  build/py/objstr.o
                                                  build/py/objnamedtuple.o
mp_obj_subscr                                     build/py/obj.o
                                                  build/extmod/vfs.o
                                                  build/extmod/modurandom.o
                                                  build/py/vm.o
                                                  build/py/objtype.o
                                                  build/py/objreversed.o
mp_obj_tuple_binary_op                            build/py/objtuple.o
                                                  build/py/objnamedtuple.o
                                                  build/py/objattrtuple.o
mp_obj_tuple_del                                  build/py/objtuple.o
                                                  build/py/objzip.o
mp_obj_tuple_get                                  build/py/objtuple.o
                                                  build/py/objtype.o
                                                  build/py/objstr.o
                                                  build/py/obj.o
mp_obj_tuple_getiter                              build/py/objtuple.o
                                                  build/py/objnamedtuple.o
                                                  build/py/objattrtuple.o
mp_obj_tuple_print                                build/py/objtuple.o
                                                  build/py/objexcept.o
mp_obj_tuple_subscr                               build/py/objtuple.o
                                                  build/py/objnamedtuple.o
                                                  build/py/objattrtuple.o
mp_obj_tuple_unary_op                             build/py/objtuple.o
                                                  build/py/objnamedtuple.o
                                                  build/py/objattrtuple.o
mp_op_contains_obj                                build/py/opmethods.o
                                                  build/py/objset.o
mp_op_delitem_obj                                 build/py/opmethods.o
                                                  build/py/objdict.o
mp_op_getitem_obj                                 build/py/opmethods.o
                                                  build/py/objdict.o
mp_op_setitem_obj                                 build/py/opmethods.o
                                                  build/py/objdict.o
mp_opcode_format                                  build/py/bc.o
                                                  build/py/persistentcode.o
mp_parse                                          build/py/parse.o
                                                  build/lib/utils/pyexec.o
                                                  build/modmachine.o
                                                  build/main.o
                                                  build/py/runtime.o
mp_parse_compile_execute                          build/py/runtime.o
                                                  build/py/builtinevex.o
                                                  build/py/builtinimport.o
mp_parse_node_extract_list                        build/py/parse.o
                                                  build/py/compile.o
mp_parse_node_get_int_maybe                       build/py/parse.o
mp_parse_node_is_const_false                      build/py/parse.o
                                                  build/py/compile.o
mp_parse_node_is_const_true                       build/py/parse.o
                                                  build/py/compile.o
mp_parse_num_base                                 build/py/parsenumbase.o
                                                  build/py/parsenum.o
mp_parse_num_decimal                              build/py/parsenum.o
                                                  build/extmod/modujson.o
                                                  build/py/objfloat.o
                                                  build/py/objcomplex.o
                                                  build/py/persistentcode.o
                                                  build/py/parse.o
mp_parse_num_integer                              build/py/parsenum.o
                                                  build/extmod/modujson.o
                                                  build/py/modstruct.o
                                                  build/py/objint.o
                                                  build/py/persistentcode.o
                                                  build/py/parse.o
mp_parse_tree_clear                               build/py/parse.o
                                                  build/py/compile.o
mp_plat_print                                     build/py/mpprint.o
                                                  build/lib/mp-readline/readline.o
                                                  build/lib/utils/pyexec.o
                                                  build/main.o
                                                  build/lib/utils/printf.o
                                                  build/py/modmicropython.o
                                                  build/py/warning.o
                                                  build/py/runtime_utils.o
                                                  build/py/qstr.o
                                                  build/py/gc.o
mp_print_float                                    build/py/mpprint.o
                                                  build/py/objstr.o
mp_print_mp_int                                   build/py/mpprint.o
                                                  build/py/objstr.o
mp_print_str                                      build/py/mpprint.o
                                                  build/py/repl.o
                                                  build/py/modbuiltins.o
                                                  build/py/builtinhelp.o
                                                  build/py/objtype.o
                                                  build/py/objtuple.o
                                                  build/py/objstrunicode.o
                                                  build/py/objstr.o
                                                  build/py/objslice.o
                                                  build/py/objset.o
                                                  build/py/objrange.o
                                                  build/py/objnone.o
                                                  build/py/objlist.o
                                                  build/py/objint.o
                                                  build/py/objfloat.o
                                                  build/py/objexcept.o
                                                  build/py/objdict.o
                                                  build/py/objcomplex.o
                                                  build/py/objclosure.o
                                                  build/py/objcell.o
                                                  build/py/objboundmeth.o
                                                  build/py/objbool.o
                                                  build/py/objattrtuple.o
                                                  build/py/objarray.o
                                                  build/py/obj.o
                                                  build/py/warning.o
                                                  build/py/gc.o
mp_print_strn                                     build/py/mpprint.o
                                                  build/py/objstr.o
mp_printf                                         build/py/mpprint.o
                                                  build/lib/utils/sys_stdio_mphal.o
                                                  build/openpie_vfs.o
                                                  build/extmod/machine_mem.o
                                                  build/extmod/modure.o
                                                  build/extmod/moductypes.o
                                                  build/py/repl.o
                                                  build/py/modmicropython.o
                                                  build/py/builtinhelp.o
                                                  build/py/objtype.o
                                                  build/py/objstringio.o
                                                  build/py/objstrunicode.o
                                                  build/py/objstr.o
                                                  build/py/objsingleton.o
                                                  build/py/objrange.o
                                                  build/py/objnamedtuple.o
                                                  build/py/objmodule.o
                                                  build/py/objgenerator.o
                                                  build/py/objfun.o
                                                  build/py/objexcept.o
                                                  build/py/objdict.o
                                                  build/py/objcomplex.o
                                                  build/py/objclosure.o
                                                  build/py/objcell.o
                                                  build/py/objboundmeth.o
                                                  build/py/objattrtuple.o
                                                  build/py/objarray.o
                                                  build/py/obj.o
                                                  build/py/parsenum.o
                                                  build/py/qstr.o
                                                  build/py/gc.o
mp_pystack_alloc                                  build/py/pystack.o
                                                  build/extmod/modure.o
                                                  build/py/builtinimport.o
                                                  build/py/objfun.o
                                                  build/py/objboundmeth.o
                                                  build/py/runtime.o
                                                  build/py/compile.o
mp_pystack_init                                   build/py/pystack.o
                                                  build/main.o
mp_qstr_const_pool                                build/py/qstr.o
                                                  build/build/frozen_mpy.o
mp_qstr_frozen_const_pool                         build/build/frozen_mpy.o
                                                  build/py/qstr.o
mp_raise_NotImplementedError                      build/py/runtime.o
                                                  build/extmod/modure.o
                                                  build/py/modbuiltins.o
                                                  build/py/objtuple.o
                                                  build/py/objstrunicode.o
                                                  build/py/objstr.o
                                                  build/py/objlist.o
                                                  build/py/objarray.o
                                                  build/py/argcheck.o
                                                  build/py/lexer.o
mp_raise_OSError                                  build/py/runtime.o
                                                  build/openpie_vfs.o
                                                  build/extmod/vfs_reader.o
                                                  build/extmod/vfs.o
                                                  build/extmod/moduzlib.o
                                                  build/extmod/modujson.o
                                                  build/py/stream.o
mp_raise_TypeError                                build/py/runtime.o
                                                  build/msgpack.o
                                                  build/extmod/machine_signal.o
                                                  build/extmod/modutimeq.o
                                                  build/extmod/moduheapq.o
                                                  build/extmod/moductypes.o
                                                  build/py/bc.o
                                                  build/py/modio.o
                                                  build/py/modbuiltins.o
                                                  build/py/builtinevex.o
                                                  build/py/objtype.o
                                                  build/py/objstr.o
                                                  build/py/objobject.o
                                                  build/py/objint_mpz.o
                                                  build/py/objgenerator.o
                                                  build/py/objdict.o
                                                  build/py/objcomplex.o
                                                  build/py/obj.o
                                                  build/py/argcheck.o
mp_raise_ValueError                               build/py/runtime.o
                                                  build/msgpack.o
                                                  build/modmachine.o
                                                  build/extmod/modurandom.o
                                                  build/extmod/modubinascii.o
                                                  build/extmod/moduzlib.o
                                                  build/extmod/modure.o
                                                  build/extmod/modujson.o
                                                  build/py/modstruct.o
                                                  build/py/modmath.o
                                                  build/py/modbuiltins.o
                                                  build/py/builtinevex.o
                                                  build/py/builtinimport.o
                                                  build/py/binary.o
                                                  build/py/sequence.o
                                                  build/py/objstringio.o
                                                  build/py/objstr.o
                                                  build/py/objrange.o
                                                  build/py/objint_mpz.o
                                                  build/py/objint.o
                                                  build/py/objgenerator.o
                                                  build/py/objdict.o
                                                  build/py/objdeque.o
                                                  build/py/objarray.o
                                                  build/py/persistentcode.o
                                                  build/py/parsenum.o
mp_raise_msg                                      build/py/runtime.o
                                                  build/lib/embed/abort_.o
                                                  build/extmod/modutimeq.o
                                                  build/py/modmicropython.o
                                                  build/py/modmath.o
                                                  build/py/stream.o
                                                  build/py/objtype.o
                                                  build/py/objstrunicode.o
                                                  build/py/objstr.o
                                                  build/py/objset.o
                                                  build/py/objnamedtuple.o
                                                  build/py/objlist.o
                                                  build/py/objint_mpz.o
                                                  build/py/objgenerator.o
                                                  build/py/objfloat.o
                                                  build/py/objdict.o
                                                  build/py/objdeque.o
                                                  build/py/objcomplex.o
                                                  build/py/vstr.o
mp_raise_recursion_depth                          build/py/runtime.o
                                                  build/py/stackctrl.o
mp_raw_code_load                                  build/py/persistentcode.o
mp_raw_code_load_file                             build/py/persistentcode.o
                                                  build/py/builtinimport.o
mp_raw_code_load_mem                              build/py/persistentcode.o
mp_reader_new_file                                build/extmod/vfs_reader.o
                                                  build/py/persistentcode.o
                                                  build/py/lexer.o
mp_reader_new_file_from_fd                        build/py/lexer.o
mp_reader_new_mem                                 build/py/reader.o
                                                  build/py/persistentcode.o
                                                  build/py/lexer.o
mp_repl_autocomplete                              build/py/repl.o
                                                  build/lib/mp-readline/readline.o
mp_repl_continue_with_input                       build/py/repl.o
                                                  build/lib/utils/pyexec.o
                                                  build/modmachine.o
mp_resume                                         build/py/runtime.o
                                                  build/py/vm.o
mp_sched_lock                                     build/py/scheduler.o
                                                  build/py/gc.o
mp_sched_schedule                                 build/py/scheduler.o
                                                  build/machine.o
                                                  build/py/modmicropython.o
mp_sched_unlock                                   build/py/scheduler.o
                                                  build/py/gc.o
mp_seq_cmp_bytes                                  build/py/sequence.o
                                                  build/py/objstr.o
                                                  build/py/objarray.o
mp_seq_cmp_objs                                   build/py/sequence.o
                                                  build/py/objtuple.o
                                                  build/py/objlist.o
mp_seq_count_obj                                  build/py/sequence.o
                                                  build/py/objtuple.o
                                                  build/py/objlist.o
mp_seq_extract_slice                              build/py/sequence.o
                                                  build/py/objlist.o
mp_seq_get_fast_slice_indexes                     build/py/sequence.o
                                                  build/py/objtuple.o
                                                  build/py/objstr.o
                                                  build/py/objrange.o
                                                  build/py/objlist.o
                                                  build/py/objarray.o
mp_seq_index_obj                                  build/py/sequence.o
                                                  build/py/objtuple.o
                                                  build/py/objlist.o
mp_seq_multiply                                   build/py/sequence.o
                                                  build/py/objtuple.o
                                                  build/py/objstr.o
                                                  build/py/objlist.o
mp_set_clear                                      build/py/map.o
                                                  build/py/objset.o
mp_set_init                                       build/py/map.o
                                                  build/py/objset.o
mp_set_lookup                                     build/py/map.o
                                                  build/py/objset.o
mp_set_remove_first                               build/py/map.o
                                                  build/py/objset.o
mp_setup_code_state                               build/py/bc.o
                                                  build/py/objgenerator.o
                                                  build/py/objfun.o
mp_small_int_floor_divide                         build/py/smallint.o
                                                  build/py/runtime.o
mp_small_int_modulo                               build/py/smallint.o
                                                  build/py/runtime.o
mp_small_int_mul_overflow                         build/py/smallint.o
                                                  build/py/runtime.o
                                                  build/py/parsenum.o
mp_stack_check                                    build/py/stackctrl.o
                                                  build/extmod/modure.o
                                                  build/py/objstr.o
                                                  build/py/objlist.o
                                                  build/py/objgenerator.o
                                                  build/py/objfun.o
                                                  build/py/obj.o
                                                  build/py/runtime.o
mp_stack_ctrl_init                                build/py/stackctrl.o
mp_stack_set_limit                                build/py/stackctrl.o
                                                  build/main.o
mp_stack_set_top                                  build/py/stackctrl.o
                                                  build/main.o
mp_stack_usage                                    build/py/stackctrl.o
                                                  build/py/modmicropython.o
mp_state_ctx                                      build/py/mpstate.o
                                                  build/lib/mp-readline/readline.o
                                                  build/lib/utils/interrupt_char.o
                                                  build/modmachine.o
                                                  build/mphalport.o
                                                  build/machine.o
                                                  build/main.o
                                                  build/extmod/vfs.o
                                                  build/extmod/modure.o
                                                  build/py/repl.o
                                                  build/py/vm.o
                                                  build/py/modsys.o
                                                  build/py/modmicropython.o
                                                  build/py/modgc.o
                                                  build/py/modbuiltins.o
                                                  build/py/builtinevex.o
                                                  build/py/builtinimport.o
                                                  build/py/objmodule.o
                                                  build/py/objgenerator.o
                                                  build/py/objfun.o
                                                  build/py/objexcept.o
                                                  build/py/objboundmeth.o
                                                  build/py/stackctrl.o
                                                  build/py/scheduler.o
                                                  build/py/runtime.o
                                                  build/py/emitbc.o
                                                  build/py/compile.o
                                                  build/py/lexer.o
                                                  build/py/qstr.o
                                                  build/py/pystack.o
                                                  build/py/gc.o
                                                  build/py/malloc.o
                                                  build/py/nlrthumb.o
                                                  build/py/nlr.o
mp_store_attr                                     build/py/runtime.o
                                                  build/py/vm.o
                                                  build/py/modbuiltins.o
                                                  build/py/builtinimport.o
mp_store_global                                   build/py/runtime.o
                                                  build/py/vm.o
mp_store_name                                     build/py/runtime.o
                                                  build/py/vm.o
mp_str_print_json                                 build/py/objstr.o
                                                  build/py/objstrunicode.o
mp_str_print_quoted                               build/py/objstr.o
                                                  build/py/objarray.o
                                                  build/py/parsenum.o
mp_stream_close                                   build/py/stream.o
                                                  build/openpie_vfs.o
                                                  build/extmod/vfs_reader.o
                                                  build/py/objstringio.o
mp_stream_close_obj                               build/py/stream.o
                                                  build/openpie_vfs.o
                                                  build/py/objstringio.o
mp_stream_flush_obj                               build/py/stream.o
                                                  build/openpie_vfs.o
                                                  build/py/objstringio.o
mp_stream_ioctl_obj                               build/py/stream.o
mp_stream_read1_obj                               build/py/stream.o
mp_stream_read_obj                                build/py/stream.o
                                                  build/lib/utils/sys_stdio_mphal.o
                                                  build/openpie_vfs.o
                                                  build/extmod/moduzlib.o
                                                  build/py/objstringio.o
mp_stream_readinto_obj                            build/py/stream.o
                                                  build/lib/utils/sys_stdio_mphal.o
                                                  build/openpie_vfs.o
                                                  build/extmod/moduzlib.o
                                                  build/py/objstringio.o
mp_stream_rw                                      build/py/stream.o
                                                  build/extmod/vfs_reader.o
mp_stream_seek_obj                                build/py/stream.o
                                                  build/openpie_vfs.o
                                                  build/py/objstringio.o
mp_stream_tell_obj                                build/py/stream.o
                                                  build/openpie_vfs.o
mp_stream_unbuffered_iter                         build/py/stream.o
                                                  build/lib/utils/sys_stdio_mphal.o
                                                  build/openpie_vfs.o
                                                  build/py/objstringio.o
mp_stream_unbuffered_readline_obj                 build/py/stream.o
                                                  build/lib/utils/sys_stdio_mphal.o
                                                  build/openpie_vfs.o
                                                  build/extmod/moduzlib.o
                                                  build/py/objstringio.o
mp_stream_unbuffered_readlines_obj                build/py/stream.o
                                                  build/lib/utils/sys_stdio_mphal.o
                                                  build/openpie_vfs.o
mp_stream_write                                   build/py/stream.o
mp_stream_write1_obj                              build/py/stream.o
mp_stream_write_adaptor                           build/py/stream.o
                                                  build/extmod/modujson.o
                                                  build/py/modsys.o
                                                  build/py/modbuiltins.o
mp_stream_write_obj                               build/py/stream.o
                                                  build/lib/utils/sys_stdio_mphal.o
                                                  build/openpie_vfs.o
                                                  build/py/objstringio.o
mp_sys_exc_info_obj                               build/py/modsys.o
mp_sys_exit_obj                                   build/py/modsys.o
mp_sys_print_exception_obj                        build/py/modsys.o
mp_sys_stderr_obj                                 build/lib/utils/sys_stdio_mphal.o
                                                  build/py/modsys.o
mp_sys_stdin_obj                                  build/lib/utils/sys_stdio_mphal.o
                                                  build/py/modsys.o
mp_sys_stdout_obj                                 build/lib/utils/sys_stdio_mphal.o
                                                  build/py/modsys.o
                                                  build/py/modbuiltins.o
mp_sys_stdout_print                               build/py/modsys.o
                                                  build/py/modbuiltins.o
                                                  build/py/builtinhelp.o
                                                  build/py/obj.o
mp_type_ArithmeticError                           build/py/objexcept.o
                                                  build/py/modbuiltins.o
mp_type_AssertionError                            build/py/objexcept.o
                                                  build/py/modbuiltins.o
mp_type_AttributeError                            build/py/objexcept.o
                                                  build/py/modbuiltins.o
                                                  build/py/objtype.o
                                                  build/py/objnamedtuple.o
                                                  build/py/runtime.o
mp_type_BaseException                             build/py/objexcept.o
                                                  build/py/modbuiltins.o
mp_type_EOFError                                  build/py/objexcept.o
                                                  build/extmod/moduzlib.o
                                                  build/py/modbuiltins.o
mp_type_Exception                                 build/py/objexcept.o
                                                  build/machine.o
                                                  build/py/modbuiltins.o
mp_type_GeneratorExit                             build/py/objexcept.o
                                                  build/py/vm.o
                                                  build/py/modbuiltins.o
                                                  build/py/objgenerator.o
                                                  build/py/runtime.o
mp_type_ImportError                               build/py/objexcept.o
                                                  build/py/modbuiltins.o
                                                  build/py/builtinimport.o
                                                  build/py/runtime.o
mp_type_IndentationError                          build/py/objexcept.o
                                                  build/py/modbuiltins.o
                                                  build/py/parse.o
mp_type_IndexError                                build/py/objexcept.o
                                                  build/extmod/modurandom.o
                                                  build/extmod/modutimeq.o
                                                  build/extmod/moduheapq.o
                                                  build/extmod/modure.o
                                                  build/extmod/moductypes.o
                                                  build/py/modbuiltins.o
                                                  build/py/objstrunicode.o
                                                  build/py/objstr.o
                                                  build/py/objlist.o
                                                  build/py/objgetitemiter.o
                                                  build/py/objdeque.o
                                                  build/py/obj.o
mp_type_KeyError                                  build/py/objexcept.o
                                                  build/py/modbuiltins.o
                                                  build/py/objstr.o
                                                  build/py/objset.o
                                                  build/py/objdict.o
mp_type_KeyboardInterrupt                         build/py/objexcept.o
                                                  build/py/modbuiltins.o
                                                  build/py/runtime.o
mp_type_LookupError                               build/py/objexcept.o
                                                  build/py/modbuiltins.o
mp_type_MemoryError                               build/py/objexcept.o
                                                  build/py/modbuiltins.o
                                                  build/py/runtime.o
mp_type_NameError                                 build/py/objexcept.o
                                                  build/py/vm.o
                                                  build/py/modbuiltins.o
                                                  build/py/runtime.o
mp_type_NoneType                                  build/py/objnone.o
mp_type_NotImplementedError                       build/py/objexcept.o
                                                  build/py/vm.o
                                                  build/py/modbuiltins.o
                                                  build/py/runtime.o
mp_type_OSError                                   build/py/objexcept.o
                                                  build/py/modbuiltins.o
                                                  build/py/stream.o
                                                  build/py/runtime.o
mp_type_OverflowError                             build/py/objexcept.o
                                                  build/py/modbuiltins.o
                                                  build/py/objint_mpz.o
                                                  build/py/objint.o
mp_type_RuntimeError                              build/py/objexcept.o
                                                  build/modmachine.o
                                                  build/lib/embed/abort_.o
                                                  build/py/vm.o
                                                  build/py/modmicropython.o
                                                  build/py/modbuiltins.o
                                                  build/py/objgenerator.o
                                                  build/py/runtime.o
                                                  build/py/vstr.o
                                                  build/py/pystack.o
mp_type_StopAsyncIteration                        build/py/objexcept.o
                                                  build/py/modbuiltins.o
mp_type_StopIteration                             build/py/objexcept.o
                                                  build/py/vm.o
                                                  build/py/modbuiltins.o
                                                  build/py/objgetitemiter.o
                                                  build/py/objgenerator.o
                                                  build/py/runtime.o
mp_type_SyntaxError                               build/py/objexcept.o
                                                  build/py/modbuiltins.o
                                                  build/py/parsenum.o
                                                  build/py/compile.o
                                                  build/py/parse.o
mp_type_SystemError                               build/machine.o
                                                  build/modmachine.o
                                                  build/py/modbuiltins.o
mp_type_SystemExit                                build/py/objexcept.o
                                                  build/lib/utils/pyexec.o
                                                  build/py/modsys.o
                                                  build/py/modbuiltins.o
mp_type_TimeoutError                              build/py/objexcept.o
mp_type_TypeError                                 build/py/objexcept.o
                                                  build/py/bc.o
                                                  build/py/modbuiltins.o
                                                  build/py/objtype.o
                                                  build/py/objstrunicode.o
                                                  build/py/objstr.o
                                                  build/py/objnamedtuple.o
                                                  build/py/obj.o
                                                  build/py/argcheck.o
                                                  build/py/runtime.o
mp_type_UnicodeError                              build/py/objexcept.o
                                                  build/py/modbuiltins.o
                                                  build/py/objstr.o
mp_type_ValueError                                build/py/objexcept.o
                                                  build/openpie_vfs.o
                                                  build/extmod/machine_mem.o
                                                  build/extmod/moduzlib.o
                                                  build/py/modbuiltins.o
                                                  build/py/objstr.o
                                                  build/py/obj.o
                                                  build/py/runtime.o
                                                  build/py/parsenum.o
mp_type_ZeroDivisionError                         build/py/objexcept.o
                                                  build/py/modmath.o
                                                  build/py/modbuiltins.o
                                                  build/py/objint_mpz.o
                                                  build/py/objfloat.o
                                                  build/py/objcomplex.o
                                                  build/py/runtime.o
mp_type_array                                     build/py/objarray.o
                                                  build/py/modarray.o
                                                  build/py/gc.o
mp_type_attrtuple                                 build/py/objattrtuple.o
                                                  build/py/modsys.o
mp_type_bool                                      build/py/objbool.o
                                                  build/py/modbuiltins.o
                                                  build/py/objstr.o
mp_type_bytearray                                 build/py/objarray.o
                                                  build/extmod/moductypes.o
                                                  build/py/modbuiltins.o
                                                  build/py/gc.o
mp_type_bytes                                     build/py/objstr.o
                                                  build/msgpack.o
                                                  build/build/frozen_mpy.o
                                                  build/extmod/vfs.o
                                                  build/extmod/modubinascii.o
                                                  build/extmod/moduhashlib.o
                                                  build/py/modstruct.o
                                                  build/py/modbuiltins.o
                                                  build/py/stream.o
                                                  build/py/objstringio.o
                                                  build/py/objstrunicode.o
                                                  build/py/objint.o
                                                  build/py/objarray.o
                                                  build/py/obj.o
                                                  build/py/persistentcode.o
                                                  build/py/parse.o
                                                  build/py/gc.o
mp_type_bytesio                                   build/py/objstringio.o
                                                  build/py/modio.o
mp_type_classmethod                               build/py/objtype.o
                                                  build/py/modbuiltins.o
                                                  build/py/objint.o
                                                  build/py/objdict.o
                                                  build/py/runtime.o
mp_type_complex                                   build/py/objcomplex.o
                                                  build/py/modbuiltins.o
                                                  build/py/objint_mpz.o
                                                  build/py/objfloat.o
                                                  build/py/obj.o
                                                  build/py/runtime.o
mp_type_deque                                     build/py/objdeque.o
                                                  build/py/modcollections.o
mp_type_dict                                      build/py/objdict.o
                                                  build/lib/utils/sys_stdio_mphal.o
                                                  build/msgpack.o
                                                  build/openpie_vfs.o
                                                  build/modumsgpack.o
                                                  build/modutime.o
                                                  build/moduos.o
                                                  build/modmachine.o
                                                  build/extmod/modurandom.o
                                                  build/extmod/machine_signal.o
                                                  build/extmod/modubinascii.o
                                                  build/extmod/moduhashlib.o
                                                  build/extmod/modutimeq.o
                                                  build/extmod/moduheapq.o
                                                  build/extmod/moduzlib.o
                                                  build/extmod/modure.o
                                                  build/extmod/modujson.o
                                                  build/extmod/moductypes.o
                                                  build/py/moduerrno.o
                                                  build/py/modsys.o
                                                  build/py/modstruct.o
                                                  build/py/modmicropython.o
                                                  build/py/modcmath.o
                                                  build/py/modmath.o
                                                  build/py/modio.o
                                                  build/py/modgc.o
                                                  build/py/modcollections.o
                                                  build/py/modbuiltins.o
                                                  build/py/modarray.o
                                                  build/py/builtinevex.o
                                                  build/py/objtype.o
                                                  build/py/objtuple.o
                                                  build/py/objstringio.o
                                                  build/py/objstrunicode.o
                                                  build/py/objstr.o
                                                  build/py/objset.o
                                                  build/py/objproperty.o
                                                  build/py/objobject.o
                                                  build/py/objlist.o
                                                  build/py/objint.o
                                                  build/py/objgenerator.o
                                                  build/py/objdeque.o
                                                  build/py/objarray.o
                                                  build/py/runtime.o
                                                  build/py/gc.o
mp_type_enumerate                                 build/py/objenumerate.o
                                                  build/py/modbuiltins.o
mp_type_filter                                    build/py/objfilter.o
                                                  build/py/modbuiltins.o
mp_type_float                                     build/py/objfloat.o
                                                  build/msgpack.o
                                                  build/py/modbuiltins.o
                                                  build/py/objstr.o
                                                  build/py/objint_mpz.o
                                                  build/py/objint.o
                                                  build/py/objarray.o
                                                  build/py/obj.o
                                                  build/py/runtime.o
                                                  build/py/gc.o
mp_type_frozenset                                 build/py/objset.o
                                                  build/py/modbuiltins.o
mp_type_fun_bc                                    build/py/objfun.o
                                                  build/py/vm.o
                                                  build/py/builtinevex.o
                                                  build/py/gc.o
mp_type_fun_builtin_0                             build/py/objfun.o
                                                  build/modmachine.o
                                                  build/extmod/utime_mphal.o
                                                  build/extmod/vfs.o
                                                  build/extmod/modurandom.o
                                                  build/py/modsys.o
                                                  build/py/modmicropython.o
                                                  build/py/modgc.o
                                                  build/py/modbuiltins.o
                                                  build/py/runtime.o
mp_type_fun_builtin_1                             build/py/objfun.o
                                                  build/lib/utils/pyexec.o
                                                  build/openpie_vfs.o
                                                  build/modumsgpack.o
                                                  build/modmachine.o
                                                  build/extmod/utime_mphal.o
                                                  build/extmod/vfs.o
                                                  build/extmod/modurandom.o
                                                  build/extmod/machine_signal.o
                                                  build/extmod/modubinascii.o
                                                  build/extmod/moduhashlib.o
                                                  build/extmod/modutimeq.o
                                                  build/extmod/moduheapq.o
                                                  build/extmod/modure.o
                                                  build/extmod/modujson.o
                                                  build/extmod/moductypes.o
                                                  build/py/modsys.o
                                                  build/py/modstruct.o
                                                  build/py/modmicropython.o
                                                  build/py/modcmath.o
                                                  build/py/modmath.o
                                                  build/py/modbuiltins.o
                                                  build/py/stream.o
                                                  build/py/objstringio.o
                                                  build/py/objstr.o
                                                  build/py/objset.o
                                                  build/py/objnamedtuple.o
                                                  build/py/objobject.o
                                                  build/py/objlist.o
                                                  build/py/objgenerator.o
                                                  build/py/objdict.o
                                                  build/py/objdeque.o
                                                  build/py/obj.o
                                                  build/py/runtime.o
mp_type_fun_builtin_2                             build/py/objfun.o
                                                  build/modmachine.o
                                                  build/extmod/utime_mphal.o
                                                  build/extmod/vfs.o
                                                  build/extmod/modurandom.o
                                                  build/extmod/moduhashlib.o
                                                  build/extmod/modutimeq.o
                                                  build/extmod/moduheapq.o
                                                  build/extmod/modure.o
                                                  build/extmod/modujson.o
                                                  build/extmod/moductypes.o
                                                  build/py/modmicropython.o
                                                  build/py/modcmath.o
                                                  build/py/modmath.o
                                                  build/py/modio.o
                                                  build/py/modbuiltins.o
                                                  build/py/stream.o
                                                  build/py/opmethods.o
                                                  build/py/objtype.o
                                                  build/py/objtuple.o
                                                  build/py/objstr.o
                                                  build/py/objset.o
                                                  build/py/objnamedtuple.o
                                                  build/py/objproperty.o
                                                  build/py/objlist.o
                                                  build/py/objgenerator.o
                                                  build/py/objdeque.o
                                                  build/py/objarray.o
                                                  build/py/runtime.o
mp_type_fun_builtin_3                             build/py/objfun.o
                                                  build/py/modbuiltins.o
                                                  build/py/opmethods.o
                                                  build/py/objlist.o
                                                  build/py/runtime.o
mp_type_fun_builtin_var                           build/py/objfun.o
                                                  build/lib/utils/sys_stdio_mphal.o
                                                  build/openpie_vfs.o
                                                  build/modmachine.o
                                                  build/extmod/vfs.o
                                                  build/extmod/modurandom.o
                                                  build/extmod/machine_signal.o
                                                  build/extmod/modubinascii.o
                                                  build/extmod/modutimeq.o
                                                  build/extmod/moduzlib.o
                                                  build/extmod/modure.o
                                                  build/py/modsys.o
                                                  build/py/modstruct.o
                                                  build/py/modmicropython.o
                                                  build/py/modmath.o
                                                  build/py/modgc.o
                                                  build/py/modbuiltins.o
                                                  build/py/builtinhelp.o
                                                  build/py/builtinevex.o
                                                  build/py/builtinimport.o
                                                  build/py/stream.o
                                                  build/py/objtype.o
                                                  build/py/objtuple.o
                                                  build/py/objstringio.o
                                                  build/py/objstr.o
                                                  build/py/objset.o
                                                  build/py/objlist.o
                                                  build/py/objint.o
                                                  build/py/objgenerator.o
                                                  build/py/objdict.o
                                                  build/py/runtime.o
mp_type_gen_instance                              build/py/objgenerator.o
                                                  build/py/runtime.o
mp_type_gen_wrap                                  build/py/objgenerator.o
                                                  build/py/emitglue.o
mp_type_int                                       build/py/objint.o
                                                  build/msgpack.o
                                                  build/modmachine.o
                                                  build/py/modbuiltins.o
                                                  build/py/binary.o
                                                  build/py/objstringio.o
                                                  build/py/objstr.o
                                                  build/py/objint_mpz.o
                                                  build/py/objarray.o
                                                  build/py/obj.o
                                                  build/py/parse.o
                                                  build/py/mpprint.o
mp_type_list                                      build/py/objlist.o
                                                  build/msgpack.o
                                                  build/extmod/modutimeq.o
                                                  build/extmod/moduheapq.o
                                                  build/extmod/modujson.o
                                                  build/py/modbuiltins.o
                                                  build/py/objstr.o
                                                  build/py/objint.o
                                                  build/py/obj.o
                                                  build/py/runtime.o
                                                  build/py/gc.o
mp_type_map                                       build/py/objmap.o
                                                  build/py/modbuiltins.o
mp_type_memoryview                                build/py/objarray.o
                                                  build/py/modbuiltins.o
mp_type_module                                    build/py/objmodule.o
                                                  build/modumsgpack.o
                                                  build/modutime.o
                                                  build/moduos.o
                                                  build/modmachine.o
                                                  build/extmod/modurandom.o
                                                  build/extmod/modubinascii.o
                                                  build/extmod/moduhashlib.o
                                                  build/extmod/modutimeq.o
                                                  build/extmod/moduheapq.o
                                                  build/extmod/moduzlib.o
                                                  build/extmod/modure.o
                                                  build/extmod/modujson.o
                                                  build/extmod/moductypes.o
                                                  build/py/moduerrno.o
                                                  build/py/modsys.o
                                                  build/py/modstruct.o
                                                  build/py/modmicropython.o
                                                  build/py/modcmath.o
                                                  build/py/modmath.o
                                                  build/py/modio.o
                                                  build/py/modgc.o
                                                  build/py/modcollections.o
                                                  build/py/modbuiltins.o
                                                  build/py/modarray.o
                                                  build/py/builtinhelp.o
                                                  build/py/runtime.o
                                                  build/py/gc.o
mp_type_object                                    build/py/objobject.o
                                                  build/py/modbuiltins.o
                                                  build/py/objtype.o
mp_type_ordereddict                               build/py/objdict.o
                                                  build/py/modcollections.o
                                                  build/py/objnamedtuple.o
mp_type_polymorph_iter                            build/py/objpolyiter.o
                                                  build/extmod/vfs.o
                                                  build/py/objtuple.o
                                                  build/py/objstrunicode.o
                                                  build/py/objstr.o
                                                  build/py/objset.o
                                                  build/py/objlist.o
mp_type_property                                  build/py/objproperty.o
                                                  build/py/modbuiltins.o
                                                  build/py/objtype.o
mp_type_range                                     build/py/objrange.o
                                                  build/py/modbuiltins.o
mp_type_reversed                                  build/py/objreversed.o
                                                  build/py/modbuiltins.o
mp_type_set                                       build/py/objset.o
                                                  build/py/modbuiltins.o
mp_type_singleton                                 build/py/objsingleton.o
mp_type_slice                                     build/py/objslice.o
                                                  build/py/modbuiltins.o
                                                  build/py/objtuple.o
                                                  build/py/objstrunicode.o
                                                  build/py/objstr.o
                                                  build/py/objrange.o
                                                  build/py/objlist.o
                                                  build/py/objarray.o
mp_type_staticmethod                              build/py/objtype.o
                                                  build/py/modbuiltins.o
                                                  build/py/objobject.o
                                                  build/py/runtime.o
mp_type_str                                       build/py/objstrunicode.o
                                                  build/msgpack.o
                                                  build/modmachine.o
                                                  build/build/frozen_mpy.o
                                                  build/extmod/vfs.o
                                                  build/extmod/modujson.o
                                                  build/py/modsys.o
                                                  build/py/modbuiltins.o
                                                  build/py/stream.o
                                                  build/py/objstringio.o
                                                  build/py/objstr.o
                                                  build/py/objnamedtuple.o
                                                  build/py/objexcept.o
                                                  build/py/objcomplex.o
                                                  build/py/obj.o
                                                  build/py/map.o
                                                  build/py/persistentcode.o
                                                  build/py/parsenum.o
                                                  build/py/compile.o
                                                  build/py/parse.o
                                                  build/py/gc.o
mp_type_stringio                                  build/py/objstringio.o
                                                  build/extmod/modujson.o
                                                  build/py/modio.o
mp_type_super                                     build/py/objtype.o
                                                  build/py/modbuiltins.o
mp_type_tuple                                     build/py/objtuple.o
                                                  build/msgpack.o
                                                  build/extmod/moductypes.o
                                                  build/py/modsys.o
                                                  build/py/modbuiltins.o
                                                  build/py/objtype.o
                                                  build/py/objstr.o
                                                  build/py/objnamedtuple.o
                                                  build/py/objint.o
                                                  build/py/objexcept.o
                                                  build/py/obj.o
                                                  build/py/runtime.o
                                                  build/py/gc.o
mp_type_type                                      build/py/objtype.o
                                                  build/lib/utils/sys_stdio_mphal.o
                                                  build/openpie_vfs.o
                                                  build/machine.o
                                                  build/extmod/machine_signal.o
                                                  build/extmod/machine_pinbase.o
                                                  build/extmod/machine_mem.o
                                                  build/extmod/moduhashlib.o
                                                  build/extmod/modutimeq.o
                                                  build/extmod/moduzlib.o
                                                  build/extmod/modure.o
                                                  build/extmod/moductypes.o
                                                  build/py/modbuiltins.o
                                                  build/py/builtinhelp.o
                                                  build/py/builtinevex.o
                                                  build/py/objzip.o
                                                  build/py/objtuple.o
                                                  build/py/objstringio.o
                                                  build/py/objstrunicode.o
                                                  build/py/objstr.o
                                                  build/py/objslice.o
                                                  build/py/objsingleton.o
                                                  build/py/objset.o
                                                  build/py/objreversed.o
                                                  build/py/objrange.o
                                                  build/py/objnamedtuple.o
                                                  build/py/objnone.o
                                                  build/py/objproperty.o
                                                  build/py/objpolyiter.o
                                                  build/py/objobject.o
                                                  build/py/objmodule.o
                                                  build/py/objmap.o
                                                  build/py/objlist.o
                                                  build/py/objint.o
                                                  build/py/objgetitemiter.o
                                                  build/py/objgenerator.o
                                                  build/py/objfun.o
                                                  build/py/objfloat.o
                                                  build/py/objfilter.o
                                                  build/py/objexcept.o
                                                  build/py/objenumerate.o
                                                  build/py/objdict.o
                                                  build/py/objdeque.o
                                                  build/py/objcomplex.o
                                                  build/py/objclosure.o
                                                  build/py/objcell.o
                                                  build/py/objboundmeth.o
                                                  build/py/objbool.o
                                                  build/py/objattrtuple.o
                                                  build/py/objarray.o
                                                  build/py/runtime.o
mp_type_vfs_openpie_fileio                        build/openpie_vfs.o
                                                  build/py/modio.o
mp_type_vfs_openpie_textio                        build/openpie_vfs.o
                                                  build/py/modio.o
mp_type_zip                                       build/py/objzip.o
                                                  build/py/modbuiltins.o
mp_unary_op                                       build/py/runtime.o
                                                  build/py/vm.o
                                                  build/py/modsys.o
                                                  build/py/modbuiltins.o
                                                  build/py/objtype.o
                                                  build/py/objtuple.o
                                                  build/py/objset.o
                                                  build/py/objbool.o
                                                  build/py/map.o
                                                  build/py/parse.o
mp_unary_op_method_name                           build/py/objtype.o
                                                  build/py/runtime.o
mp_unpack_ex                                      build/py/runtime.o
                                                  build/py/vm.o
mp_unpack_sequence                                build/py/runtime.o
                                                  build/py/vm.o
mp_utime_sleep_ms_obj                             build/extmod/utime_mphal.o
                                                  build/modutime.o
mp_utime_sleep_obj                                build/extmod/utime_mphal.o
                                                  build/modutime.o
mp_utime_sleep_us_obj                             build/extmod/utime_mphal.o
mp_utime_ticks_add_obj                            build/extmod/utime_mphal.o
                                                  build/modutime.o
mp_utime_ticks_cpu_obj                            build/extmod/utime_mphal.o
                                                  build/modutime.o
mp_utime_ticks_diff_obj                           build/extmod/utime_mphal.o
                                                  build/modutime.o
mp_utime_ticks_ms_obj                             build/extmod/utime_mphal.o
                                                  build/modutime.o
mp_utime_ticks_us_obj                             build/extmod/utime_mphal.o
mp_vfs_chdir                                      build/extmod/vfs.o
mp_vfs_chdir_obj                                  build/extmod/vfs.o
                                                  build/moduos.o
mp_vfs_getcwd                                     build/extmod/vfs.o
mp_vfs_getcwd_obj                                 build/extmod/vfs.o
                                                  build/moduos.o
mp_vfs_ilistdir                                   build/extmod/vfs.o
mp_vfs_ilistdir_obj                               build/extmod/vfs.o
                                                  build/moduos.o
mp_vfs_import_stat                                build/extmod/vfs.o
                                                  build/py/builtinimport.o
mp_vfs_listdir                                    build/extmod/vfs.o
mp_vfs_listdir_obj                                build/extmod/vfs.o
                                                  build/moduos.o
mp_vfs_lookup_path                                build/extmod/vfs.o
mp_vfs_mkdir                                      build/extmod/vfs.o
mp_vfs_mkdir_obj                                  build/extmod/vfs.o
                                                  build/moduos.o
mp_vfs_mount                                      build/extmod/vfs.o
mp_vfs_mount_obj                                  build/extmod/vfs.o
                                                  build/moduos.o
mp_vfs_open                                       build/extmod/vfs.o
                                                  build/extmod/vfs_reader.o
                                                  build/py/modio.o
mp_vfs_open_obj                                   build/extmod/vfs.o
                                                  build/py/modio.o
                                                  build/py/modbuiltins.o
mp_vfs_openpie_file_open                          build/openpie_vfs.o
mp_vfs_remove                                     build/extmod/vfs.o
mp_vfs_remove_obj                                 build/extmod/vfs.o
                                                  build/moduos.o
mp_vfs_rename                                     build/extmod/vfs.o
mp_vfs_rename_obj                                 build/extmod/vfs.o
                                                  build/moduos.o
mp_vfs_rmdir                                      build/extmod/vfs.o
mp_vfs_rmdir_obj                                  build/extmod/vfs.o
                                                  build/moduos.o
mp_vfs_stat                                       build/extmod/vfs.o
mp_vfs_stat_obj                                   build/extmod/vfs.o
                                                  build/moduos.o
mp_vfs_statvfs                                    build/extmod/vfs.o
mp_vfs_statvfs_obj                                build/extmod/vfs.o
                                                  build/moduos.o
mp_vfs_umount                                     build/extmod/vfs.o
mp_vfs_umount_obj                                 build/extmod/vfs.o
                                                  build/moduos.o
mp_virtual_pin_read                               build/extmod/virtpin.o
                                                  build/extmod/machine_signal.o
mp_virtual_pin_write                              build/extmod/virtpin.o
                                                  build/extmod/machine_signal.o
mp_vprintf                                        build/py/mpprint.o
                                                  build/lib/utils/printf.o
                                                  build/py/objexcept.o
                                                  build/py/warning.o
                                                  build/py/vstr.o
mp_warning                                        build/py/warning.o
                                                  build/py/vm.o
                                                  build/py/obj.o
mpack_discard                                     build/lib/mpack/mpack-reader.o
                                                  build/lib/mpack/mpack-expect.o
mpack_done_array                                  build/lib/mpack/mpack-platform.o
mpack_done_bin                                    build/lib/mpack/mpack-platform.o
mpack_done_ext                                    build/lib/mpack/mpack-platform.o
mpack_done_map                                    build/lib/mpack/mpack-platform.o
mpack_done_str                                    build/lib/mpack/mpack-platform.o
mpack_done_type                                   build/lib/mpack/mpack-platform.o
mpack_error_to_string                             build/lib/mpack/mpack-common.o
mpack_expect_array                                build/lib/mpack/mpack-expect.o
mpack_expect_array_alloc_impl                     build/lib/mpack/mpack-expect.o
mpack_expect_array_match                          build/lib/mpack/mpack-expect.o
mpack_expect_array_max                            build/lib/mpack/mpack-platform.o
                                                  build/lib/mpack/mpack-expect.o
mpack_expect_array_max_or_nil                     build/lib/mpack/mpack-expect.o
mpack_expect_array_or_nil                         build/lib/mpack/mpack-expect.o
mpack_expect_array_range                          build/lib/mpack/mpack-expect.o
                                                  build/lib/mpack/mpack-platform.o
mpack_expect_bin                                  build/lib/mpack/mpack-expect.o
                                                  build/lib/mpack/mpack-platform.o
mpack_expect_bin_alloc                            build/lib/mpack/mpack-expect.o
mpack_expect_bin_buf                              build/lib/mpack/mpack-expect.o
mpack_expect_bin_max                              build/lib/mpack/mpack-platform.o
                                                  build/lib/mpack/mpack-expect.o
mpack_expect_bin_size                             build/lib/mpack/mpack-platform.o
mpack_expect_bool                                 build/lib/mpack/mpack-expect.o
mpack_expect_cstr                                 build/lib/mpack/mpack-expect.o
mpack_expect_cstr_alloc                           build/lib/mpack/mpack-expect.o
mpack_expect_cstr_match                           build/lib/mpack/mpack-platform.o
mpack_expect_double                               build/lib/mpack/mpack-expect.o
mpack_expect_double_range                         build/lib/mpack/mpack-expect.o
mpack_expect_double_strict                        build/lib/mpack/mpack-expect.o
mpack_expect_enum                                 build/lib/mpack/mpack-expect.o
mpack_expect_enum_optional                        build/lib/mpack/mpack-expect.o
mpack_expect_ext                                  build/lib/mpack/mpack-expect.o
                                                  build/lib/mpack/mpack-platform.o
mpack_expect_ext_alloc                            build/lib/mpack/mpack-expect.o
mpack_expect_ext_buf                              build/lib/mpack/mpack-expect.o
mpack_expect_ext_max                              build/lib/mpack/mpack-platform.o
                                                  build/lib/mpack/mpack-expect.o
mpack_expect_ext_size                             build/lib/mpack/mpack-platform.o
mpack_expect_false                                build/lib/mpack/mpack-expect.o
mpack_expect_float                                build/lib/mpack/mpack-expect.o
mpack_expect_float_range                          build/lib/mpack/mpack-expect.o
mpack_expect_float_strict                         build/lib/mpack/mpack-expect.o
mpack_expect_i16                                  build/lib/mpack/mpack-expect.o
mpack_expect_i16_max                              build/lib/mpack/mpack-platform.o
mpack_expect_i16_range                            build/lib/mpack/mpack-expect.o
                                                  build/lib/mpack/mpack-platform.o
mpack_expect_i32                                  build/lib/mpack/mpack-expect.o
                                                  build/lib/mpack/mpack-platform.o
mpack_expect_i32_max                              build/lib/mpack/mpack-platform.o
mpack_expect_i32_range                            build/lib/mpack/mpack-expect.o
                                                  build/lib/mpack/mpack-platform.o
mpack_expect_i64                                  build/lib/mpack/mpack-expect.o
mpack_expect_i64_max                              build/lib/mpack/mpack-platform.o
mpack_expect_i64_range                            build/lib/mpack/mpack-expect.o
                                                  build/lib/mpack/mpack-platform.o
mpack_expect_i8                                   build/lib/mpack/mpack-expect.o
mpack_expect_i8_max                               build/lib/mpack/mpack-platform.o
mpack_expect_i8_range                             build/lib/mpack/mpack-expect.o
                                                  build/lib/mpack/mpack-platform.o
mpack_expect_int                                  build/lib/mpack/mpack-platform.o
mpack_expect_int_match                            build/lib/mpack/mpack-expect.o
mpack_expect_int_max                              build/lib/mpack/mpack-platform.o
mpack_expect_int_range                            build/lib/mpack/mpack-platform.o
mpack_expect_key_cstr                             build/lib/mpack/mpack-expect.o
mpack_expect_key_uint                             build/lib/mpack/mpack-expect.o
mpack_expect_map                                  build/lib/mpack/mpack-expect.o
mpack_expect_map_match                            build/lib/mpack/mpack-expect.o
mpack_expect_map_max                              build/lib/mpack/mpack-platform.o
mpack_expect_map_max_or_nil                       build/lib/mpack/mpack-expect.o
mpack_expect_map_or_nil                           build/lib/mpack/mpack-expect.o
mpack_expect_map_range                            build/lib/mpack/mpack-expect.o
                                                  build/lib/mpack/mpack-platform.o
mpack_expect_nil                                  build/lib/mpack/mpack-expect.o
mpack_expect_str                                  build/lib/mpack/mpack-expect.o
                                                  build/lib/mpack/mpack-platform.o
mpack_expect_str_buf                              build/lib/mpack/mpack-expect.o
mpack_expect_str_length                           build/lib/mpack/mpack-platform.o
                                                  build/lib/mpack/mpack-expect.o
mpack_expect_str_match                            build/lib/mpack/mpack-expect.o
                                                  build/lib/mpack/mpack-platform.o
mpack_expect_str_max                              build/lib/mpack/mpack-platform.o
                                                  build/lib/mpack/mpack-expect.o
mpack_expect_tag                                  build/lib/mpack/mpack-expect.o
mpack_expect_timestamp                            build/lib/mpack/mpack-expect.o
mpack_expect_timestamp_truncate                   build/lib/mpack/mpack-expect.o
mpack_expect_true                                 build/lib/mpack/mpack-expect.o
mpack_expect_u16                                  build/lib/mpack/mpack-expect.o
mpack_expect_u16_max                              build/lib/mpack/mpack-platform.o
mpack_expect_u16_range                            build/lib/mpack/mpack-expect.o
                                                  build/lib/mpack/mpack-platform.o
mpack_expect_u32                                  build/lib/mpack/mpack-expect.o
                                                  build/lib/mpack/mpack-platform.o
mpack_expect_u32_max                              build/lib/mpack/mpack-platform.o
mpack_expect_u32_range                            build/lib/mpack/mpack-expect.o
                                                  build/lib/mpack/mpack-platform.o
mpack_expect_u64                                  build/lib/mpack/mpack-expect.o
mpack_expect_u64_max                              build/lib/mpack/mpack-platform.o
mpack_expect_u64_range                            build/lib/mpack/mpack-expect.o
                                                  build/lib/mpack/mpack-platform.o
mpack_expect_u8                                   build/lib/mpack/mpack-expect.o
mpack_expect_u8_max                               build/lib/mpack/mpack-platform.o
mpack_expect_u8_range                             build/lib/mpack/mpack-expect.o
                                                  build/lib/mpack/mpack-platform.o
mpack_expect_uint                                 build/lib/mpack/mpack-platform.o
mpack_expect_uint_match                           build/lib/mpack/mpack-expect.o
mpack_expect_uint_max                             build/lib/mpack/mpack-platform.o
mpack_expect_uint_range                           build/lib/mpack/mpack-platform.o
mpack_expect_utf8                                 build/lib/mpack/mpack-expect.o
mpack_expect_utf8_cstr                            build/lib/mpack/mpack-expect.o
mpack_expect_utf8_cstr_alloc                      build/lib/mpack/mpack-expect.o
mpack_finish_array                                build/lib/mpack/mpack-platform.o
mpack_finish_bin                                  build/lib/mpack/mpack-platform.o
mpack_finish_ext                                  build/lib/mpack/mpack-platform.o
mpack_finish_map                                  build/lib/mpack/mpack-platform.o
mpack_finish_str                                  build/lib/mpack/mpack-platform.o
mpack_finish_type                                 build/lib/mpack/mpack-platform.o
mpack_load_double                                 build/lib/mpack/mpack-platform.o
mpack_load_float                                  build/lib/mpack/mpack-platform.o
mpack_load_i16                                    build/lib/mpack/mpack-platform.o
mpack_load_i32                                    build/lib/mpack/mpack-platform.o
mpack_load_i64                                    build/lib/mpack/mpack-platform.o
mpack_load_i8                                     build/lib/mpack/mpack-platform.o
mpack_load_u16                                    build/lib/mpack/mpack-platform.o
mpack_load_u32                                    build/lib/mpack/mpack-platform.o
                                                  build/lib/mpack/mpack-reader.o
                                                  build/lib/mpack/mpack-node.o
mpack_load_u64                                    build/lib/mpack/mpack-platform.o
                                                  build/lib/mpack/mpack-reader.o
                                                  build/lib/mpack/mpack-node.o
mpack_load_u8                                     build/lib/mpack/mpack-platform.o
mpack_memmove                                     build/lib/mpack/mpack-platform.o
                                                  build/lib/mpack/mpack-reader.o
                                                  build/lib/mpack/mpack-node.o
mpack_node                                        build/lib/mpack/mpack-platform.o
mpack_node_array_at                               build/lib/mpack/mpack-node.o
mpack_node_array_length                           build/lib/mpack/mpack-node.o
mpack_node_bin_data                               build/lib/mpack/mpack-node.o
mpack_node_bin_size                               build/lib/mpack/mpack-node.o
mpack_node_bool                                   build/lib/mpack/mpack-node.o
mpack_node_check_utf8                             build/lib/mpack/mpack-node.o
mpack_node_check_utf8_cstr                        build/lib/mpack/mpack-node.o
mpack_node_child                                  build/lib/mpack/mpack-platform.o
mpack_node_copy_cstr                              build/lib/mpack/mpack-node.o
mpack_node_copy_data                              build/lib/mpack/mpack-node.o
mpack_node_copy_utf8                              build/lib/mpack/mpack-node.o
mpack_node_copy_utf8_cstr                         build/lib/mpack/mpack-node.o
mpack_node_cstr_alloc                             build/lib/mpack/mpack-node.o
mpack_node_data                                   build/lib/mpack/mpack-node.o
mpack_node_data_alloc                             build/lib/mpack/mpack-node.o
mpack_node_data_len                               build/lib/mpack/mpack-node.o
mpack_node_double                                 build/lib/mpack/mpack-node.o
mpack_node_double_strict                          build/lib/mpack/mpack-node.o
mpack_node_enum                                   build/lib/mpack/mpack-node.o
mpack_node_enum_optional                          build/lib/mpack/mpack-node.o
mpack_node_error                                  build/lib/mpack/mpack-platform.o
mpack_node_exttype                                build/lib/mpack/mpack-node.o
mpack_node_false                                  build/lib/mpack/mpack-node.o
mpack_node_flag_error                             build/lib/mpack/mpack-node.o
mpack_node_float                                  build/lib/mpack/mpack-node.o
mpack_node_float_strict                           build/lib/mpack/mpack-node.o
mpack_node_i16                                    build/lib/mpack/mpack-node.o
mpack_node_i32                                    build/lib/mpack/mpack-node.o
mpack_node_i64                                    build/lib/mpack/mpack-node.o
mpack_node_i8                                     build/lib/mpack/mpack-node.o
mpack_node_int                                    build/lib/mpack/mpack-node.o
mpack_node_is_missing                             build/lib/mpack/mpack-node.o
mpack_node_is_nil                                 build/lib/mpack/mpack-node.o
mpack_node_map_contains_cstr                      build/lib/mpack/mpack-node.o
mpack_node_map_contains_int                       build/lib/mpack/mpack-node.o
mpack_node_map_contains_str                       build/lib/mpack/mpack-node.o
mpack_node_map_contains_uint                      build/lib/mpack/mpack-node.o
mpack_node_map_count                              build/lib/mpack/mpack-node.o
mpack_node_map_cstr                               build/lib/mpack/mpack-node.o
mpack_node_map_cstr_optional                      build/lib/mpack/mpack-node.o
mpack_node_map_int                                build/lib/mpack/mpack-node.o
mpack_node_map_int_optional                       build/lib/mpack/mpack-node.o
mpack_node_map_key_at                             build/lib/mpack/mpack-node.o
mpack_node_map_str                                build/lib/mpack/mpack-node.o
mpack_node_map_str_optional                       build/lib/mpack/mpack-node.o
mpack_node_map_uint                               build/lib/mpack/mpack-node.o
mpack_node_map_uint_optional                      build/lib/mpack/mpack-node.o
mpack_node_map_value_at                           build/lib/mpack/mpack-node.o
mpack_node_missing                                build/lib/mpack/mpack-node.o
mpack_node_nil                                    build/lib/mpack/mpack-node.o
mpack_node_str                                    build/lib/mpack/mpack-node.o
mpack_node_strlen                                 build/lib/mpack/mpack-node.o
mpack_node_tag                                    build/lib/mpack/mpack-node.o
mpack_node_timestamp                              build/lib/mpack/mpack-node.o
mpack_node_timestamp_nanoseconds                  build/lib/mpack/mpack-node.o
mpack_node_timestamp_seconds                      build/lib/mpack/mpack-node.o
mpack_node_true                                   build/lib/mpack/mpack-node.o
mpack_node_type                                   build/lib/mpack/mpack-node.o
mpack_node_u16                                    build/lib/mpack/mpack-node.o
mpack_node_u32                                    build/lib/mpack/mpack-node.o
mpack_node_u64                                    build/lib/mpack/mpack-node.o
mpack_node_u8                                     build/lib/mpack/mpack-node.o
mpack_node_uint                                   build/lib/mpack/mpack-node.o
mpack_node_utf8_cstr_alloc                        build/lib/mpack/mpack-node.o
mpack_peek_tag                                    build/lib/mpack/mpack-reader.o
                                                  build/lib/mpack/mpack-expect.o
mpack_read_bytes                                  build/lib/mpack/mpack-reader.o
                                                  build/lib/mpack/mpack-expect.o
mpack_read_bytes_alloc                            build/lib/mpack/mpack-platform.o
                                                  build/lib/mpack/mpack-expect.o
mpack_read_bytes_alloc_impl                       build/lib/mpack/mpack-reader.o
                                                  build/lib/mpack/mpack-platform.o
                                                  build/lib/mpack/mpack-expect.o
mpack_read_bytes_inplace                          build/lib/mpack/mpack-reader.o
                                                  build/lib/mpack/mpack-expect.o
                                                  build/msgpack.o
mpack_read_cstr                                   build/lib/mpack/mpack-reader.o
                                                  build/lib/mpack/mpack-expect.o
mpack_read_native                                 build/lib/mpack/mpack-platform.o
                                                  build/lib/mpack/mpack-reader.o
mpack_read_native_straddle                        build/lib/mpack/mpack-reader.o
                                                  build/lib/mpack/mpack-platform.o
mpack_read_tag                                    build/lib/mpack/mpack-reader.o
                                                  build/lib/mpack/mpack-expect.o
                                                  build/msgpack.o
mpack_read_timestamp                              build/lib/mpack/mpack-reader.o
                                                  build/lib/mpack/mpack-expect.o
mpack_read_utf8                                   build/lib/mpack/mpack-reader.o
mpack_read_utf8_cstr                              build/lib/mpack/mpack-reader.o
                                                  build/lib/mpack/mpack-expect.o
mpack_read_utf8_inplace                           build/lib/mpack/mpack-reader.o
                                                  build/msgpack.o
mpack_reader_destroy                              build/lib/mpack/mpack-reader.o
mpack_reader_ensure                               build/lib/mpack/mpack-platform.o
                                                  build/lib/mpack/mpack-reader.o
                                                  build/lib/mpack/mpack-expect.o
mpack_reader_ensure_straddle                      build/lib/mpack/mpack-reader.o
                                                  build/lib/mpack/mpack-platform.o
mpack_reader_error                                build/lib/mpack/mpack-platform.o
mpack_reader_flag_error                           build/lib/mpack/mpack-reader.o
                                                  build/lib/mpack/mpack-platform.o
                                                  build/lib/mpack/mpack-expect.o
mpack_reader_flag_if_error                        build/lib/mpack/mpack-platform.o
mpack_reader_init                                 build/lib/mpack/mpack-reader.o
mpack_reader_init_data                            build/lib/mpack/mpack-reader.o
                                                  build/msgpack.o
mpack_reader_init_error                           build/lib/mpack/mpack-reader.o
mpack_reader_remaining                            build/lib/mpack/mpack-reader.o
                                                  build/msgpack.o
mpack_reader_set_context                          build/lib/mpack/mpack-platform.o
mpack_reader_set_error_handler                    build/lib/mpack/mpack-platform.o
mpack_reader_set_fill                             build/lib/mpack/mpack-reader.o
mpack_reader_set_skip                             build/lib/mpack/mpack-reader.o
mpack_reader_set_teardown                         build/lib/mpack/mpack-platform.o
mpack_reader_track_bytes                          build/lib/mpack/mpack-platform.o
mpack_reader_track_element                        build/lib/mpack/mpack-platform.o
mpack_reader_track_peek_element                   build/lib/mpack/mpack-platform.o
mpack_reader_track_str_bytes_all                  build/lib/mpack/mpack-platform.o
mpack_realloc                                     build/lib/mpack/mpack-platform.o
mpack_should_read_bytes_inplace                   build/lib/mpack/mpack-platform.o
mpack_skip_bytes                                  build/lib/mpack/mpack-reader.o
mpack_start_array                                 build/lib/mpack/mpack-writer.o
                                                  build/msgpack.o
                                                  build/modmachine.o
mpack_start_bin                                   build/lib/mpack/mpack-writer.o
mpack_start_ext                                   build/lib/mpack/mpack-writer.o
mpack_start_map                                   build/lib/mpack/mpack-writer.o
                                                  build/msgpack.o
mpack_start_str                                   build/lib/mpack/mpack-writer.o
mpack_store_double                                build/lib/mpack/mpack-platform.o
mpack_store_float                                 build/lib/mpack/mpack-platform.o
mpack_store_i16                                   build/lib/mpack/mpack-platform.o
mpack_store_i32                                   build/lib/mpack/mpack-platform.o
mpack_store_i64                                   build/lib/mpack/mpack-platform.o
mpack_store_i8                                    build/lib/mpack/mpack-platform.o
mpack_store_u16                                   build/lib/mpack/mpack-platform.o
mpack_store_u32                                   build/lib/mpack/mpack-platform.o
                                                  build/lib/mpack/mpack-writer.o
mpack_store_u64                                   build/lib/mpack/mpack-platform.o
                                                  build/lib/mpack/mpack-writer.o
mpack_store_u8                                    build/lib/mpack/mpack-platform.o
mpack_str_check_no_null                           build/lib/mpack/mpack-common.o
                                                  build/lib/mpack/mpack-reader.o
                                                  build/lib/mpack/mpack-node.o
                                                  build/lib/mpack/mpack-expect.o
mpack_tag_array                                   build/lib/mpack/mpack-platform.o
mpack_tag_array_count                             build/lib/mpack/mpack-platform.o
mpack_tag_bin                                     build/lib/mpack/mpack-platform.o
mpack_tag_bin_length                              build/lib/mpack/mpack-platform.o
mpack_tag_bool                                    build/lib/mpack/mpack-platform.o
mpack_tag_bool_value                              build/lib/mpack/mpack-platform.o
mpack_tag_bytes                                   build/lib/mpack/mpack-platform.o
mpack_tag_cmp                                     build/lib/mpack/mpack-common.o
                                                  build/lib/mpack/mpack-platform.o
mpack_tag_double                                  build/lib/mpack/mpack-platform.o
mpack_tag_double_value                            build/lib/mpack/mpack-platform.o
mpack_tag_equal                                   build/lib/mpack/mpack-platform.o
                                                  build/lib/mpack/mpack-expect.o
mpack_tag_ext                                     build/lib/mpack/mpack-platform.o
mpack_tag_ext_exttype                             build/lib/mpack/mpack-platform.o
mpack_tag_ext_length                              build/lib/mpack/mpack-platform.o
mpack_tag_false                                   build/lib/mpack/mpack-platform.o
mpack_tag_float                                   build/lib/mpack/mpack-platform.o
mpack_tag_float_value                             build/lib/mpack/mpack-platform.o
mpack_tag_int                                     build/lib/mpack/mpack-platform.o
mpack_tag_int_value                               build/lib/mpack/mpack-platform.o
mpack_tag_make_array                              build/lib/mpack/mpack-platform.o
                                                  build/lib/mpack/mpack-reader.o
mpack_tag_make_bin                                build/lib/mpack/mpack-platform.o
                                                  build/lib/mpack/mpack-reader.o
mpack_tag_make_bool                               build/lib/mpack/mpack-platform.o
                                                  build/lib/mpack/mpack-reader.o
mpack_tag_make_double                             build/lib/mpack/mpack-platform.o
mpack_tag_make_ext                                build/lib/mpack/mpack-platform.o
                                                  build/lib/mpack/mpack-reader.o
mpack_tag_make_false                              build/lib/mpack/mpack-platform.o
mpack_tag_make_float                              build/lib/mpack/mpack-platform.o
                                                  build/lib/mpack/mpack-reader.o
mpack_tag_make_int                                build/lib/mpack/mpack-platform.o
mpack_tag_make_map                                build/lib/mpack/mpack-platform.o
                                                  build/lib/mpack/mpack-reader.o
mpack_tag_make_nil                                build/lib/mpack/mpack-platform.o
mpack_tag_make_str                                build/lib/mpack/mpack-platform.o
                                                  build/lib/mpack/mpack-reader.o
mpack_tag_make_true                               build/lib/mpack/mpack-platform.o
mpack_tag_make_uint                               build/lib/mpack/mpack-platform.o
mpack_tag_map                                     build/lib/mpack/mpack-platform.o
mpack_tag_map_count                               build/lib/mpack/mpack-platform.o
mpack_tag_nil                                     build/lib/mpack/mpack-platform.o
mpack_tag_str                                     build/lib/mpack/mpack-platform.o
mpack_tag_str_length                              build/lib/mpack/mpack-platform.o
mpack_tag_true                                    build/lib/mpack/mpack-platform.o
mpack_tag_type                                    build/lib/mpack/mpack-platform.o
mpack_tag_uint                                    build/lib/mpack/mpack-platform.o
mpack_tag_uint_value                              build/lib/mpack/mpack-platform.o
mpack_tree_destroy                                build/lib/mpack/mpack-node.o
mpack_tree_error                                  build/lib/mpack/mpack-platform.o
mpack_tree_flag_error                             build/lib/mpack/mpack-node.o
mpack_tree_init                                   build/lib/mpack/mpack-node.o
mpack_tree_init_error                             build/lib/mpack/mpack-node.o
mpack_tree_init_pool                              build/lib/mpack/mpack-node.o
mpack_tree_init_stream                            build/lib/mpack/mpack-node.o
mpack_tree_missing_node                           build/lib/mpack/mpack-platform.o
mpack_tree_nil_node                               build/lib/mpack/mpack-platform.o
mpack_tree_parse                                  build/lib/mpack/mpack-node.o
mpack_tree_root                                   build/lib/mpack/mpack-node.o
mpack_tree_set_context                            build/lib/mpack/mpack-platform.o
mpack_tree_set_error_handler                      build/lib/mpack/mpack-platform.o
mpack_tree_set_teardown                           build/lib/mpack/mpack-platform.o
mpack_tree_size                                   build/lib/mpack/mpack-platform.o
mpack_tree_try_parse                              build/lib/mpack/mpack-node.o
mpack_type_to_string                              build/lib/mpack/mpack-common.o
mpack_utf8_check                                  build/lib/mpack/mpack-common.o
                                                  build/lib/mpack/mpack-writer.o
                                                  build/lib/mpack/mpack-reader.o
                                                  build/lib/mpack/mpack-node.o
                                                  build/lib/mpack/mpack-expect.o
mpack_utf8_check_no_null                          build/lib/mpack/mpack-common.o
                                                  build/lib/mpack/mpack-reader.o
                                                  build/lib/mpack/mpack-node.o
                                                  build/lib/mpack/mpack-expect.o
mpack_write_bin                                   build/lib/mpack/mpack-writer.o
                                                  build/msgpack.o
mpack_write_bool                                  build/lib/mpack/mpack-writer.o
                                                  build/msgpack.o
mpack_write_bytes                                 build/lib/mpack/mpack-writer.o
mpack_write_cstr                                  build/lib/mpack/mpack-writer.o
mpack_write_cstr_or_nil                           build/lib/mpack/mpack-writer.o
mpack_write_double                                build/lib/mpack/mpack-writer.o
mpack_write_ext                                   build/lib/mpack/mpack-writer.o
mpack_write_false                                 build/lib/mpack/mpack-writer.o
mpack_write_float                                 build/lib/mpack/mpack-writer.o
                                                  build/msgpack.o
mpack_write_i16                                   build/lib/mpack/mpack-writer.o
mpack_write_i32                                   build/lib/mpack/mpack-writer.o
mpack_write_i64                                   build/lib/mpack/mpack-writer.o
                                                  build/lib/mpack/mpack-platform.o
                                                  build/msgpack.o
mpack_write_i8                                    build/lib/mpack/mpack-writer.o
mpack_write_int                                   build/lib/mpack/mpack-platform.o
mpack_write_nil                                   build/lib/mpack/mpack-writer.o
                                                  build/msgpack.o
mpack_write_object_bytes                          build/lib/mpack/mpack-writer.o
mpack_write_str                                   build/lib/mpack/mpack-writer.o
                                                  build/msgpack.o
mpack_write_tag                                   build/lib/mpack/mpack-writer.o
mpack_write_timestamp                             build/lib/mpack/mpack-writer.o
                                                  build/lib/mpack/mpack-platform.o
mpack_write_timestamp_seconds                     build/lib/mpack/mpack-platform.o
mpack_write_timestamp_struct                      build/lib/mpack/mpack-platform.o
mpack_write_true                                  build/lib/mpack/mpack-writer.o
mpack_write_u16                                   build/lib/mpack/mpack-writer.o
mpack_write_u32                                   build/lib/mpack/mpack-writer.o
mpack_write_u64                                   build/lib/mpack/mpack-writer.o
                                                  build/lib/mpack/mpack-platform.o
mpack_write_u8                                    build/lib/mpack/mpack-writer.o
mpack_write_uint                                  build/lib/mpack/mpack-platform.o
mpack_write_utf8                                  build/lib/mpack/mpack-writer.o
mpack_write_utf8_cstr                             build/lib/mpack/mpack-writer.o
mpack_write_utf8_cstr_or_nil                      build/lib/mpack/mpack-writer.o
mpack_writer_buffer_left                          build/lib/mpack/mpack-platform.o
mpack_writer_buffer_size                          build/lib/mpack/mpack-platform.o
mpack_writer_buffer_used                          build/lib/mpack/mpack-platform.o
mpack_writer_destroy                              build/lib/mpack/mpack-writer.o
                                                  build/msgpack.o
mpack_writer_error                                build/lib/mpack/mpack-platform.o
mpack_writer_flag_error                           build/lib/mpack/mpack-writer.o
mpack_writer_flush_message                        build/lib/mpack/mpack-writer.o
mpack_writer_init                                 build/lib/mpack/mpack-writer.o
mpack_writer_init_error                           build/lib/mpack/mpack-writer.o
mpack_writer_init_growable                        build/lib/mpack/mpack-writer.o
                                                  build/msgpack.o
mpack_writer_set_context                          build/lib/mpack/mpack-platform.o
mpack_writer_set_error_handler                    build/lib/mpack/mpack-platform.o
mpack_writer_set_flush                            build/lib/mpack/mpack-writer.o
mpack_writer_set_teardown                         build/lib/mpack/mpack-platform.o
mpack_writer_track_bytes                          build/lib/mpack/mpack-platform.o
mpack_writer_track_element                        build/lib/mpack/mpack-platform.o
mpack_writer_track_pop                            build/lib/mpack/mpack-platform.o
mpack_writer_track_push                           build/lib/mpack/mpack-platform.o
mpz_abs_inpl                                      build/py/mpz.o
                                                  build/py/objint_mpz.o
mpz_add_inpl                                      build/py/mpz.o
                                                  build/py/objint_mpz.o
mpz_and_inpl                                      build/py/mpz.o
                                                  build/py/objint_mpz.o
mpz_as_bytes                                      build/py/mpz.o
                                                  build/py/objint_mpz.o
mpz_as_float                                      build/py/mpz.o
                                                  build/py/objint_mpz.o
mpz_as_int_checked                                build/py/mpz.o
                                                  build/py/objint_mpz.o
mpz_as_str_inpl                                   build/py/mpz.o
                                                  build/py/objint_mpz.o
mpz_as_uint_checked                               build/py/mpz.o
mpz_cmp                                           build/py/mpz.o
                                                  build/py/objint_mpz.o
mpz_deinit                                        build/py/mpz.o
                                                  build/py/objint_mpz.o
mpz_divmod_inpl                                   build/py/mpz.o
                                                  build/py/objint_mpz.o
mpz_hash                                          build/py/mpz.o
                                                  build/py/objint_mpz.o
mpz_init_fixed_from_int                           build/py/mpz.o
                                                  build/py/objint_mpz.o
mpz_init_from_int                                 build/py/mpz.o
                                                  build/py/objint_mpz.o
mpz_init_zero                                     build/py/mpz.o
                                                  build/py/objint_mpz.o
mpz_mul_inpl                                      build/py/mpz.o
                                                  build/py/objint_mpz.o
mpz_neg_inpl                                      build/py/mpz.o
                                                  build/py/objint_mpz.o
mpz_not_inpl                                      build/py/mpz.o
                                                  build/py/objint_mpz.o
mpz_or_inpl                                       build/py/mpz.o
                                                  build/py/objint_mpz.o
mpz_pow3_inpl                                     build/py/mpz.o
                                                  build/py/objint_mpz.o
mpz_pow_inpl                                      build/py/mpz.o
                                                  build/py/objint_mpz.o
mpz_set                                           build/py/mpz.o
mpz_set_from_bytes                                build/py/mpz.o
                                                  build/py/objint_mpz.o
mpz_set_from_float                                build/py/mpz.o
                                                  build/py/objint.o
mpz_set_from_int                                  build/py/mpz.o
mpz_set_from_ll                                   build/py/mpz.o
                                                  build/py/objint_mpz.o
mpz_set_from_str                                  build/py/mpz.o
                                                  build/py/objint_mpz.o
mpz_shl_inpl                                      build/py/mpz.o
                                                  build/py/objint_mpz.o
mpz_shr_inpl                                      build/py/mpz.o
                                                  build/py/objint_mpz.o
mpz_sub_inpl                                      build/py/mpz.o
                                                  build/py/objint_mpz.o
mpz_xor_inpl                                      build/py/mpz.o
                                                  build/py/objint_mpz.o
msgpack_dump                                      build/msgpack.o
                                                  build/modmachine.o
msgpack_dump_close                                build/msgpack.o
                                                  build/modmachine.o
msgpack_dump_new                                  build/msgpack.o
                                                  build/modmachine.o
msgpack_dumps                                     build/msgpack.o
                                                  build/modumsgpack.o
msgpack_load                                      build/msgpack.o
msgpack_load_new                                  build/msgpack.o
msgpack_loads                                     build/msgpack.o
                                                  build/modumsgpack.o
                                                  build/modmachine.o
namedtuple_asdict_obj                             build/py/objnamedtuple.o
nearbyintf                                        build/lib/libm/nearbyintf.o
                                                  build/py/modbuiltins.o
nlr_jump                                          build/py/nlrthumb.o
                                                  build/openpie_vfs.o
                                                  build/modmachine.o
                                                  build/extmod/modurandom.o
                                                  build/extmod/machine_mem.o
                                                  build/extmod/modutimeq.o
                                                  build/extmod/moduheapq.o
                                                  build/extmod/moduzlib.o
                                                  build/extmod/modure.o
                                                  build/extmod/moductypes.o
                                                  build/py/bc.o
                                                  build/py/modsys.o
                                                  build/py/modbuiltins.o
                                                  build/py/builtinevex.o
                                                  build/py/builtinimport.o
                                                  build/py/objtype.o
                                                  build/py/objstrunicode.o
                                                  build/py/objstr.o
                                                  build/py/objset.o
                                                  build/py/objnamedtuple.o
                                                  build/py/objint.o
                                                  build/py/objgetitemiter.o
                                                  build/py/objgenerator.o
                                                  build/py/objfun.o
                                                  build/py/objdict.o
                                                  build/py/obj.o
                                                  build/py/argcheck.o
                                                  build/py/scheduler.o
                                                  build/py/runtime.o
                                                  build/py/parsenum.o
                                                  build/py/compile.o
                                                  build/py/parse.o
                                                  build/py/pystack.o
nlr_jump_fail                                     build/machine.o
                                                  build/py/nlrthumb.o
nlr_pop                                           build/py/nlr.o
                                                  build/lib/utils/pyexec.o
                                                  build/modmachine.o
                                                  build/mphalport.o
                                                  build/main.o
                                                  build/extmod/vfs.o
                                                  build/py/vm.o
                                                  build/py/builtinevex.o
                                                  build/py/builtinimport.o
                                                  build/py/objgetitemiter.o
                                                  build/py/runtime_utils.o
                                                  build/py/runtime.o
nlr_push                                          build/py/nlrthumb.o
                                                  build/lib/utils/pyexec.o
                                                  build/modmachine.o
                                                  build/mphalport.o
                                                  build/main.o
                                                  build/extmod/vfs.o
                                                  build/py/vm.o
                                                  build/py/builtinevex.o
                                                  build/py/builtinimport.o
                                                  build/py/objgetitemiter.o
                                                  build/py/runtime_utils.o
                                                  build/py/runtime.o
nlr_push_tail                                     build/py/nlr.o
                                                  build/py/nlrthumb.o
openpie_help_text                                 build/help.o
                                                  build/py/builtinhelp.o
parse_2                                           build/modmachine.o
pinbase_ioctl                                     build/extmod/machine_pinbase.o
powf                                              build/lib/libm/math.o
                                                  build/py/modcmath.o
                                                  build/py/modmath.o
                                                  build/py/modbuiltins.o
                                                  build/py/objfloat.o
                                                  build/py/parsenum.o
print_hook                                        build/modmachine.o
printf                                            build/lib/utils/printf.o
                                                  build/lib/utils/pyexec.o
                                                  build/extmod/modure.o
putchar                                           build/lib/utils/printf.o
                                                  build/extmod/modure.o
puts                                              build/lib/utils/printf.o
                                                  build/extmod/modure.o
pyb_set_repl_info                                 build/lib/utils/pyexec.o
pyb_set_repl_info_obj                             build/lib/utils/pyexec.o
pyexec_file                                       build/lib/utils/pyexec.o
pyexec_friendly_repl                              build/lib/utils/pyexec.o
                                                  build/main.o
pyexec_frozen_module                              build/lib/utils/pyexec.o
                                                  build/main.o
pyexec_mode_kind                                  build/lib/utils/pyexec.o
                                                  build/main.o
pyexec_raw_repl                                   build/lib/utils/pyexec.o
                                                  build/main.o
pyexec_system_exit                                build/lib/utils/pyexec.o
qstr_compute_hash                                 build/py/qstr.o
                                                  build/py/objstr.o
                                                  build/py/objexcept.o
                                                  build/py/runtime.o
qstr_data                                         build/py/qstr.o
                                                  build/py/repl.o
                                                  build/py/objstrunicode.o
                                                  build/py/objstr.o
                                                  build/py/runtime.o
                                                  build/py/compile.o
                                                  build/py/mpprint.o
qstr_dump_data                                    build/py/qstr.o
                                                  build/py/modmicropython.o
qstr_find_strn                                    build/py/qstr.o
                                                  build/py/repl.o
                                                  build/py/objstr.o
                                                  build/py/parse.o
qstr_from_str                                     build/py/qstr.o
                                                  build/py/lexer.o
qstr_from_strn                                    build/py/qstr.o
                                                  build/py/frozenmod.o
                                                  build/py/builtinimport.o
                                                  build/py/objstr.o
                                                  build/py/runtime.o
                                                  build/py/persistentcode.o
                                                  build/py/compile.o
                                                  build/py/parse.o
qstr_hash                                         build/py/qstr.o
                                                  build/py/objstr.o
                                                  build/py/map.o
                                                  build/py/runtime.o
qstr_init                                         build/py/qstr.o
                                                  build/py/runtime.o
qstr_len                                          build/py/qstr.o
                                                  build/py/objstr.o
                                                  build/py/runtime.o
                                                  build/py/compile.o
qstr_pool_info                                    build/py/qstr.o
                                                  build/lib/utils/pyexec.o
                                                  build/py/modmicropython.o
qstr_str                                          build/py/qstr.o
                                                  build/py/builtinimport.o
                                                  build/py/objtype.o
                                                  build/py/objexcept.o
                                                  build/py/obj.o
                                                  build/py/runtime.o
                                                  build/py/parse.o
raw_code__bios__lt_module_gt_                     build/build/frozen_mpy.o
raw_code__boot__lt_module_gt_                     build/build/frozen_mpy.o
raw_code_component__lt_module_gt_                 build/build/frozen_mpy.o
raw_code_handler__lt_module_gt_                   build/build/frozen_mpy.o
raw_code_vfs__lt_module_gt_                       build/build/frozen_mpy.o
re1_5_compilecode                                 build/extmod/modure.o
re1_5_dumpcode                                    build/extmod/modure.o
re1_5_recursiveloopprog                           build/extmod/modure.o
re1_5_sizecode                                    build/extmod/modure.o
re_match_obj                                      build/extmod/modure.o
re_search_obj                                     build/extmod/modure.o
re_split_obj                                      build/extmod/modure.o
re_sub_obj                                        build/extmod/modure.o
readline                                          build/lib/mp-readline/readline.o
                                                  build/lib/utils/pyexec.o
                                                  build/modmachine.o
readline_init                                     build/lib/mp-readline/readline.o
readline_init0                                    build/lib/mp-readline/readline.o
readline_note_newline                             build/lib/mp-readline/readline.o
readline_process_char                             build/lib/mp-readline/readline.o
readline_push_history                             build/lib/mp-readline/readline.o
scalbnf                                           build/lib/libm/math.o
                                                  build/lib/libm/sf_ldexp.o
                                                  build/lib/libm/kf_rem_pio2.o
scope_find                                        build/py/scope.o
                                                  build/py/emitcommon.o
                                                  build/py/compile.o
scope_find_global                                 build/py/scope.o
                                                  build/py/compile.o
scope_find_local_and_close_over                   build/py/scope.o
                                                  build/py/emitcommon.o
                                                  build/py/compile.o
scope_find_or_add_id                              build/py/scope.o
                                                  build/py/emitcommon.o
                                                  build/py/compile.o
scope_free                                        build/py/scope.o
                                                  build/py/compile.o
scope_new                                         build/py/scope.o
                                                  build/py/compile.o
sha256_final                                      build/extmod/moduhashlib.o
sha256_init                                       build/extmod/moduhashlib.o
sha256_update                                     build/extmod/moduhashlib.o
sinf                                              build/lib/libm/sf_sin.o
                                                  build/py/modcmath.o
                                                  build/py/modmath.o
                                                  build/py/objcomplex.o
sinhf                                             build/lib/libm/math.o
                                                  build/py/modcmath.o
                                                  build/py/modmath.o
snprintf                                          build/lib/utils/printf.o
                                                  build/lib/mp-readline/readline.o
sqrtf                                             build/lib/libm/ef_sqrt.o
                                                  build/lib/libm/asinhf.o
                                                  build/lib/libm/asinfacosf.o
                                                  build/lib/libm/acoshf.o
                                                  build/lib/libm/math.o
                                                  build/py/modcmath.o
                                                  build/py/modmath.o
                                                  build/py/objcomplex.o
startup_vector                                    build/machine.o
stdio_obj_print                                   build/lib/utils/sys_stdio_mphal.o
stpcpy                                            build/lib/libc/string0.o
str_center_obj                                    build/py/objstr.o
                                                  build/py/objstrunicode.o
str_count_obj                                     build/py/objstr.o
                                                  build/py/objstrunicode.o
str_encode_obj                                    build/py/objstr.o
                                                  build/py/objstrunicode.o
str_endswith_obj                                  build/py/objstr.o
                                                  build/py/objstrunicode.o
str_find_obj                                      build/py/objstr.o
                                                  build/py/objstrunicode.o
str_format_obj                                    build/py/objstr.o
                                                  build/py/objstrunicode.o
str_index_obj                                     build/py/objstr.o
                                                  build/py/objstrunicode.o
str_index_to_ptr                                  build/py/objstrunicode.o
                                                  build/py/objstr.o
str_isalpha_obj                                   build/py/objstr.o
                                                  build/py/objstrunicode.o
str_isdigit_obj                                   build/py/objstr.o
                                                  build/py/objstrunicode.o
str_islower_obj                                   build/py/objstr.o
                                                  build/py/objstrunicode.o
str_isspace_obj                                   build/py/objstr.o
                                                  build/py/objstrunicode.o
str_isupper_obj                                   build/py/objstr.o
                                                  build/py/objstrunicode.o
str_join_obj                                      build/py/objstr.o
                                                  build/py/objstrunicode.o
str_lower_obj                                     build/py/objstr.o
                                                  build/py/objstrunicode.o
str_lstrip_obj                                    build/py/objstr.o
                                                  build/py/objstrunicode.o
str_partition_obj                                 build/py/objstr.o
                                                  build/py/objstrunicode.o
str_replace_obj                                   build/py/objstr.o
                                                  build/py/objstrunicode.o
str_rfind_obj                                     build/py/objstr.o
                                                  build/py/objstrunicode.o
str_rindex_obj                                    build/py/objstr.o
                                                  build/py/objstrunicode.o
str_rpartition_obj                                build/py/objstr.o
                                                  build/py/objstrunicode.o
str_rsplit_obj                                    build/py/objstr.o
                                                  build/py/objstrunicode.o
str_rstrip_obj                                    build/py/objstr.o
                                                  build/py/objstrunicode.o
str_split_obj                                     build/py/objstr.o
                                                  build/py/objstrunicode.o
str_splitlines_obj                                build/py/objstr.o
                                                  build/py/objstrunicode.o
str_startswith_obj                                build/py/objstr.o
                                                  build/py/objstrunicode.o
str_strip_obj                                     build/py/objstr.o
                                                  build/py/objstrunicode.o
str_upper_obj                                     build/py/objstr.o
                                                  build/py/objstrunicode.o
strcat                                            build/lib/libc/string0.o
strchr                                            build/lib/libc/string0.o
                                                  build/py/builtinimport.o
                                                  build/py/objstr.o
                                                  build/py/objfloat.o
strcmp                                            build/lib/libc/string0.o
                                                  build/lib/mp-readline/readline.o
                                                  build/extmod/vfs.o
                                                  build/py/lexer.o
strcpy                                            build/lib/libc/string0.o
strlen                                            build/lib/libc/string0.o
                                                  build/lib/mp-readline/readline.o
                                                  build/lib/utils/pyexec.o
                                                  build/lib/utils/stdout_helpers.o
                                                  build/lib/mpack/mpack-writer.o
                                                  build/lib/mpack/mpack-platform.o
                                                  build/lib/mpack/mpack-node.o
                                                  build/lib/mpack/mpack-expect.o
                                                  build/main.o
                                                  build/lib/utils/printf.o
                                                  build/extmod/vfs_reader.o
                                                  build/extmod/vfs.o
                                                  build/py/frozenmod.o
                                                  build/py/builtinhelp.o
                                                  build/py/binary.o
                                                  build/py/objint.o
                                                  build/py/objexcept.o
                                                  build/py/mpz.o
                                                  build/py/mpprint.o
                                                  build/py/vstr.o
                                                  build/py/qstr.o
strncmp                                           build/lib/libc/string0.o
                                                  build/extmod/vfs.o
                                                  build/py/repl.o
strstr                                            build/lib/libc/string0.o
struct_calcsize_obj                               build/py/modstruct.o
struct_pack_into_obj                              build/py/modstruct.o
struct_pack_obj                                   build/py/modstruct.o
struct_unpack_from_obj                            build/py/modstruct.o
tanf                                              build/lib/libm/sf_tan.o
                                                  build/py/modmath.o
tanhf                                             build/lib/libm/math.o
                                                  build/py/modmath.o
tgammaf                                           build/lib/libm/wf_tgamma.o
                                                  build/py/modmath.o
tinf_get_be_uint32                                build/extmod/moduzlib.o
tinf_get_le_uint32                                build/extmod/moduzlib.o
tinf_get_uint16                                   build/extmod/moduzlib.o
tinf_skip_bytes                                   build/extmod/moduzlib.o
truncf                                            build/lib/libm/math.o
                                                  build/py/modmath.o
uctypes_struct_addressof_obj                      build/extmod/moductypes.o
uctypes_struct_bytearray_at_obj                   build/extmod/moductypes.o
uctypes_struct_bytes_at_obj                       build/extmod/moductypes.o
umsgpack_dumps                                    build/modumsgpack.o
umsgpack_dumps_obj                                build/modumsgpack.o
umsgpack_loads                                    build/modumsgpack.o
umsgpack_loads_obj                                build/modumsgpack.o
unichar_isalpha                                   build/py/unicode.o
                                                  build/py/repl.o
                                                  build/py/objstr.o
                                                  build/py/lexer.o
unichar_isdigit                                   build/py/unicode.o
                                                  build/extmod/modujson.o
                                                  build/py/repl.o
                                                  build/py/modstruct.o
                                                  build/py/objstr.o
                                                  build/py/lexer.o
unichar_isident                                   build/py/unicode.o
                                                  build/py/repl.o
unichar_islower                                   build/py/unicode.o
                                                  build/py/objstr.o
unichar_isspace                                   build/py/unicode.o
                                                  build/extmod/modujson.o
                                                  build/py/objstr.o
                                                  build/py/parsenum.o
                                                  build/py/lexer.o
unichar_isupper                                   build/py/unicode.o
                                                  build/py/objstr.o
unichar_isxdigit                                  build/py/unicode.o
                                                  build/extmod/modubinascii.o
                                                  build/py/lexer.o
unichar_tolower                                   build/py/unicode.o
                                                  build/py/objstr.o
unichar_toupper                                   build/py/unicode.o
                                                  build/py/objstr.o
unichar_xdigit_value                              build/py/unicode.o
                                                  build/extmod/modubinascii.o
                                                  build/py/lexer.o
usystem_annotations_obj                           build/modmachine.o
usystem_components_obj                            build/modmachine.o
usystem_debug                                     build/modmachine.o
usystem_debug_obj                                 build/modmachine.o
usystem_get_stdout_str                            build/modmachine.o
usystem_get_stdout_str_obj                        build/modmachine.o
usystem_invoke_obj                                build/modmachine.o
usystem_methods_obj                               build/modmachine.o
usystem_print_hook_obj                            build/modmachine.o
usystem_reboot                                    build/modmachine.o
usystem_reboot_obj                                build/modmachine.o
usystem_repl_call_obj                             build/modmachine.o
usystem_repl_compile_obj                          build/modmachine.o
usystem_repl_input_obj                            build/modmachine.o
usystem_set_stdin_char                            build/modmachine.o
usystem_set_stdin_char_obj                        build/modmachine.o
usystem_shutdown                                  build/modmachine.o
usystem_shutdown_obj                              build/modmachine.o
usystem_signal_obj                                build/modmachine.o
utf8_charlen                                      build/py/unicode.o
                                                  build/py/modbuiltins.o
                                                  build/py/objstrunicode.o
                                                  build/py/objstr.o
utf8_check                                        build/py/unicode.o
                                                  build/py/objstr.o
utf8_get_char                                     build/py/unicode.o
                                                  build/py/modbuiltins.o
                                                  build/py/objstrunicode.o
utf8_next_char                                    build/py/unicode.o
                                                  build/py/objstrunicode.o
                                                  build/py/objstr.o
utf8_ptr_to_index                                 build/py/unicode.o
                                                  build/py/objstr.o
uzlib_adler32                                     build/extmod/moduzlib.o
uzlib_crc32                                       build/extmod/moduzlib.o
                                                  build/extmod/modubinascii.o
uzlib_get_byte                                    build/extmod/moduzlib.o
uzlib_gzip_parse_header                           build/extmod/moduzlib.o
uzlib_init                                        build/extmod/moduzlib.o
uzlib_uncompress                                  build/extmod/moduzlib.o
uzlib_uncompress_chksum                           build/extmod/moduzlib.o
uzlib_uncompress_init                             build/extmod/moduzlib.o
uzlib_zlib_parse_header                           build/extmod/moduzlib.o
vprintf                                           build/lib/utils/printf.o
vsnprintf                                         build/lib/utils/printf.o
vstr_add_byte                                     build/py/vstr.o
                                                  build/lib/utils/pyexec.o
                                                  build/modmachine.o
                                                  build/extmod/modure.o
                                                  build/extmod/modujson.o
                                                  build/py/modio.o
                                                  build/py/objstr.o
                                                  build/py/lexer.o
vstr_add_char                                     build/py/vstr.o
                                                  build/extmod/modujson.o
                                                  build/py/builtinimport.o
                                                  build/py/lexer.o
vstr_add_len                                      build/py/vstr.o
                                                  build/py/stream.o
                                                  build/py/objstringio.o
vstr_add_str                                      build/py/vstr.o
                                                  build/lib/mp-readline/readline.o
                                                  build/extmod/vfs.o
                                                  build/py/builtinimport.o
vstr_add_strn                                     build/py/vstr.o
                                                  build/extmod/vfs.o
                                                  build/extmod/modure.o
                                                  build/py/modio.o
                                                  build/py/builtinimport.o
vstr_clear                                        build/py/vstr.o
                                                  build/lib/utils/pyexec.o
                                                  build/extmod/modujson.o
                                                  build/py/stream.o
                                                  build/py/objstr.o
                                                  build/py/lexer.o
vstr_cut_head_bytes                               build/py/vstr.o
vstr_cut_out_bytes                                build/py/vstr.o
                                                  build/lib/mp-readline/readline.o
vstr_cut_tail_bytes                               build/py/vstr.o
                                                  build/lib/mp-readline/readline.o
                                                  build/py/stream.o
                                                  build/py/lexer.o
vstr_extend                                       build/py/vstr.o
                                                  build/py/stream.o
vstr_free                                         build/py/vstr.o
                                                  build/py/objstringio.o
vstr_hint_size                                    build/py/vstr.o
vstr_init                                         build/py/vstr.o
                                                  build/lib/utils/pyexec.o
                                                  build/modmachine.o
                                                  build/extmod/vfs.o
                                                  build/extmod/modubinascii.o
                                                  build/extmod/modure.o
                                                  build/extmod/modujson.o
                                                  build/py/stream.o
                                                  build/py/objstr.o
                                                  build/py/lexer.o
vstr_init_fixed_buf                               build/py/vstr.o
                                                  build/py/modio.o
                                                  build/py/builtinimport.o
                                                  build/py/objstringio.o
vstr_init_len                                     build/py/vstr.o
                                                  build/extmod/modubinascii.o
                                                  build/extmod/moduhashlib.o
                                                  build/py/modstruct.o
                                                  build/py/stream.o
                                                  build/py/objstr.o
                                                  build/py/objint.o
                                                  build/py/persistentcode.o
vstr_init_print                                   build/py/vstr.o
                                                  build/extmod/modujson.o
                                                  build/py/modbuiltins.o
                                                  build/py/objstr.o
                                                  build/py/parsenum.o
vstr_ins_byte                                     build/py/vstr.o
                                                  build/lib/mp-readline/readline.o
                                                  build/py/builtinimport.o
vstr_ins_char                                     build/py/vstr.o
                                                  build/lib/mp-readline/readline.o
vstr_new                                          build/py/vstr.o
                                                  build/py/objstringio.o
vstr_null_terminated_str                          build/py/vstr.o
                                                  build/lib/mp-readline/readline.o
                                                  build/lib/utils/pyexec.o
                                                  build/modmachine.o
                                                  build/py/builtinimport.o
                                                  build/py/objstr.o
                                                  build/py/lexer.o
vstr_printf                                       build/py/vstr.o
vstr_vprintf                                      build/py/vstr.o
