Archive member included to satisfy reference by file (symbol)

/usr/bin/../lib/gcc/arm-none-eabi/7.3.1/thumb/v6-m/libgcc.a(_udivsi3.o)
                              build/py/gc.o (__aeabi_uidiv)
/usr/bin/../lib/gcc/arm-none-eabi/7.3.1/thumb/v6-m/libgcc.a(_divsi3.o)
                              build/py/formatfloat.o (__aeabi_idiv)
/usr/bin/../lib/gcc/arm-none-eabi/7.3.1/thumb/v6-m/libgcc.a(_dvmd_tls.o)
                              /usr/bin/../lib/gcc/arm-none-eabi/7.3.1/thumb/v6-m/libgcc.a(_udivsi3.o) (__aeabi_idiv0)
/usr/bin/../lib/gcc/arm-none-eabi/7.3.1/thumb/v6-m/libgcc.a(_arm_cmpdf2.o)
                              build/lib/mpack/mpack-expect.o (__aeabi_dcmplt)
/usr/bin/../lib/gcc/arm-none-eabi/7.3.1/thumb/v6-m/libgcc.a(_arm_cmpsf2.o)
                              build/py/objcomplex.o (__aeabi_fcmpeq)
/usr/bin/../lib/gcc/arm-none-eabi/7.3.1/thumb/v6-m/libgcc.a(_fixunssfsi.o)
                              build/extmod/utime_mphal.o (__aeabi_f2uiz)
/usr/bin/../lib/gcc/arm-none-eabi/7.3.1/thumb/v6-m/libgcc.a(_floatdisf.o)
                              build/lib/mpack/mpack-expect.o (__aeabi_l2f)
/usr/bin/../lib/gcc/arm-none-eabi/7.3.1/thumb/v6-m/libgcc.a(_floatdidf.o)
                              build/lib/mpack/mpack-expect.o (__aeabi_l2d)
/usr/bin/../lib/gcc/arm-none-eabi/7.3.1/thumb/v6-m/libgcc.a(_floatundisf.o)
                              build/lib/mpack/mpack-expect.o (__aeabi_ul2f)
/usr/bin/../lib/gcc/arm-none-eabi/7.3.1/thumb/v6-m/libgcc.a(_floatundidf.o)
                              build/lib/mpack/mpack-expect.o (__aeabi_ul2d)
/usr/bin/../lib/gcc/arm-none-eabi/7.3.1/thumb/v6-m/libgcc.a(addsf3.o)
                              build/py/mpz.o (__aeabi_fadd)
/usr/bin/../lib/gcc/arm-none-eabi/7.3.1/thumb/v6-m/libgcc.a(divsf3.o)
                              build/py/parsenum.o (__aeabi_fdiv)
/usr/bin/../lib/gcc/arm-none-eabi/7.3.1/thumb/v6-m/libgcc.a(eqsf2.o)
                              /usr/bin/../lib/gcc/arm-none-eabi/7.3.1/thumb/v6-m/libgcc.a(_arm_cmpsf2.o) (__eqsf2)
/usr/bin/../lib/gcc/arm-none-eabi/7.3.1/thumb/v6-m/libgcc.a(gesf2.o)
                              /usr/bin/../lib/gcc/arm-none-eabi/7.3.1/thumb/v6-m/libgcc.a(_arm_cmpsf2.o) (__gesf2)
/usr/bin/../lib/gcc/arm-none-eabi/7.3.1/thumb/v6-m/libgcc.a(lesf2.o)
                              /usr/bin/../lib/gcc/arm-none-eabi/7.3.1/thumb/v6-m/libgcc.a(_arm_cmpsf2.o) (__lesf2)
/usr/bin/../lib/gcc/arm-none-eabi/7.3.1/thumb/v6-m/libgcc.a(mulsf3.o)
                              build/py/mpz.o (__aeabi_fmul)
/usr/bin/../lib/gcc/arm-none-eabi/7.3.1/thumb/v6-m/libgcc.a(subsf3.o)
                              build/py/formatfloat.o (__aeabi_fsub)
/usr/bin/../lib/gcc/arm-none-eabi/7.3.1/thumb/v6-m/libgcc.a(unordsf2.o)
                              build/py/formatfloat.o (__aeabi_fcmpun)
/usr/bin/../lib/gcc/arm-none-eabi/7.3.1/thumb/v6-m/libgcc.a(fixsfsi.o)
                              build/py/formatfloat.o (__aeabi_f2iz)
/usr/bin/../lib/gcc/arm-none-eabi/7.3.1/thumb/v6-m/libgcc.a(floatsisf.o)
                              build/py/mpz.o (__aeabi_i2f)
/usr/bin/../lib/gcc/arm-none-eabi/7.3.1/thumb/v6-m/libgcc.a(floatunsisf.o)
                              build/py/parsenum.o (__aeabi_ui2f)
/usr/bin/../lib/gcc/arm-none-eabi/7.3.1/thumb/v6-m/libgcc.a(adddf3.o)
                              /usr/bin/../lib/gcc/arm-none-eabi/7.3.1/thumb/v6-m/libgcc.a(_floatdisf.o) (__aeabi_dadd)
/usr/bin/../lib/gcc/arm-none-eabi/7.3.1/thumb/v6-m/libgcc.a(eqdf2.o)
                              /usr/bin/../lib/gcc/arm-none-eabi/7.3.1/thumb/v6-m/libgcc.a(_arm_cmpdf2.o) (__eqdf2)
/usr/bin/../lib/gcc/arm-none-eabi/7.3.1/thumb/v6-m/libgcc.a(gedf2.o)
                              /usr/bin/../lib/gcc/arm-none-eabi/7.3.1/thumb/v6-m/libgcc.a(_arm_cmpdf2.o) (__gedf2)
/usr/bin/../lib/gcc/arm-none-eabi/7.3.1/thumb/v6-m/libgcc.a(ledf2.o)
                              /usr/bin/../lib/gcc/arm-none-eabi/7.3.1/thumb/v6-m/libgcc.a(_arm_cmpdf2.o) (__ledf2)
/usr/bin/../lib/gcc/arm-none-eabi/7.3.1/thumb/v6-m/libgcc.a(muldf3.o)
                              /usr/bin/../lib/gcc/arm-none-eabi/7.3.1/thumb/v6-m/libgcc.a(_floatdisf.o) (__aeabi_dmul)
/usr/bin/../lib/gcc/arm-none-eabi/7.3.1/thumb/v6-m/libgcc.a(floatsidf.o)
                              build/py/binary.o (__aeabi_i2d)
/usr/bin/../lib/gcc/arm-none-eabi/7.3.1/thumb/v6-m/libgcc.a(floatunsidf.o)
                              /usr/bin/../lib/gcc/arm-none-eabi/7.3.1/thumb/v6-m/libgcc.a(_floatdisf.o) (__aeabi_ui2d)
/usr/bin/../lib/gcc/arm-none-eabi/7.3.1/thumb/v6-m/libgcc.a(extendsfdf2.o)
                              build/py/binary.o (__aeabi_f2d)
/usr/bin/../lib/gcc/arm-none-eabi/7.3.1/thumb/v6-m/libgcc.a(truncdfsf2.o)
                              build/py/mpprint.o (__aeabi_d2f)
/usr/bin/../lib/gcc/arm-none-eabi/7.3.1/thumb/v6-m/libgcc.a(_clzsi2.o)
                              /usr/bin/../lib/gcc/arm-none-eabi/7.3.1/thumb/v6-m/libgcc.a(addsf3.o) (__clzsi2)

Allocating common symbols
Common symbol       size              file

mp_state_ctx        0x338             build/py/mpstate.o
mp_interrupt_char   0x4               build/lib/utils/interrupt_char.o

Discarded input sections

 .text          0x0000000000000000        0x0 build/py/mpstate.o
 .data          0x0000000000000000        0x0 build/py/mpstate.o
 .bss           0x0000000000000000        0x0 build/py/mpstate.o
 .text          0x0000000000000000        0x0 build/py/nlr.o
 .data          0x0000000000000000        0x0 build/py/nlr.o
 .bss           0x0000000000000000        0x0 build/py/nlr.o
 .text          0x0000000000000000        0x0 build/py/nlrx86.o
 .data          0x0000000000000000        0x0 build/py/nlrx86.o
 .bss           0x0000000000000000        0x0 build/py/nlrx86.o
 .comment       0x0000000000000000       0x80 build/py/nlrx86.o
 .ARM.attributes
                0x0000000000000000       0x31 build/py/nlrx86.o
 .text          0x0000000000000000        0x0 build/py/nlrx64.o
 .data          0x0000000000000000        0x0 build/py/nlrx64.o
 .bss           0x0000000000000000        0x0 build/py/nlrx64.o
 .comment       0x0000000000000000       0x80 build/py/nlrx64.o
 .ARM.attributes
                0x0000000000000000       0x31 build/py/nlrx64.o
 .text          0x0000000000000000        0x0 build/py/nlrthumb.o
 .data          0x0000000000000000        0x0 build/py/nlrthumb.o
 .bss           0x0000000000000000        0x0 build/py/nlrthumb.o
 .text          0x0000000000000000        0x0 build/py/nlrxtensa.o
 .data          0x0000000000000000        0x0 build/py/nlrxtensa.o
 .bss           0x0000000000000000        0x0 build/py/nlrxtensa.o
 .comment       0x0000000000000000       0x80 build/py/nlrxtensa.o
 .ARM.attributes
                0x0000000000000000       0x31 build/py/nlrxtensa.o
 .text          0x0000000000000000        0x0 build/py/nlrsetjmp.o
 .data          0x0000000000000000        0x0 build/py/nlrsetjmp.o
 .bss           0x0000000000000000        0x0 build/py/nlrsetjmp.o
 .comment       0x0000000000000000       0x80 build/py/nlrsetjmp.o
 .ARM.attributes
                0x0000000000000000       0x31 build/py/nlrsetjmp.o
 .text          0x0000000000000000        0x0 build/py/malloc.o
 .data          0x0000000000000000        0x0 build/py/malloc.o
 .bss           0x0000000000000000        0x0 build/py/malloc.o
 .text.m_malloc_with_finaliser
                0x0000000000000000       0x40 build/py/malloc.o
 .text          0x0000000000000000        0x0 build/py/gc.o
 .data          0x0000000000000000        0x0 build/py/gc.o
 .bss           0x0000000000000000        0x0 build/py/gc.o
 .text.gc_sweep_all
                0x0000000000000000       0x20 build/py/gc.o
 .text          0x0000000000000000        0x0 build/py/pystack.o
 .data          0x0000000000000000        0x0 build/py/pystack.o
 .bss           0x0000000000000000        0x0 build/py/pystack.o
 .text          0x0000000000000000        0x0 build/py/qstr.o
 .data          0x0000000000000000        0x0 build/py/qstr.o
 .bss           0x0000000000000000        0x0 build/py/qstr.o
 .text          0x0000000000000000        0x0 build/py/vstr.o
 .data          0x0000000000000000        0x0 build/py/vstr.o
 .bss           0x0000000000000000        0x0 build/py/vstr.o
 .text.vstr_hint_size
                0x0000000000000000        0x8 build/py/vstr.o
 .text.vstr_cut_head_bytes
                0x0000000000000000        0xc build/py/vstr.o
 .text.vstr_printf
                0x0000000000000000       0x24 build/py/vstr.o
 .text.vstr_vprintf
                0x0000000000000000       0x18 build/py/vstr.o
 .text          0x0000000000000000        0x0 build/py/mpprint.o
 .data          0x0000000000000000        0x0 build/py/mpprint.o
 .bss           0x0000000000000000        0x0 build/py/mpprint.o
 .text          0x0000000000000000        0x0 build/py/unicode.o
 .data          0x0000000000000000        0x0 build/py/unicode.o
 .bss           0x0000000000000000        0x0 build/py/unicode.o
 .text          0x0000000000000000        0x0 build/py/mpz.o
 .data          0x0000000000000000        0x0 build/py/mpz.o
 .bss           0x0000000000000000        0x0 build/py/mpz.o
 .text.mpz_set_from_int
                0x0000000000000000       0x10 build/py/mpz.o
 .text.mpz_as_uint_checked
                0x0000000000000000       0x44 build/py/mpz.o
 .text          0x0000000000000000        0x0 build/py/reader.o
 .data          0x0000000000000000        0x0 build/py/reader.o
 .bss           0x0000000000000000        0x0 build/py/reader.o
 .text          0x0000000000000000        0x0 build/py/lexer.o
 .data          0x0000000000000000        0x0 build/py/lexer.o
 .bss           0x0000000000000000        0x0 build/py/lexer.o
 .text.mp_lexer_new_from_fd
                0x0000000000000000       0x1c build/py/lexer.o
 .text          0x0000000000000000        0x0 build/py/parse.o
 .data          0x0000000000000000        0x0 build/py/parse.o
 .bss           0x0000000000000000        0x0 build/py/parse.o
 .text          0x0000000000000000        0x0 build/py/scope.o
 .data          0x0000000000000000        0x0 build/py/scope.o
 .bss           0x0000000000000000        0x0 build/py/scope.o
 .text          0x0000000000000000        0x0 build/py/compile.o
 .data          0x0000000000000000        0x0 build/py/compile.o
 .bss           0x0000000000000000        0x0 build/py/compile.o
 .text          0x0000000000000000        0x0 build/py/emitcommon.o
 .data          0x0000000000000000        0x0 build/py/emitcommon.o
 .bss           0x0000000000000000        0x0 build/py/emitcommon.o
 .text          0x0000000000000000        0x0 build/py/emitbc.o
 .data          0x0000000000000000        0x0 build/py/emitbc.o
 .bss           0x0000000000000000        0x0 build/py/emitbc.o
 .text          0x0000000000000000        0x0 build/py/asmbase.o
 .data          0x0000000000000000        0x0 build/py/asmbase.o
 .bss           0x0000000000000000        0x0 build/py/asmbase.o
 .comment       0x0000000000000000       0x80 build/py/asmbase.o
 .ARM.attributes
                0x0000000000000000       0x31 build/py/asmbase.o
 .text          0x0000000000000000        0x0 build/py/asmx64.o
 .data          0x0000000000000000        0x0 build/py/asmx64.o
 .bss           0x0000000000000000        0x0 build/py/asmx64.o
 .comment       0x0000000000000000       0x80 build/py/asmx64.o
 .ARM.attributes
                0x0000000000000000       0x31 build/py/asmx64.o
 .text          0x0000000000000000        0x0 build/py/emitnx64.o
 .data          0x0000000000000000        0x0 build/py/emitnx64.o
 .bss           0x0000000000000000        0x0 build/py/emitnx64.o
 .comment       0x0000000000000000       0x80 build/py/emitnx64.o
 .ARM.attributes
                0x0000000000000000       0x31 build/py/emitnx64.o
 .text          0x0000000000000000        0x0 build/py/asmx86.o
 .data          0x0000000000000000        0x0 build/py/asmx86.o
 .bss           0x0000000000000000        0x0 build/py/asmx86.o
 .comment       0x0000000000000000       0x80 build/py/asmx86.o
 .ARM.attributes
                0x0000000000000000       0x31 build/py/asmx86.o
 .text          0x0000000000000000        0x0 build/py/emitnx86.o
 .data          0x0000000000000000        0x0 build/py/emitnx86.o
 .bss           0x0000000000000000        0x0 build/py/emitnx86.o
 .comment       0x0000000000000000       0x80 build/py/emitnx86.o
 .ARM.attributes
                0x0000000000000000       0x31 build/py/emitnx86.o
 .text          0x0000000000000000        0x0 build/py/asmthumb.o
 .data          0x0000000000000000        0x0 build/py/asmthumb.o
 .bss           0x0000000000000000        0x0 build/py/asmthumb.o
 .comment       0x0000000000000000       0x80 build/py/asmthumb.o
 .ARM.attributes
                0x0000000000000000       0x31 build/py/asmthumb.o
 .text          0x0000000000000000        0x0 build/py/emitnthumb.o
 .data          0x0000000000000000        0x0 build/py/emitnthumb.o
 .bss           0x0000000000000000        0x0 build/py/emitnthumb.o
 .comment       0x0000000000000000       0x80 build/py/emitnthumb.o
 .ARM.attributes
                0x0000000000000000       0x31 build/py/emitnthumb.o
 .text          0x0000000000000000        0x0 build/py/emitinlinethumb.o
 .data          0x0000000000000000        0x0 build/py/emitinlinethumb.o
 .bss           0x0000000000000000        0x0 build/py/emitinlinethumb.o
 .comment       0x0000000000000000       0x80 build/py/emitinlinethumb.o
 .ARM.attributes
                0x0000000000000000       0x31 build/py/emitinlinethumb.o
 .text          0x0000000000000000        0x0 build/py/asmarm.o
 .data          0x0000000000000000        0x0 build/py/asmarm.o
 .bss           0x0000000000000000        0x0 build/py/asmarm.o
 .comment       0x0000000000000000       0x80 build/py/asmarm.o
 .ARM.attributes
                0x0000000000000000       0x31 build/py/asmarm.o
 .text          0x0000000000000000        0x0 build/py/emitnarm.o
 .data          0x0000000000000000        0x0 build/py/emitnarm.o
 .bss           0x0000000000000000        0x0 build/py/emitnarm.o
 .comment       0x0000000000000000       0x80 build/py/emitnarm.o
 .ARM.attributes
                0x0000000000000000       0x31 build/py/emitnarm.o
 .text          0x0000000000000000        0x0 build/py/asmxtensa.o
 .data          0x0000000000000000        0x0 build/py/asmxtensa.o
 .bss           0x0000000000000000        0x0 build/py/asmxtensa.o
 .comment       0x0000000000000000       0x80 build/py/asmxtensa.o
 .ARM.attributes
                0x0000000000000000       0x31 build/py/asmxtensa.o
 .text          0x0000000000000000        0x0 build/py/emitnxtensa.o
 .data          0x0000000000000000        0x0 build/py/emitnxtensa.o
 .bss           0x0000000000000000        0x0 build/py/emitnxtensa.o
 .comment       0x0000000000000000       0x80 build/py/emitnxtensa.o
 .ARM.attributes
                0x0000000000000000       0x31 build/py/emitnxtensa.o
 .text          0x0000000000000000        0x0 build/py/emitinlinextensa.o
 .data          0x0000000000000000        0x0 build/py/emitinlinextensa.o
 .bss           0x0000000000000000        0x0 build/py/emitinlinextensa.o
 .comment       0x0000000000000000       0x80 build/py/emitinlinextensa.o
 .ARM.attributes
                0x0000000000000000       0x31 build/py/emitinlinextensa.o
 .text          0x0000000000000000        0x0 build/py/formatfloat.o
 .data          0x0000000000000000        0x0 build/py/formatfloat.o
 .bss           0x0000000000000000        0x0 build/py/formatfloat.o
 .text          0x0000000000000000        0x0 build/py/parsenumbase.o
 .data          0x0000000000000000        0x0 build/py/parsenumbase.o
 .bss           0x0000000000000000        0x0 build/py/parsenumbase.o
 .text          0x0000000000000000        0x0 build/py/parsenum.o
 .data          0x0000000000000000        0x0 build/py/parsenum.o
 .bss           0x0000000000000000        0x0 build/py/parsenum.o
 .text          0x0000000000000000        0x0 build/py/emitglue.o
 .data          0x0000000000000000        0x0 build/py/emitglue.o
 .bss           0x0000000000000000        0x0 build/py/emitglue.o
 .text          0x0000000000000000        0x0 build/py/persistentcode.o
 .data          0x0000000000000000        0x0 build/py/persistentcode.o
 .bss           0x0000000000000000        0x0 build/py/persistentcode.o
 .text.mp_raw_code_load_mem
                0x0000000000000000       0x1c build/py/persistentcode.o
 .text          0x0000000000000000        0x0 build/py/runtime.o
 .data          0x0000000000000000        0x0 build/py/runtime.o
 .bss           0x0000000000000000        0x0 build/py/runtime.o
 .text.mp_deinit
                0x0000000000000000        0x4 build/py/runtime.o
 .text.mp_call_function_2
                0x0000000000000000       0x18 build/py/runtime.o
 .text          0x0000000000000000        0x0 build/py/runtime_utils.o
 .data          0x0000000000000000        0x0 build/py/runtime_utils.o
 .bss           0x0000000000000000        0x0 build/py/runtime_utils.o
 .text.mp_call_function_2_protected
                0x0000000000000000       0x3c build/py/runtime_utils.o
 .text          0x0000000000000000        0x0 build/py/scheduler.o
 .data          0x0000000000000000        0x0 build/py/scheduler.o
 .bss           0x0000000000000000        0x0 build/py/scheduler.o
 .text          0x0000000000000000        0x0 build/py/nativeglue.o
 .data          0x0000000000000000        0x0 build/py/nativeglue.o
 .bss           0x0000000000000000        0x0 build/py/nativeglue.o
 .comment       0x0000000000000000       0x80 build/py/nativeglue.o
 .ARM.attributes
                0x0000000000000000       0x31 build/py/nativeglue.o
 .text          0x0000000000000000        0x0 build/py/stackctrl.o
 .data          0x0000000000000000        0x0 build/py/stackctrl.o
 .bss           0x0000000000000000        0x0 build/py/stackctrl.o
 .text.mp_stack_ctrl_init
                0x0000000000000000       0x10 build/py/stackctrl.o
 .text          0x0000000000000000        0x0 build/py/argcheck.o
 .data          0x0000000000000000        0x0 build/py/argcheck.o
 .bss           0x0000000000000000        0x0 build/py/argcheck.o
 .text.mp_arg_error_terse_mismatch
                0x0000000000000000        0xc build/py/argcheck.o
 .rodata.mp_arg_error_terse_mismatch.str1.4
                0x0000000000000000       0x1c build/py/argcheck.o
 .text          0x0000000000000000        0x0 build/py/warning.o
 .data          0x0000000000000000        0x0 build/py/warning.o
 .bss           0x0000000000000000        0x0 build/py/warning.o
 .text.mp_emitter_warning
                0x0000000000000000       0x14 build/py/warning.o
 .text          0x0000000000000000        0x0 build/py/map.o
 .data          0x0000000000000000        0x0 build/py/map.o
 .bss           0x0000000000000000        0x0 build/py/map.o
 .text          0x0000000000000000        0x0 build/py/obj.o
 .data          0x0000000000000000        0x0 build/py/obj.o
 .bss           0x0000000000000000        0x0 build/py/obj.o
 .text          0x0000000000000000        0x0 build/py/objarray.o
 .data          0x0000000000000000        0x0 build/py/objarray.o
 .bss           0x0000000000000000        0x0 build/py/objarray.o
 .text.mp_obj_new_memoryview
                0x0000000000000000       0x20 build/py/objarray.o
 .text.mp_obj_new_bytearray
                0x0000000000000000       0x20 build/py/objarray.o
 .text          0x0000000000000000        0x0 build/py/objattrtuple.o
 .data          0x0000000000000000        0x0 build/py/objattrtuple.o
 .bss           0x0000000000000000        0x0 build/py/objattrtuple.o
 .text.mp_obj_new_attrtuple
                0x0000000000000000       0x3c build/py/objattrtuple.o
 .text          0x0000000000000000        0x0 build/py/objbool.o
 .data          0x0000000000000000        0x0 build/py/objbool.o
 .bss           0x0000000000000000        0x0 build/py/objbool.o
 .text          0x0000000000000000        0x0 build/py/objboundmeth.o
 .data          0x0000000000000000        0x0 build/py/objboundmeth.o
 .bss           0x0000000000000000        0x0 build/py/objboundmeth.o
 .text          0x0000000000000000        0x0 build/py/objcell.o
 .data          0x0000000000000000        0x0 build/py/objcell.o
 .bss           0x0000000000000000        0x0 build/py/objcell.o
 .text          0x0000000000000000        0x0 build/py/objclosure.o
 .data          0x0000000000000000        0x0 build/py/objclosure.o
 .bss           0x0000000000000000        0x0 build/py/objclosure.o
 .text          0x0000000000000000        0x0 build/py/objcomplex.o
 .data          0x0000000000000000        0x0 build/py/objcomplex.o
 .bss           0x0000000000000000        0x0 build/py/objcomplex.o
 .text          0x0000000000000000        0x0 build/py/objdeque.o
 .data          0x0000000000000000        0x0 build/py/objdeque.o
 .bss           0x0000000000000000        0x0 build/py/objdeque.o
 .text          0x0000000000000000        0x0 build/py/objdict.o
 .data          0x0000000000000000        0x0 build/py/objdict.o
 .bss           0x0000000000000000        0x0 build/py/objdict.o
 .text          0x0000000000000000        0x0 build/py/objenumerate.o
 .data          0x0000000000000000        0x0 build/py/objenumerate.o
 .bss           0x0000000000000000        0x0 build/py/objenumerate.o
 .text          0x0000000000000000        0x0 build/py/objexcept.o
 .data          0x0000000000000000        0x0 build/py/objexcept.o
 .bss           0x0000000000000000        0x0 build/py/objexcept.o
 .rodata.mp_type_TimeoutError
                0x0000000000000000       0x3c build/py/objexcept.o
 .text          0x0000000000000000        0x0 build/py/objfilter.o
 .data          0x0000000000000000        0x0 build/py/objfilter.o
 .bss           0x0000000000000000        0x0 build/py/objfilter.o
 .text          0x0000000000000000        0x0 build/py/objfloat.o
 .data          0x0000000000000000        0x0 build/py/objfloat.o
 .bss           0x0000000000000000        0x0 build/py/objfloat.o
 .text          0x0000000000000000        0x0 build/py/objfun.o
 .data          0x0000000000000000        0x0 build/py/objfun.o
 .bss           0x0000000000000000        0x0 build/py/objfun.o
 .text.mp_obj_code_get_name
                0x0000000000000000       0x10 build/py/objfun.o
 .text          0x0000000000000000        0x0 build/py/objgenerator.o
 .data          0x0000000000000000        0x0 build/py/objgenerator.o
 .bss           0x0000000000000000        0x0 build/py/objgenerator.o
 .text          0x0000000000000000        0x0 build/py/objgetitemiter.o
 .data          0x0000000000000000        0x0 build/py/objgetitemiter.o
 .bss           0x0000000000000000        0x0 build/py/objgetitemiter.o
 .text          0x0000000000000000        0x0 build/py/objint.o
 .data          0x0000000000000000        0x0 build/py/objint.o
 .bss           0x0000000000000000        0x0 build/py/objint.o
 .text          0x0000000000000000        0x0 build/py/objint_longlong.o
 .data          0x0000000000000000        0x0 build/py/objint_longlong.o
 .bss           0x0000000000000000        0x0 build/py/objint_longlong.o
 .comment       0x0000000000000000       0x80 build/py/objint_longlong.o
 .ARM.attributes
                0x0000000000000000       0x31 build/py/objint_longlong.o
 .text          0x0000000000000000        0x0 build/py/objint_mpz.o
 .data          0x0000000000000000        0x0 build/py/objint_mpz.o
 .bss           0x0000000000000000        0x0 build/py/objint_mpz.o
 .text          0x0000000000000000        0x0 build/py/objlist.o
 .data          0x0000000000000000        0x0 build/py/objlist.o
 .bss           0x0000000000000000        0x0 build/py/objlist.o
 .text.mp_obj_list_store
                0x0000000000000000       0x1c build/py/objlist.o
 .text          0x0000000000000000        0x0 build/py/objmap.o
 .data          0x0000000000000000        0x0 build/py/objmap.o
 .bss           0x0000000000000000        0x0 build/py/objmap.o
 .text          0x0000000000000000        0x0 build/py/objmodule.o
 .data          0x0000000000000000        0x0 build/py/objmodule.o
 .bss           0x0000000000000000        0x0 build/py/objmodule.o
 .text.mp_module_register
                0x0000000000000000       0x1c build/py/objmodule.o
 .text          0x0000000000000000        0x0 build/py/objobject.o
 .data          0x0000000000000000        0x0 build/py/objobject.o
 .bss           0x0000000000000000        0x0 build/py/objobject.o
 .text          0x0000000000000000        0x0 build/py/objpolyiter.o
 .data          0x0000000000000000        0x0 build/py/objpolyiter.o
 .bss           0x0000000000000000        0x0 build/py/objpolyiter.o
 .text          0x0000000000000000        0x0 build/py/objproperty.o
 .data          0x0000000000000000        0x0 build/py/objproperty.o
 .bss           0x0000000000000000        0x0 build/py/objproperty.o
 .text          0x0000000000000000        0x0 build/py/objnone.o
 .data          0x0000000000000000        0x0 build/py/objnone.o
 .bss           0x0000000000000000        0x0 build/py/objnone.o
 .text          0x0000000000000000        0x0 build/py/objnamedtuple.o
 .data          0x0000000000000000        0x0 build/py/objnamedtuple.o
 .bss           0x0000000000000000        0x0 build/py/objnamedtuple.o
 .text.mp_obj_namedtuple_find_field
                0x0000000000000000       0x30 build/py/objnamedtuple.o
 .text          0x0000000000000000        0x0 build/py/objrange.o
 .data          0x0000000000000000        0x0 build/py/objrange.o
 .bss           0x0000000000000000        0x0 build/py/objrange.o
 .text          0x0000000000000000        0x0 build/py/objreversed.o
 .data          0x0000000000000000        0x0 build/py/objreversed.o
 .bss           0x0000000000000000        0x0 build/py/objreversed.o
 .text          0x0000000000000000        0x0 build/py/objset.o
 .data          0x0000000000000000        0x0 build/py/objset.o
 .bss           0x0000000000000000        0x0 build/py/objset.o
 .text          0x0000000000000000        0x0 build/py/objsingleton.o
 .data          0x0000000000000000        0x0 build/py/objsingleton.o
 .bss           0x0000000000000000        0x0 build/py/objsingleton.o
 .text          0x0000000000000000        0x0 build/py/objslice.o
 .data          0x0000000000000000        0x0 build/py/objslice.o
 .bss           0x0000000000000000        0x0 build/py/objslice.o
 .text          0x0000000000000000        0x0 build/py/objstr.o
 .data          0x0000000000000000        0x0 build/py/objstr.o
 .bss           0x0000000000000000        0x0 build/py/objstr.o
 .text.mp_obj_str_intern
                0x0000000000000000       0x2c build/py/objstr.o
 .text          0x0000000000000000        0x0 build/py/objstrunicode.o
 .data          0x0000000000000000        0x0 build/py/objstrunicode.o
 .bss           0x0000000000000000        0x0 build/py/objstrunicode.o
 .text          0x0000000000000000        0x0 build/py/objstringio.o
 .data          0x0000000000000000        0x0 build/py/objstringio.o
 .bss           0x0000000000000000        0x0 build/py/objstringio.o
 .text          0x0000000000000000        0x0 build/py/objtuple.o
 .data          0x0000000000000000        0x0 build/py/objtuple.o
 .bss           0x0000000000000000        0x0 build/py/objtuple.o
 .text          0x0000000000000000        0x0 build/py/objtype.o
 .data          0x0000000000000000        0x0 build/py/objtype.o
 .bss           0x0000000000000000        0x0 build/py/objtype.o
 .text          0x0000000000000000        0x0 build/py/objzip.o
 .data          0x0000000000000000        0x0 build/py/objzip.o
 .bss           0x0000000000000000        0x0 build/py/objzip.o
 .text          0x0000000000000000        0x0 build/py/opmethods.o
 .data          0x0000000000000000        0x0 build/py/opmethods.o
 .bss           0x0000000000000000        0x0 build/py/opmethods.o
 .text          0x0000000000000000        0x0 build/py/sequence.o
 .data          0x0000000000000000        0x0 build/py/sequence.o
 .bss           0x0000000000000000        0x0 build/py/sequence.o
 .text          0x0000000000000000        0x0 build/py/stream.o
 .data          0x0000000000000000        0x0 build/py/stream.o
 .bss           0x0000000000000000        0x0 build/py/stream.o
 .text.stream_ioctl
                0x0000000000000000       0x54 build/py/stream.o
 .text.stream_read1
                0x0000000000000000        0xc build/py/stream.o
 .text.stream_write1_method
                0x0000000000000000       0x20 build/py/stream.o
 .rodata.mp_stream_ioctl_obj
                0x0000000000000000        0xc build/py/stream.o
 .rodata.mp_stream_read1_obj
                0x0000000000000000        0xc build/py/stream.o
 .rodata.mp_stream_write1_obj
                0x0000000000000000        0x8 build/py/stream.o
 .text          0x0000000000000000        0x0 build/py/binary.o
 .data          0x0000000000000000        0x0 build/py/binary.o
 .bss           0x0000000000000000        0x0 build/py/binary.o
 .text          0x0000000000000000        0x0 build/py/builtinimport.o
 .data          0x0000000000000000        0x0 build/py/builtinimport.o
 .bss           0x0000000000000000        0x0 build/py/builtinimport.o
 .text          0x0000000000000000        0x0 build/py/builtinevex.o
 .data          0x0000000000000000        0x0 build/py/builtinevex.o
 .bss           0x0000000000000000        0x0 build/py/builtinevex.o
 .text          0x0000000000000000        0x0 build/py/builtinhelp.o
 .data          0x0000000000000000        0x0 build/py/builtinhelp.o
 .bss           0x0000000000000000        0x0 build/py/builtinhelp.o
 .rodata.mp_help_default_text
                0x0000000000000000      0x1b1 build/py/builtinhelp.o
 .text          0x0000000000000000        0x0 build/py/modarray.o
 .data          0x0000000000000000        0x0 build/py/modarray.o
 .bss           0x0000000000000000        0x0 build/py/modarray.o
 .text          0x0000000000000000        0x0 build/py/modbuiltins.o
 .data          0x0000000000000000        0x0 build/py/modbuiltins.o
 .bss           0x0000000000000000        0x0 build/py/modbuiltins.o
 .text          0x0000000000000000        0x0 build/py/modcollections.o
 .data          0x0000000000000000        0x0 build/py/modcollections.o
 .bss           0x0000000000000000        0x0 build/py/modcollections.o
 .text          0x0000000000000000        0x0 build/py/modgc.o
 .data          0x0000000000000000        0x0 build/py/modgc.o
 .bss           0x0000000000000000        0x0 build/py/modgc.o
 .text          0x0000000000000000        0x0 build/py/modio.o
 .data          0x0000000000000000        0x0 build/py/modio.o
 .bss           0x0000000000000000        0x0 build/py/modio.o
 .text          0x0000000000000000        0x0 build/py/modmath.o
 .data          0x0000000000000000        0x0 build/py/modmath.o
 .bss           0x0000000000000000        0x0 build/py/modmath.o
 .text          0x0000000000000000        0x0 build/py/modcmath.o
 .data          0x0000000000000000        0x0 build/py/modcmath.o
 .bss           0x0000000000000000        0x0 build/py/modcmath.o
 .text          0x0000000000000000        0x0 build/py/modmicropython.o
 .data          0x0000000000000000        0x0 build/py/modmicropython.o
 .bss           0x0000000000000000        0x0 build/py/modmicropython.o
 .text          0x0000000000000000        0x0 build/py/modstruct.o
 .data          0x0000000000000000        0x0 build/py/modstruct.o
 .bss           0x0000000000000000        0x0 build/py/modstruct.o
 .text          0x0000000000000000        0x0 build/py/modsys.o
 .data          0x0000000000000000        0x0 build/py/modsys.o
 .bss           0x0000000000000000        0x0 build/py/modsys.o
 .text          0x0000000000000000        0x0 build/py/moduerrno.o
 .data          0x0000000000000000        0x0 build/py/moduerrno.o
 .bss           0x0000000000000000        0x0 build/py/moduerrno.o
 .text          0x0000000000000000        0x0 build/py/modthread.o
 .data          0x0000000000000000        0x0 build/py/modthread.o
 .bss           0x0000000000000000        0x0 build/py/modthread.o
 .comment       0x0000000000000000       0x80 build/py/modthread.o
 .ARM.attributes
                0x0000000000000000       0x31 build/py/modthread.o
 .text          0x0000000000000000        0x0 build/py/vm.o
 .data          0x0000000000000000        0x0 build/py/vm.o
 .bss           0x0000000000000000        0x0 build/py/vm.o
 .text          0x0000000000000000        0x0 build/py/bc.o
 .data          0x0000000000000000        0x0 build/py/bc.o
 .bss           0x0000000000000000        0x0 build/py/bc.o
 .text          0x0000000000000000        0x0 build/py/showbc.o
 .data          0x0000000000000000        0x0 build/py/showbc.o
 .bss           0x0000000000000000        0x0 build/py/showbc.o
 .comment       0x0000000000000000       0x80 build/py/showbc.o
 .ARM.attributes
                0x0000000000000000       0x31 build/py/showbc.o
 .text          0x0000000000000000        0x0 build/py/repl.o
 .data          0x0000000000000000        0x0 build/py/repl.o
 .bss           0x0000000000000000        0x0 build/py/repl.o
 .text          0x0000000000000000        0x0 build/py/smallint.o
 .data          0x0000000000000000        0x0 build/py/smallint.o
 .bss           0x0000000000000000        0x0 build/py/smallint.o
 .text          0x0000000000000000        0x0 build/py/frozenmod.o
 .data          0x0000000000000000        0x0 build/py/frozenmod.o
 .bss           0x0000000000000000        0x0 build/py/frozenmod.o
 .text          0x0000000000000000        0x0 build/extmod/moductypes.o
 .data          0x0000000000000000        0x0 build/extmod/moductypes.o
 .bss           0x0000000000000000        0x0 build/extmod/moductypes.o
 .text          0x0000000000000000        0x0 build/extmod/modujson.o
 .data          0x0000000000000000        0x0 build/extmod/modujson.o
 .bss           0x0000000000000000        0x0 build/extmod/modujson.o
 .text          0x0000000000000000        0x0 build/extmod/modure.o
 .data          0x0000000000000000        0x0 build/extmod/modure.o
 .bss           0x0000000000000000        0x0 build/extmod/modure.o
 .text._re1_5_classmatch
                0x0000000000000000       0x38 build/extmod/modure.o
 .text.re1_5_recursiveloopprog
                0x0000000000000000       0x20 build/extmod/modure.o
 .text          0x0000000000000000        0x0 build/extmod/moduzlib.o
 .data          0x0000000000000000        0x0 build/extmod/moduzlib.o
 .bss           0x0000000000000000        0x0 build/extmod/moduzlib.o
 .text.uzlib_get_byte
                0x0000000000000000       0x18 build/extmod/moduzlib.o
 .text.tinf_get_le_uint32
                0x0000000000000000       0x2c build/extmod/moduzlib.o
 .text.tinf_get_be_uint32
                0x0000000000000000       0x28 build/extmod/moduzlib.o
 .text.uzlib_init
                0x0000000000000000        0x4 build/extmod/moduzlib.o
 .text.uzlib_uncompress_init
                0x0000000000000000       0x18 build/extmod/moduzlib.o
 .text.tinf_skip_bytes
                0x0000000000000000       0x24 build/extmod/moduzlib.o
 .text          0x0000000000000000        0x0 build/extmod/moduheapq.o
 .data          0x0000000000000000        0x0 build/extmod/moduheapq.o
 .bss           0x0000000000000000        0x0 build/extmod/moduheapq.o
 .text          0x0000000000000000        0x0 build/extmod/modutimeq.o
 .data          0x0000000000000000        0x0 build/extmod/modutimeq.o
 .bss           0x0000000000000000        0x0 build/extmod/modutimeq.o
 .text          0x0000000000000000        0x0 build/extmod/moduhashlib.o
 .data          0x0000000000000000        0x0 build/extmod/moduhashlib.o
 .bss           0x0000000000000000        0x0 build/extmod/moduhashlib.o
 .text.sha256_init
                0x0000000000000000       0x50 build/extmod/moduhashlib.o
 .text          0x0000000000000000        0x0 build/extmod/moducryptolib.o
 .data          0x0000000000000000        0x0 build/extmod/moducryptolib.o
 .bss           0x0000000000000000        0x0 build/extmod/moducryptolib.o
 .comment       0x0000000000000000       0x80 build/extmod/moducryptolib.o
 .ARM.attributes
                0x0000000000000000       0x31 build/extmod/moducryptolib.o
 .text          0x0000000000000000        0x0 build/extmod/modubinascii.o
 .data          0x0000000000000000        0x0 build/extmod/modubinascii.o
 .bss           0x0000000000000000        0x0 build/extmod/modubinascii.o
 .text          0x0000000000000000        0x0 build/extmod/virtpin.o
 .data          0x0000000000000000        0x0 build/extmod/virtpin.o
 .bss           0x0000000000000000        0x0 build/extmod/virtpin.o
 .text.mp_virtual_pin_read
                0x0000000000000000       0x14 build/extmod/virtpin.o
 .text.mp_virtual_pin_write
                0x0000000000000000       0x14 build/extmod/virtpin.o
 .comment       0x0000000000000000       0x80 build/extmod/virtpin.o
 .ARM.attributes
                0x0000000000000000       0x31 build/extmod/virtpin.o
 .text          0x0000000000000000        0x0 build/extmod/machine_mem.o
 .data          0x0000000000000000        0x0 build/extmod/machine_mem.o
 .bss           0x0000000000000000        0x0 build/extmod/machine_mem.o
 .text.machine_mem_get_addr
                0x0000000000000000       0x28 build/extmod/machine_mem.o
 .text.machine_mem_print
                0x0000000000000000       0x14 build/extmod/machine_mem.o
 .text.machine_mem_subscr
                0x0000000000000000       0x60 build/extmod/machine_mem.o
 .rodata.machine_mem16_obj
                0x0000000000000000        0x8 build/extmod/machine_mem.o
 .rodata.machine_mem32_obj
                0x0000000000000000        0x8 build/extmod/machine_mem.o
 .rodata.machine_mem8_obj
                0x0000000000000000        0x8 build/extmod/machine_mem.o
 .rodata.machine_mem_get_addr.str1.4
                0x0000000000000000       0x28 build/extmod/machine_mem.o
 .rodata.machine_mem_print.str1.4
                0x0000000000000000       0x10 build/extmod/machine_mem.o
 .rodata.machine_mem_type
                0x0000000000000000       0x3c build/extmod/machine_mem.o
 .comment       0x0000000000000000       0x80 build/extmod/machine_mem.o
 .ARM.attributes
                0x0000000000000000       0x31 build/extmod/machine_mem.o
 .text          0x0000000000000000        0x0 build/extmod/machine_pinbase.o
 .data          0x0000000000000000        0x0 build/extmod/machine_pinbase.o
 .bss           0x0000000000000000        0x0 build/extmod/machine_pinbase.o
 .text.pinbase_make_new
                0x0000000000000000        0x8 build/extmod/machine_pinbase.o
 .text.pinbase_ioctl
                0x0000000000000000       0x5c build/extmod/machine_pinbase.o
 .rodata.machine_pinbase_type
                0x0000000000000000       0x3c build/extmod/machine_pinbase.o
 .rodata.pinbase_pin_p
                0x0000000000000000        0x4 build/extmod/machine_pinbase.o
 .rodata.pinbase_singleton
                0x0000000000000000        0x4 build/extmod/machine_pinbase.o
 .comment       0x0000000000000000       0x80 build/extmod/machine_pinbase.o
 .ARM.attributes
                0x0000000000000000       0x31 build/extmod/machine_pinbase.o
 .text          0x0000000000000000        0x0 build/extmod/machine_signal.o
 .data          0x0000000000000000        0x0 build/extmod/machine_signal.o
 .bss           0x0000000000000000        0x0 build/extmod/machine_signal.o
 .text.signal_off
                0x0000000000000000       0x10 build/extmod/machine_signal.o
 .text.signal_on
                0x0000000000000000       0x10 build/extmod/machine_signal.o
 .text.signal_make_new
                0x0000000000000000       0x40 build/extmod/machine_signal.o
 .text.signal_ioctl
                0x0000000000000000       0x2c build/extmod/machine_signal.o
 .text.signal_call
                0x0000000000000000       0x3c build/extmod/machine_signal.o
 .text.signal_value
                0x0000000000000000       0x14 build/extmod/machine_signal.o
 .rodata.machine_signal_type
                0x0000000000000000       0x3c build/extmod/machine_signal.o
 .rodata.signal_locals_dict
                0x0000000000000000       0x10 build/extmod/machine_signal.o
 .rodata.signal_locals_dict_table
                0x0000000000000000       0x18 build/extmod/machine_signal.o
 .rodata.signal_off_obj
                0x0000000000000000        0x8 build/extmod/machine_signal.o
 .rodata.signal_on_obj
                0x0000000000000000        0x8 build/extmod/machine_signal.o
 .rodata.signal_pin_p
                0x0000000000000000        0x4 build/extmod/machine_signal.o
 .rodata.signal_value_obj
                0x0000000000000000        0xc build/extmod/machine_signal.o
 .comment       0x0000000000000000       0x80 build/extmod/machine_signal.o
 .ARM.attributes
                0x0000000000000000       0x31 build/extmod/machine_signal.o
 .text          0x0000000000000000        0x0 build/extmod/machine_pulse.o
 .data          0x0000000000000000        0x0 build/extmod/machine_pulse.o
 .bss           0x0000000000000000        0x0 build/extmod/machine_pulse.o
 .comment       0x0000000000000000       0x80 build/extmod/machine_pulse.o
 .ARM.attributes
                0x0000000000000000       0x31 build/extmod/machine_pulse.o
 .text          0x0000000000000000        0x0 build/extmod/machine_i2c.o
 .data          0x0000000000000000        0x0 build/extmod/machine_i2c.o
 .bss           0x0000000000000000        0x0 build/extmod/machine_i2c.o
 .comment       0x0000000000000000       0x80 build/extmod/machine_i2c.o
 .ARM.attributes
                0x0000000000000000       0x31 build/extmod/machine_i2c.o
 .text          0x0000000000000000        0x0 build/extmod/machine_spi.o
 .data          0x0000000000000000        0x0 build/extmod/machine_spi.o
 .bss           0x0000000000000000        0x0 build/extmod/machine_spi.o
 .comment       0x0000000000000000       0x80 build/extmod/machine_spi.o
 .ARM.attributes
                0x0000000000000000       0x31 build/extmod/machine_spi.o
 .text          0x0000000000000000        0x0 build/extmod/modussl_axtls.o
 .data          0x0000000000000000        0x0 build/extmod/modussl_axtls.o
 .bss           0x0000000000000000        0x0 build/extmod/modussl_axtls.o
 .comment       0x0000000000000000       0x80 build/extmod/modussl_axtls.o
 .ARM.attributes
                0x0000000000000000       0x31 build/extmod/modussl_axtls.o
 .text          0x0000000000000000        0x0 build/extmod/modussl_mbedtls.o
 .data          0x0000000000000000        0x0 build/extmod/modussl_mbedtls.o
 .bss           0x0000000000000000        0x0 build/extmod/modussl_mbedtls.o
 .comment       0x0000000000000000       0x80 build/extmod/modussl_mbedtls.o
 .ARM.attributes
                0x0000000000000000       0x31 build/extmod/modussl_mbedtls.o
 .text          0x0000000000000000        0x0 build/extmod/modurandom.o
 .data          0x0000000000000000        0x0 build/extmod/modurandom.o
 .bss           0x0000000000000000        0x0 build/extmod/modurandom.o
 .text          0x0000000000000000        0x0 build/extmod/moduselect.o
 .data          0x0000000000000000        0x0 build/extmod/moduselect.o
 .bss           0x0000000000000000        0x0 build/extmod/moduselect.o
 .comment       0x0000000000000000       0x80 build/extmod/moduselect.o
 .ARM.attributes
                0x0000000000000000       0x31 build/extmod/moduselect.o
 .text          0x0000000000000000        0x0 build/extmod/modwebsocket.o
 .data          0x0000000000000000        0x0 build/extmod/modwebsocket.o
 .bss           0x0000000000000000        0x0 build/extmod/modwebsocket.o
 .comment       0x0000000000000000       0x80 build/extmod/modwebsocket.o
 .ARM.attributes
                0x0000000000000000       0x31 build/extmod/modwebsocket.o
 .text          0x0000000000000000        0x0 build/extmod/modwebrepl.o
 .data          0x0000000000000000        0x0 build/extmod/modwebrepl.o
 .bss           0x0000000000000000        0x0 build/extmod/modwebrepl.o
 .comment       0x0000000000000000       0x80 build/extmod/modwebrepl.o
 .ARM.attributes
                0x0000000000000000       0x31 build/extmod/modwebrepl.o
 .text          0x0000000000000000        0x0 build/extmod/modframebuf.o
 .data          0x0000000000000000        0x0 build/extmod/modframebuf.o
 .bss           0x0000000000000000        0x0 build/extmod/modframebuf.o
 .comment       0x0000000000000000       0x80 build/extmod/modframebuf.o
 .ARM.attributes
                0x0000000000000000       0x31 build/extmod/modframebuf.o
 .text          0x0000000000000000        0x0 build/extmod/vfs.o
 .data          0x0000000000000000        0x0 build/extmod/vfs.o
 .bss           0x0000000000000000        0x0 build/extmod/vfs.o
 .text          0x0000000000000000        0x0 build/extmod/vfs_reader.o
 .data          0x0000000000000000        0x0 build/extmod/vfs_reader.o
 .bss           0x0000000000000000        0x0 build/extmod/vfs_reader.o
 .text          0x0000000000000000        0x0 build/extmod/vfs_posix.o
 .data          0x0000000000000000        0x0 build/extmod/vfs_posix.o
 .bss           0x0000000000000000        0x0 build/extmod/vfs_posix.o
 .comment       0x0000000000000000       0x80 build/extmod/vfs_posix.o
 .ARM.attributes
                0x0000000000000000       0x31 build/extmod/vfs_posix.o
 .text          0x0000000000000000        0x0 build/extmod/vfs_posix_file.o
 .data          0x0000000000000000        0x0 build/extmod/vfs_posix_file.o
 .bss           0x0000000000000000        0x0 build/extmod/vfs_posix_file.o
 .comment       0x0000000000000000       0x80 build/extmod/vfs_posix_file.o
 .ARM.attributes
                0x0000000000000000       0x31 build/extmod/vfs_posix_file.o
 .text          0x0000000000000000        0x0 build/extmod/vfs_fat.o
 .data          0x0000000000000000        0x0 build/extmod/vfs_fat.o
 .bss           0x0000000000000000        0x0 build/extmod/vfs_fat.o
 .comment       0x0000000000000000       0x80 build/extmod/vfs_fat.o
 .ARM.attributes
                0x0000000000000000       0x31 build/extmod/vfs_fat.o
 .text          0x0000000000000000        0x0 build/extmod/vfs_fat_diskio.o
 .data          0x0000000000000000        0x0 build/extmod/vfs_fat_diskio.o
 .bss           0x0000000000000000        0x0 build/extmod/vfs_fat_diskio.o
 .comment       0x0000000000000000       0x80 build/extmod/vfs_fat_diskio.o
 .ARM.attributes
                0x0000000000000000       0x31 build/extmod/vfs_fat_diskio.o
 .text          0x0000000000000000        0x0 build/extmod/vfs_fat_file.o
 .data          0x0000000000000000        0x0 build/extmod/vfs_fat_file.o
 .bss           0x0000000000000000        0x0 build/extmod/vfs_fat_file.o
 .comment       0x0000000000000000       0x80 build/extmod/vfs_fat_file.o
 .ARM.attributes
                0x0000000000000000       0x31 build/extmod/vfs_fat_file.o
 .text          0x0000000000000000        0x0 build/extmod/utime_mphal.o
 .data          0x0000000000000000        0x0 build/extmod/utime_mphal.o
 .bss           0x0000000000000000        0x0 build/extmod/utime_mphal.o
 .text          0x0000000000000000        0x0 build/extmod/uos_dupterm.o
 .data          0x0000000000000000        0x0 build/extmod/uos_dupterm.o
 .bss           0x0000000000000000        0x0 build/extmod/uos_dupterm.o
 .comment       0x0000000000000000       0x80 build/extmod/uos_dupterm.o
 .ARM.attributes
                0x0000000000000000       0x31 build/extmod/uos_dupterm.o
 .text          0x0000000000000000        0x0 build/lib/embed/abort_.o
 .data          0x0000000000000000        0x0 build/lib/embed/abort_.o
 .bss           0x0000000000000000        0x0 build/lib/embed/abort_.o
 .text.abort_   0x0000000000000000       0x14 build/lib/embed/abort_.o
 .rodata.abort_.str1.4
                0x0000000000000000        0xf build/lib/embed/abort_.o
 .comment       0x0000000000000000       0x80 build/lib/embed/abort_.o
 .ARM.attributes
                0x0000000000000000       0x31 build/lib/embed/abort_.o
 .text          0x0000000000000000        0x0 build/lib/utils/printf.o
 .data          0x0000000000000000        0x0 build/lib/utils/printf.o
 .bss           0x0000000000000000        0x0 build/lib/utils/printf.o
 .text.vprintf  0x0000000000000000       0x14 build/lib/utils/printf.o
 .text          0x0000000000000000        0x0 build/build/frozen.o
 .data          0x0000000000000000        0x0 build/build/frozen.o
 .bss           0x0000000000000000        0x0 build/build/frozen.o
 .text          0x0000000000000000        0x0 build/build/frozen_mpy.o
 .data          0x0000000000000000        0x0 build/build/frozen_mpy.o
 .bss           0x0000000000000000        0x0 build/build/frozen_mpy.o
 .text          0x0000000000000000        0x0 build/main.o
 .data          0x0000000000000000        0x0 build/main.o
 .bss           0x0000000000000000        0x0 build/main.o
 .text.debug_printer
                0x0000000000000000       0x14 build/main.o
 .text.mp_init_port
                0x0000000000000000       0x24 build/main.o
 .text.do_str   0x0000000000000000       0x54 build/main.o
 .rodata.debug_print
                0x0000000000000000        0x8 build/main.o
 .text          0x0000000000000000        0x0 build/help.o
 .data          0x0000000000000000        0x0 build/help.o
 .bss           0x0000000000000000        0x0 build/help.o
 .text          0x0000000000000000        0x0 build/machine.o
 .data          0x0000000000000000        0x0 build/machine.o
 .bss           0x0000000000000000        0x0 build/machine.o
 .text._exit    0x0000000000000000        0x4 build/machine.o
 .text          0x0000000000000000        0x0 build/mphalport.o
 .data          0x0000000000000000        0x0 build/mphalport.o
 .bss           0x0000000000000000        0x0 build/mphalport.o
 .text          0x0000000000000000        0x0 build/modmachine.o
 .data          0x0000000000000000        0x0 build/modmachine.o
 .bss           0x0000000000000000        0x0 build/modmachine.o
 .text          0x0000000000000000        0x0 build/moducode.o
 .data          0x0000000000000000        0x0 build/moducode.o
 .bss           0x0000000000000000        0x0 build/moducode.o
 .text          0x0000000000000000        0x0 build/moducomponent.o
 .data          0x0000000000000000        0x0 build/moducomponent.o
 .bss           0x0000000000000000        0x0 build/moducomponent.o
 .text          0x0000000000000000        0x0 build/moducomputer.o
 .data          0x0000000000000000        0x0 build/moducomputer.o
 .bss           0x0000000000000000        0x0 build/moducomputer.o
 .text          0x0000000000000000        0x0 build/moduos.o
 .data          0x0000000000000000        0x0 build/moduos.o
 .bss           0x0000000000000000        0x0 build/moduos.o
 .text          0x0000000000000000        0x0 build/moduimp.o
 .data          0x0000000000000000        0x0 build/moduimp.o
 .bss           0x0000000000000000        0x0 build/moduimp.o
 .text          0x0000000000000000        0x0 build/modutime.o
 .data          0x0000000000000000        0x0 build/modutime.o
 .bss           0x0000000000000000        0x0 build/modutime.o
 .text          0x0000000000000000        0x0 build/modumsgpack.o
 .data          0x0000000000000000        0x0 build/modumsgpack.o
 .bss           0x0000000000000000        0x0 build/modumsgpack.o
 .text          0x0000000000000000        0x0 build/moduvalue.o
 .data          0x0000000000000000        0x0 build/moduvalue.o
 .bss           0x0000000000000000        0x0 build/moduvalue.o
 .text.uvalue_new
                0x0000000000000000       0x18 build/moduvalue.o
 .text          0x0000000000000000        0x0 build/gccollect.o
 .data          0x0000000000000000        0x0 build/gccollect.o
 .bss           0x0000000000000000        0x0 build/gccollect.o
 .text          0x0000000000000000        0x0 build/openpython_vfs.o
 .data          0x0000000000000000        0x0 build/openpython_vfs.o
 .bss           0x0000000000000000        0x0 build/openpython_vfs.o
 .text          0x0000000000000000        0x0 build/msgpack.o
 .data          0x0000000000000000        0x0 build/msgpack.o
 .bss           0x0000000000000000        0x0 build/msgpack.o
 .text.msgpack_load_new
                0x0000000000000000       0x1c build/msgpack.o
 .text.msgpack_dump_new
                0x0000000000000000       0x1c build/msgpack.o
 .text          0x0000000000000000        0x0 build/syscall.o
 .data          0x0000000000000000        0x0 build/syscall.o
 .bss           0x0000000000000000        0x0 build/syscall.o
 .data          0x0000000000000000        0x0 build/gchelper_m0.o
 .bss           0x0000000000000000        0x0 build/gchelper_m0.o
 .text          0x0000000000000000        0x0 build/lib/mpack/mpack-common.o
 .data          0x0000000000000000        0x0 build/lib/mpack/mpack-common.o
 .bss           0x0000000000000000        0x0 build/lib/mpack/mpack-common.o
 .text.mpack_error_to_string
                0x0000000000000000       0x58 build/lib/mpack/mpack-common.o
 .rodata.mpack_error_to_string
                0x0000000000000000       0x28 build/lib/mpack/mpack-common.o
 .text.mpack_type_to_string
                0x0000000000000000       0x70 build/lib/mpack/mpack-common.o
 .rodata.mpack_type_to_string
                0x0000000000000000       0x30 build/lib/mpack/mpack-common.o
 .text.mpack_tag_cmp
                0x0000000000000000       0xf8 build/lib/mpack/mpack-common.o
 .rodata.mpack_tag_cmp
                0x0000000000000000       0x30 build/lib/mpack/mpack-common.o
 .text.mpack_utf8_check_no_null
                0x0000000000000000        0xc build/lib/mpack/mpack-common.o
 .text.mpack_str_check_no_null
                0x0000000000000000       0x28 build/lib/mpack/mpack-common.o
 .rodata.mpack_error_to_string.str1.4
                0x0000000000000000       0xa0 build/lib/mpack/mpack-common.o
 .rodata.mpack_type_to_string.str1.4
                0x0000000000000000       0xcf build/lib/mpack/mpack-common.o
 .text          0x0000000000000000        0x0 build/lib/mpack/mpack-expect.o
 .data          0x0000000000000000        0x0 build/lib/mpack/mpack-expect.o
 .bss           0x0000000000000000        0x0 build/lib/mpack/mpack-expect.o
 .text.mpack_expect_u8
                0x0000000000000000       0x38 build/lib/mpack/mpack-expect.o
 .text.mpack_expect_u16
                0x0000000000000000       0x40 build/lib/mpack/mpack-expect.o
 .text.mpack_expect_u32
                0x0000000000000000       0x34 build/lib/mpack/mpack-expect.o
 .text.mpack_expect_u64
                0x0000000000000000       0x34 build/lib/mpack/mpack-expect.o
 .text.mpack_expect_i8
                0x0000000000000000       0x4c build/lib/mpack/mpack-expect.o
 .text.mpack_expect_i16
                0x0000000000000000       0x5c build/lib/mpack/mpack-expect.o
 .text.mpack_expect_i32
                0x0000000000000000       0x48 build/lib/mpack/mpack-expect.o
 .text.mpack_expect_i64
                0x0000000000000000       0x34 build/lib/mpack/mpack-expect.o
 .text.mpack_expect_float
                0x0000000000000000       0x54 build/lib/mpack/mpack-expect.o
 .text.mpack_expect_double
                0x0000000000000000       0x54 build/lib/mpack/mpack-expect.o
 .text.mpack_expect_float_strict
                0x0000000000000000       0x28 build/lib/mpack/mpack-expect.o
 .text.mpack_expect_double_strict
                0x0000000000000000       0x38 build/lib/mpack/mpack-expect.o
 .text.mpack_expect_u8_range
                0x0000000000000000       0x2c build/lib/mpack/mpack-expect.o
 .text.mpack_expect_u16_range
                0x0000000000000000       0x2c build/lib/mpack/mpack-expect.o
 .text.mpack_expect_u32_range
                0x0000000000000000       0x2c build/lib/mpack/mpack-expect.o
 .text.mpack_expect_u64_range
                0x0000000000000000       0x50 build/lib/mpack/mpack-expect.o
 .text.mpack_expect_i8_range
                0x0000000000000000       0x2c build/lib/mpack/mpack-expect.o
 .text.mpack_expect_i16_range
                0x0000000000000000       0x2c build/lib/mpack/mpack-expect.o
 .text.mpack_expect_i32_range
                0x0000000000000000       0x2c build/lib/mpack/mpack-expect.o
 .text.mpack_expect_i64_range
                0x0000000000000000       0x50 build/lib/mpack/mpack-expect.o
 .text.mpack_expect_float_range
                0x0000000000000000       0x40 build/lib/mpack/mpack-expect.o
 .text.mpack_expect_double_range
                0x0000000000000000       0x58 build/lib/mpack/mpack-expect.o
 .text.mpack_expect_uint_match
                0x0000000000000000       0x20 build/lib/mpack/mpack-expect.o
 .text.mpack_expect_int_match
                0x0000000000000000       0x20 build/lib/mpack/mpack-expect.o
 .text.mpack_expect_nil
                0x0000000000000000       0x38 build/lib/mpack/mpack-expect.o
 .text.mpack_expect_bool
                0x0000000000000000       0x44 build/lib/mpack/mpack-expect.o
 .text.mpack_expect_true
                0x0000000000000000       0x18 build/lib/mpack/mpack-expect.o
 .text.mpack_expect_false
                0x0000000000000000       0x18 build/lib/mpack/mpack-expect.o
 .text.mpack_expect_timestamp
                0x0000000000000000       0x48 build/lib/mpack/mpack-expect.o
 .text.mpack_expect_timestamp_truncate
                0x0000000000000000       0x14 build/lib/mpack/mpack-expect.o
 .text.mpack_expect_map
                0x0000000000000000       0x28 build/lib/mpack/mpack-expect.o
 .text.mpack_expect_map_range
                0x0000000000000000       0x2c build/lib/mpack/mpack-expect.o
 .text.mpack_expect_map_match
                0x0000000000000000       0x18 build/lib/mpack/mpack-expect.o
 .text.mpack_expect_map_or_nil
                0x0000000000000000       0x38 build/lib/mpack/mpack-expect.o
 .text.mpack_expect_map_max_or_nil
                0x0000000000000000       0x2c build/lib/mpack/mpack-expect.o
 .text.mpack_expect_array
                0x0000000000000000       0x28 build/lib/mpack/mpack-expect.o
 .text.mpack_expect_array_range
                0x0000000000000000       0x2c build/lib/mpack/mpack-expect.o
 .text.mpack_expect_array_match
                0x0000000000000000       0x18 build/lib/mpack/mpack-expect.o
 .text.mpack_expect_array_or_nil
                0x0000000000000000       0x38 build/lib/mpack/mpack-expect.o
 .text.mpack_expect_array_max_or_nil
                0x0000000000000000       0x2c build/lib/mpack/mpack-expect.o
 .text.mpack_expect_array_alloc_impl
                0x0000000000000000       0x5c build/lib/mpack/mpack-expect.o
 .text.mpack_expect_str
                0x0000000000000000       0xdc build/lib/mpack/mpack-expect.o
 .text.mpack_expect_cstr_alloc_unchecked
                0x0000000000000000       0x44 build/lib/mpack/mpack-expect.o
 .text.mpack_expect_str_buf
                0x0000000000000000       0x44 build/lib/mpack/mpack-expect.o
 .text.mpack_expect_utf8
                0x0000000000000000       0x28 build/lib/mpack/mpack-expect.o
 .text.mpack_expect_bin
                0x0000000000000000       0x28 build/lib/mpack/mpack-expect.o
 .text.mpack_expect_bin_buf
                0x0000000000000000       0x44 build/lib/mpack/mpack-expect.o
 .text.mpack_expect_ext
                0x0000000000000000       0x34 build/lib/mpack/mpack-expect.o
 .text.mpack_expect_ext_buf
                0x0000000000000000       0x5c build/lib/mpack/mpack-expect.o
 .text.mpack_expect_cstr
                0x0000000000000000       0x1c build/lib/mpack/mpack-expect.o
 .text.mpack_expect_utf8_cstr
                0x0000000000000000       0x1c build/lib/mpack/mpack-expect.o
 .text.mpack_expect_cstr_alloc
                0x0000000000000000       0x34 build/lib/mpack/mpack-expect.o
 .text.mpack_expect_utf8_cstr_alloc
                0x0000000000000000       0x34 build/lib/mpack/mpack-expect.o
 .text.mpack_expect_str_match
                0x0000000000000000       0x6c build/lib/mpack/mpack-expect.o
 .text.mpack_expect_tag
                0x0000000000000000       0x54 build/lib/mpack/mpack-expect.o
 .text.mpack_expect_bin_alloc
                0x0000000000000000       0x48 build/lib/mpack/mpack-expect.o
 .text.mpack_expect_ext_alloc
                0x0000000000000000       0x54 build/lib/mpack/mpack-expect.o
 .text.mpack_expect_enum
                0x0000000000000000       0x70 build/lib/mpack/mpack-expect.o
 .text.mpack_expect_enum_optional
                0x0000000000000000       0x80 build/lib/mpack/mpack-expect.o
 .text.mpack_expect_key_uint
                0x0000000000000000       0x68 build/lib/mpack/mpack-expect.o
 .text.mpack_expect_key_cstr
                0x0000000000000000       0x2c build/lib/mpack/mpack-expect.o
 .comment       0x0000000000000000       0x80 build/lib/mpack/mpack-expect.o
 .ARM.attributes
                0x0000000000000000       0x31 build/lib/mpack/mpack-expect.o
 .text          0x0000000000000000        0x0 build/lib/mpack/mpack-node.o
 .data          0x0000000000000000        0x0 build/lib/mpack/mpack-node.o
 .bss           0x0000000000000000        0x0 build/lib/mpack/mpack-node.o
 .text.mpack_tree_cleanup
                0x0000000000000000       0x34 build/lib/mpack/mpack-node.o
 .text.mpack_tree_flag_error.part.8
                0x0000000000000000       0x10 build/lib/mpack/mpack-node.o
 .text.mpack_tree_reserve_fill
                0x0000000000000000       0xe0 build/lib/mpack/mpack-node.o
 .text.mpack_node_map_int_impl
                0x0000000000000000       0x84 build/lib/mpack/mpack-node.o
 .text.mpack_node_map_uint_impl
                0x0000000000000000       0x8c build/lib/mpack/mpack-node.o
 .text.mpack_node_map_str_impl
                0x0000000000000000       0xa8 build/lib/mpack/mpack-node.o
 .text.mpack_node_map_at
                0x0000000000000000       0x50 build/lib/mpack/mpack-node.o
 .text.mpack_tree_parse_start
                0x0000000000000000       0xf8 build/lib/mpack/mpack-node.o
 .text.mpack_tree_parse_children
                0x0000000000000000      0x170 build/lib/mpack/mpack-node.o
 .text.mpack_tree_continue_parsing.part.12
                0x0000000000000000      0xac0 build/lib/mpack/mpack-node.o
 .rodata.mpack_tree_continue_parsing.part.12
                0x0000000000000000      0x200 build/lib/mpack/mpack-node.o
 .text.mpack_tree_parse
                0x0000000000000000       0x60 build/lib/mpack/mpack-node.o
 .text.mpack_tree_try_parse
                0x0000000000000000       0x38 build/lib/mpack/mpack-node.o
 .text.mpack_tree_root
                0x0000000000000000       0x34 build/lib/mpack/mpack-node.o
 .text.mpack_tree_init
                0x0000000000000000       0x28 build/lib/mpack/mpack-node.o
 .text.mpack_tree_init_pool
                0x0000000000000000       0x4c build/lib/mpack/mpack-node.o
 .text.mpack_tree_init_error
                0x0000000000000000       0x24 build/lib/mpack/mpack-node.o
 .text.mpack_tree_init_stream
                0x0000000000000000       0x28 build/lib/mpack/mpack-node.o
 .text.mpack_tree_destroy
                0x0000000000000000       0x28 build/lib/mpack/mpack-node.o
 .text.mpack_tree_flag_error
                0x0000000000000000       0x10 build/lib/mpack/mpack-node.o
 .text.mpack_node_flag_error
                0x0000000000000000       0x1c build/lib/mpack/mpack-node.o
 .text.mpack_node_tag
                0x0000000000000000       0x98 build/lib/mpack/mpack-node.o
 .rodata.mpack_node_tag
                0x0000000000000000       0x30 build/lib/mpack/mpack-node.o
 .text.mpack_node_check_utf8
                0x0000000000000000       0x40 build/lib/mpack/mpack-node.o
 .text.mpack_node_check_utf8_cstr
                0x0000000000000000       0x40 build/lib/mpack/mpack-node.o
 .text.mpack_node_copy_data
                0x0000000000000000       0x4c build/lib/mpack/mpack-node.o
 .text.mpack_node_copy_utf8
                0x0000000000000000       0x6c build/lib/mpack/mpack-node.o
 .text.mpack_node_copy_cstr
                0x0000000000000000       0x98 build/lib/mpack/mpack-node.o
 .text.mpack_node_copy_utf8_cstr
                0x0000000000000000       0x98 build/lib/mpack/mpack-node.o
 .text.mpack_node_data_alloc
                0x0000000000000000       0x68 build/lib/mpack/mpack-node.o
 .text.mpack_node_cstr_alloc
                0x0000000000000000       0xa8 build/lib/mpack/mpack-node.o
 .text.mpack_node_utf8_cstr_alloc
                0x0000000000000000       0xa8 build/lib/mpack/mpack-node.o
 .text.mpack_node_map_int
                0x0000000000000000       0x40 build/lib/mpack/mpack-node.o
 .text.mpack_node_map_int_optional
                0x0000000000000000       0x44 build/lib/mpack/mpack-node.o
 .text.mpack_node_map_uint
                0x0000000000000000       0x40 build/lib/mpack/mpack-node.o
 .text.mpack_node_map_uint_optional
                0x0000000000000000       0x44 build/lib/mpack/mpack-node.o
 .text.mpack_node_map_str
                0x0000000000000000       0x40 build/lib/mpack/mpack-node.o
 .text.mpack_node_map_str_optional
                0x0000000000000000       0x44 build/lib/mpack/mpack-node.o
 .text.mpack_node_map_cstr
                0x0000000000000000       0x28 build/lib/mpack/mpack-node.o
 .text.mpack_node_map_cstr_optional
                0x0000000000000000       0x28 build/lib/mpack/mpack-node.o
 .text.mpack_node_map_contains_int
                0x0000000000000000       0x14 build/lib/mpack/mpack-node.o
 .text.mpack_node_map_contains_uint
                0x0000000000000000       0x14 build/lib/mpack/mpack-node.o
 .text.mpack_node_map_contains_str
                0x0000000000000000       0x14 build/lib/mpack/mpack-node.o
 .text.mpack_node_map_contains_cstr
                0x0000000000000000       0x30 build/lib/mpack/mpack-node.o
 .text.mpack_node_type
                0x0000000000000000       0x18 build/lib/mpack/mpack-node.o
 .text.mpack_node_is_nil
                0x0000000000000000       0x20 build/lib/mpack/mpack-node.o
 .text.mpack_node_is_missing
                0x0000000000000000       0x20 build/lib/mpack/mpack-node.o
 .text.mpack_node_nil
                0x0000000000000000       0x24 build/lib/mpack/mpack-node.o
 .text.mpack_node_missing
                0x0000000000000000       0x28 build/lib/mpack/mpack-node.o
 .text.mpack_node_bool
                0x0000000000000000       0x2c build/lib/mpack/mpack-node.o
 .text.mpack_node_true
                0x0000000000000000       0x44 build/lib/mpack/mpack-node.o
 .text.mpack_node_false
                0x0000000000000000       0x2c build/lib/mpack/mpack-node.o
 .text.mpack_node_u8
                0x0000000000000000       0x40 build/lib/mpack/mpack-node.o
 .text.mpack_node_i8
                0x0000000000000000       0x58 build/lib/mpack/mpack-node.o
 .text.mpack_node_u16
                0x0000000000000000       0x44 build/lib/mpack/mpack-node.o
 .text.mpack_node_i16
                0x0000000000000000       0x64 build/lib/mpack/mpack-node.o
 .text.mpack_node_u32
                0x0000000000000000       0x38 build/lib/mpack/mpack-node.o
 .text.mpack_node_i32
                0x0000000000000000       0x50 build/lib/mpack/mpack-node.o
 .text.mpack_node_u64
                0x0000000000000000       0x44 build/lib/mpack/mpack-node.o
 .text.mpack_node_i64
                0x0000000000000000       0x44 build/lib/mpack/mpack-node.o
 .text.mpack_node_uint
                0x0000000000000000        0xc build/lib/mpack/mpack-node.o
 .text.mpack_node_int
                0x0000000000000000        0xc build/lib/mpack/mpack-node.o
 .text.mpack_node_float
                0x0000000000000000       0x58 build/lib/mpack/mpack-node.o
 .text.mpack_node_double
                0x0000000000000000       0x5c build/lib/mpack/mpack-node.o
 .text.mpack_node_float_strict
                0x0000000000000000       0x30 build/lib/mpack/mpack-node.o
 .text.mpack_node_double_strict
                0x0000000000000000       0x40 build/lib/mpack/mpack-node.o
 .text.mpack_node_exttype
                0x0000000000000000       0x38 build/lib/mpack/mpack-node.o
 .text.mpack_node_timestamp
                0x0000000000000000       0xc8 build/lib/mpack/mpack-node.o
 .text.mpack_node_timestamp_seconds
                0x0000000000000000       0x18 build/lib/mpack/mpack-node.o
 .text.mpack_node_timestamp_nanoseconds
                0x0000000000000000       0x14 build/lib/mpack/mpack-node.o
 .text.mpack_node_data_len
                0x0000000000000000       0x30 build/lib/mpack/mpack-node.o
 .text.mpack_node_strlen
                0x0000000000000000       0x2c build/lib/mpack/mpack-node.o
 .text.mpack_node_str
                0x0000000000000000       0x34 build/lib/mpack/mpack-node.o
 .text.mpack_node_enum_optional
                0x0000000000000000       0x7c build/lib/mpack/mpack-node.o
 .text.mpack_node_enum
                0x0000000000000000       0x2c build/lib/mpack/mpack-node.o
 .text.mpack_node_data
                0x0000000000000000       0x38 build/lib/mpack/mpack-node.o
 .text.mpack_node_bin_data
                0x0000000000000000       0x34 build/lib/mpack/mpack-node.o
 .text.mpack_node_bin_size
                0x0000000000000000       0x2c build/lib/mpack/mpack-node.o
 .text.mpack_node_array_length
                0x0000000000000000       0x2c build/lib/mpack/mpack-node.o
 .text.mpack_node_array_at
                0x0000000000000000       0x48 build/lib/mpack/mpack-node.o
 .text.mpack_node_map_count
                0x0000000000000000       0x2c build/lib/mpack/mpack-node.o
 .text.mpack_node_map_key_at
                0x0000000000000000       0x18 build/lib/mpack/mpack-node.o
 .text.mpack_node_map_value_at
                0x0000000000000000       0x18 build/lib/mpack/mpack-node.o
 .comment       0x0000000000000000       0x80 build/lib/mpack/mpack-node.o
 .ARM.attributes
                0x0000000000000000       0x31 build/lib/mpack/mpack-node.o
 .text          0x0000000000000000        0x0 build/lib/mpack/mpack-platform.o
 .data          0x0000000000000000        0x0 build/lib/mpack/mpack-platform.o
 .bss           0x0000000000000000        0x0 build/lib/mpack/mpack-platform.o
 .text.mpack_realloc
                0x0000000000000000        0xc build/lib/mpack/mpack-platform.o
 .text.mpack_tag_make_nil
                0x0000000000000000       0x14 build/lib/mpack/mpack-platform.o
 .text.mpack_tag_make_bool
                0x0000000000000000       0x14 build/lib/mpack/mpack-platform.o
 .text.mpack_tag_make_true
                0x0000000000000000       0x18 build/lib/mpack/mpack-platform.o
 .text.mpack_tag_make_false
                0x0000000000000000       0x14 build/lib/mpack/mpack-platform.o
 .text.mpack_tag_make_int
                0x0000000000000000       0x10 build/lib/mpack/mpack-platform.o
 .text.mpack_tag_make_uint
                0x0000000000000000       0x10 build/lib/mpack/mpack-platform.o
 .text.mpack_tag_make_float
                0x0000000000000000       0x14 build/lib/mpack/mpack-platform.o
 .text.mpack_tag_make_double
                0x0000000000000000       0x10 build/lib/mpack/mpack-platform.o
 .text.mpack_tag_make_array
                0x0000000000000000       0x14 build/lib/mpack/mpack-platform.o
 .text.mpack_tag_make_map
                0x0000000000000000       0x14 build/lib/mpack/mpack-platform.o
 .text.mpack_tag_make_str
                0x0000000000000000       0x14 build/lib/mpack/mpack-platform.o
 .text.mpack_tag_make_bin
                0x0000000000000000       0x14 build/lib/mpack/mpack-platform.o
 .text.mpack_tag_make_ext
                0x0000000000000000       0x14 build/lib/mpack/mpack-platform.o
 .text.mpack_tag_type
                0x0000000000000000        0x4 build/lib/mpack/mpack-platform.o
 .text.mpack_tag_bool_value
                0x0000000000000000        0x4 build/lib/mpack/mpack-platform.o
 .text.mpack_tag_int_value
                0x0000000000000000        0x8 build/lib/mpack/mpack-platform.o
 .text.mpack_tag_uint_value
                0x0000000000000000        0x8 build/lib/mpack/mpack-platform.o
 .text.mpack_tag_float_value
                0x0000000000000000        0x4 build/lib/mpack/mpack-platform.o
 .text.mpack_tag_double_value
                0x0000000000000000        0x8 build/lib/mpack/mpack-platform.o
 .text.mpack_tag_array_count
                0x0000000000000000        0x4 build/lib/mpack/mpack-platform.o
 .text.mpack_tag_map_count
                0x0000000000000000        0x4 build/lib/mpack/mpack-platform.o
 .text.mpack_tag_str_length
                0x0000000000000000        0x4 build/lib/mpack/mpack-platform.o
 .text.mpack_tag_bin_length
                0x0000000000000000        0x4 build/lib/mpack/mpack-platform.o
 .text.mpack_tag_ext_length
                0x0000000000000000        0x4 build/lib/mpack/mpack-platform.o
 .text.mpack_tag_ext_exttype
                0x0000000000000000        0x8 build/lib/mpack/mpack-platform.o
 .text.mpack_tag_bytes
                0x0000000000000000        0x4 build/lib/mpack/mpack-platform.o
 .text.mpack_tag_equal
                0x0000000000000000       0x2c build/lib/mpack/mpack-platform.o
 .text.mpack_tag_nil
                0x0000000000000000       0x14 build/lib/mpack/mpack-platform.o
 .text.mpack_tag_bool
                0x0000000000000000       0x2c build/lib/mpack/mpack-platform.o
 .text.mpack_tag_true
                0x0000000000000000       0x2c build/lib/mpack/mpack-platform.o
 .text.mpack_tag_false
                0x0000000000000000       0x14 build/lib/mpack/mpack-platform.o
 .text.mpack_tag_int
                0x0000000000000000       0x10 build/lib/mpack/mpack-platform.o
 .text.mpack_tag_uint
                0x0000000000000000       0x10 build/lib/mpack/mpack-platform.o
 .text.mpack_tag_float
                0x0000000000000000       0x28 build/lib/mpack/mpack-platform.o
 .text.mpack_tag_double
                0x0000000000000000       0x10 build/lib/mpack/mpack-platform.o
 .text.mpack_tag_array
                0x0000000000000000       0x28 build/lib/mpack/mpack-platform.o
 .text.mpack_tag_map
                0x0000000000000000       0x28 build/lib/mpack/mpack-platform.o
 .text.mpack_tag_str
                0x0000000000000000       0x28 build/lib/mpack/mpack-platform.o
 .text.mpack_tag_bin
                0x0000000000000000       0x28 build/lib/mpack/mpack-platform.o
 .text.mpack_tag_ext
                0x0000000000000000       0x28 build/lib/mpack/mpack-platform.o
 .text.mpack_load_u8
                0x0000000000000000        0x4 build/lib/mpack/mpack-platform.o
 .text.mpack_load_u16
                0x0000000000000000        0xc build/lib/mpack/mpack-platform.o
 .text.mpack_load_u32
                0x0000000000000000       0x18 build/lib/mpack/mpack-platform.o
 .text.mpack_load_u64
                0x0000000000000000       0x1c build/lib/mpack/mpack-platform.o
 .text.mpack_store_u8
                0x0000000000000000        0x4 build/lib/mpack/mpack-platform.o
 .text.mpack_store_u16
                0x0000000000000000        0x8 build/lib/mpack/mpack-platform.o
 .text.mpack_store_u32
                0x0000000000000000       0x10 build/lib/mpack/mpack-platform.o
 .text.mpack_store_u64
                0x0000000000000000       0x20 build/lib/mpack/mpack-platform.o
 .text.mpack_load_i8
                0x0000000000000000        0x8 build/lib/mpack/mpack-platform.o
 .text.mpack_load_i16
                0x0000000000000000        0xc build/lib/mpack/mpack-platform.o
 .text.mpack_load_i32
                0x0000000000000000       0x18 build/lib/mpack/mpack-platform.o
 .text.mpack_load_i64
                0x0000000000000000       0x1c build/lib/mpack/mpack-platform.o
 .text.mpack_store_i8
                0x0000000000000000        0x4 build/lib/mpack/mpack-platform.o
 .text.mpack_store_i16
                0x0000000000000000        0xc build/lib/mpack/mpack-platform.o
 .text.mpack_store_i32
                0x0000000000000000       0x10 build/lib/mpack/mpack-platform.o
 .text.mpack_store_i64
                0x0000000000000000       0x18 build/lib/mpack/mpack-platform.o
 .text.mpack_load_float
                0x0000000000000000       0x18 build/lib/mpack/mpack-platform.o
 .text.mpack_load_double
                0x0000000000000000       0x1c build/lib/mpack/mpack-platform.o
 .text.mpack_store_float
                0x0000000000000000       0x14 build/lib/mpack/mpack-platform.o
 .text.mpack_store_double
                0x0000000000000000       0x18 build/lib/mpack/mpack-platform.o
 .text.mpack_writer_track_push
                0x0000000000000000        0x4 build/lib/mpack/mpack-platform.o
 .text.mpack_writer_track_pop
                0x0000000000000000        0x4 build/lib/mpack/mpack-platform.o
 .text.mpack_writer_track_element
                0x0000000000000000        0x4 build/lib/mpack/mpack-platform.o
 .text.mpack_writer_track_bytes
                0x0000000000000000        0x4 build/lib/mpack/mpack-platform.o
 .text.mpack_writer_set_context
                0x0000000000000000        0x4 build/lib/mpack/mpack-platform.o
 .text.mpack_writer_set_error_handler
                0x0000000000000000        0x4 build/lib/mpack/mpack-platform.o
 .text.mpack_writer_set_teardown
                0x0000000000000000        0x4 build/lib/mpack/mpack-platform.o
 .text.mpack_writer_buffer_used
                0x0000000000000000        0x8 build/lib/mpack/mpack-platform.o
 .text.mpack_writer_buffer_left
                0x0000000000000000        0x8 build/lib/mpack/mpack-platform.o
 .text.mpack_writer_buffer_size
                0x0000000000000000        0x8 build/lib/mpack/mpack-platform.o
 .text.mpack_writer_error
                0x0000000000000000        0x4 build/lib/mpack/mpack-platform.o
 .text.mpack_write_int
                0x0000000000000000        0x8 build/lib/mpack/mpack-platform.o
 .text.mpack_write_uint
                0x0000000000000000        0x8 build/lib/mpack/mpack-platform.o
 .text.mpack_write_timestamp_seconds
                0x0000000000000000       0x10 build/lib/mpack/mpack-platform.o
 .text.mpack_write_timestamp_struct
                0x0000000000000000       0x20 build/lib/mpack/mpack-platform.o
 .text.mpack_finish_array
                0x0000000000000000        0x4 build/lib/mpack/mpack-platform.o
 .text.mpack_finish_map
                0x0000000000000000        0x4 build/lib/mpack/mpack-platform.o
 .text.mpack_finish_str
                0x0000000000000000        0x4 build/lib/mpack/mpack-platform.o
 .text.mpack_finish_bin
                0x0000000000000000        0x4 build/lib/mpack/mpack-platform.o
 .text.mpack_finish_ext
                0x0000000000000000        0x4 build/lib/mpack/mpack-platform.o
 .text.mpack_finish_type
                0x0000000000000000        0x4 build/lib/mpack/mpack-platform.o
 .text.mpack_reader_set_context
                0x0000000000000000        0x4 build/lib/mpack/mpack-platform.o
 .text.mpack_reader_set_error_handler
                0x0000000000000000        0x4 build/lib/mpack/mpack-platform.o
 .text.mpack_reader_set_teardown
                0x0000000000000000        0x4 build/lib/mpack/mpack-platform.o
 .text.mpack_reader_error
                0x0000000000000000        0x8 build/lib/mpack/mpack-platform.o
 .text.mpack_reader_flag_if_error
                0x0000000000000000       0x14 build/lib/mpack/mpack-platform.o
 .text.mpack_read_bytes_alloc
                0x0000000000000000        0xc build/lib/mpack/mpack-platform.o
 .text.mpack_should_read_bytes_inplace
                0x0000000000000000       0x14 build/lib/mpack/mpack-platform.o
 .text.mpack_done_type
                0x0000000000000000        0x4 build/lib/mpack/mpack-platform.o
 .text.mpack_done_array
                0x0000000000000000        0x4 build/lib/mpack/mpack-platform.o
 .text.mpack_done_map
                0x0000000000000000        0x4 build/lib/mpack/mpack-platform.o
 .text.mpack_done_str
                0x0000000000000000        0x4 build/lib/mpack/mpack-platform.o
 .text.mpack_done_bin
                0x0000000000000000        0x4 build/lib/mpack/mpack-platform.o
 .text.mpack_done_ext
                0x0000000000000000        0x4 build/lib/mpack/mpack-platform.o
 .text.mpack_reader_ensure
                0x0000000000000000       0x18 build/lib/mpack/mpack-platform.o
 .text.mpack_read_native
                0x0000000000000000       0x30 build/lib/mpack/mpack-platform.o
 .text.mpack_reader_track_element
                0x0000000000000000        0x4 build/lib/mpack/mpack-platform.o
 .text.mpack_reader_track_peek_element
                0x0000000000000000        0x4 build/lib/mpack/mpack-platform.o
 .text.mpack_reader_track_bytes
                0x0000000000000000        0x4 build/lib/mpack/mpack-platform.o
 .text.mpack_reader_track_str_bytes_all
                0x0000000000000000        0x4 build/lib/mpack/mpack-platform.o
 .text.mpack_expect_uint_range
                0x0000000000000000        0x8 build/lib/mpack/mpack-platform.o
 .text.mpack_expect_u8_max
                0x0000000000000000        0xc build/lib/mpack/mpack-platform.o
 .text.mpack_expect_u16_max
                0x0000000000000000        0xc build/lib/mpack/mpack-platform.o
 .text.mpack_expect_u32_max
                0x0000000000000000        0xc build/lib/mpack/mpack-platform.o
 .text.mpack_expect_u64_max
                0x0000000000000000       0x14 build/lib/mpack/mpack-platform.o
 .text.mpack_expect_uint_max
                0x0000000000000000        0xc build/lib/mpack/mpack-platform.o
 .text.mpack_expect_int_range
                0x0000000000000000        0x8 build/lib/mpack/mpack-platform.o
 .text.mpack_expect_i8_max
                0x0000000000000000        0xc build/lib/mpack/mpack-platform.o
 .text.mpack_expect_i16_max
                0x0000000000000000        0xc build/lib/mpack/mpack-platform.o
 .text.mpack_expect_i32_max
                0x0000000000000000        0xc build/lib/mpack/mpack-platform.o
 .text.mpack_expect_i64_max
                0x0000000000000000       0x14 build/lib/mpack/mpack-platform.o
 .text.mpack_expect_int_max
                0x0000000000000000        0xc build/lib/mpack/mpack-platform.o
 .text.mpack_expect_uint
                0x0000000000000000        0x8 build/lib/mpack/mpack-platform.o
 .text.mpack_expect_int
                0x0000000000000000        0x8 build/lib/mpack/mpack-platform.o
 .text.mpack_expect_map_max
                0x0000000000000000        0xc build/lib/mpack/mpack-platform.o
 .text.mpack_expect_array_max
                0x0000000000000000        0xc build/lib/mpack/mpack-platform.o
 .text.mpack_expect_str_max
                0x0000000000000000       0x1c build/lib/mpack/mpack-platform.o
 .text.mpack_expect_str_length
                0x0000000000000000       0x18 build/lib/mpack/mpack-platform.o
 .text.mpack_expect_cstr_match
                0x0000000000000000       0x18 build/lib/mpack/mpack-platform.o
 .text.mpack_expect_bin_max
                0x0000000000000000       0x1c build/lib/mpack/mpack-platform.o
 .text.mpack_expect_bin_size
                0x0000000000000000       0x18 build/lib/mpack/mpack-platform.o
 .text.mpack_expect_ext_max
                0x0000000000000000       0x1c build/lib/mpack/mpack-platform.o
 .text.mpack_expect_ext_size
                0x0000000000000000       0x20 build/lib/mpack/mpack-platform.o
 .text.mpack_node
                0x0000000000000000        0x8 build/lib/mpack/mpack-platform.o
 .text.mpack_node_child
                0x0000000000000000        0xc build/lib/mpack/mpack-platform.o
 .text.mpack_tree_nil_node
                0x0000000000000000        0xc build/lib/mpack/mpack-platform.o
 .text.mpack_tree_missing_node
                0x0000000000000000        0xc build/lib/mpack/mpack-platform.o
 .text.mpack_tree_error
                0x0000000000000000        0x8 build/lib/mpack/mpack-platform.o
 .text.mpack_tree_size
                0x0000000000000000        0x4 build/lib/mpack/mpack-platform.o
 .text.mpack_tree_set_context
                0x0000000000000000        0x4 build/lib/mpack/mpack-platform.o
 .text.mpack_tree_set_error_handler
                0x0000000000000000        0x4 build/lib/mpack/mpack-platform.o
 .text.mpack_tree_set_teardown
                0x0000000000000000        0x4 build/lib/mpack/mpack-platform.o
 .text.mpack_node_error
                0x0000000000000000       0x10 build/lib/mpack/mpack-platform.o
 .text          0x0000000000000000        0x0 build/lib/mpack/mpack-reader.o
 .data          0x0000000000000000        0x0 build/lib/mpack/mpack-reader.o
 .bss           0x0000000000000000        0x0 build/lib/mpack/mpack-reader.o
 .text.mpack_reader_skip_using_fill
                0x0000000000000000       0x58 build/lib/mpack/mpack-reader.o
 .text.mpack_skip_bytes_straddle
                0x0000000000000000       0x3c build/lib/mpack/mpack-reader.o
 .text.mpack_skip_bytes.part.16
                0x0000000000000000       0x18 build/lib/mpack/mpack-reader.o
 .text.mpack_reader_init
                0x0000000000000000       0x20 build/lib/mpack/mpack-reader.o
 .text.mpack_reader_init_error
                0x0000000000000000       0x14 build/lib/mpack/mpack-reader.o
 .text.mpack_reader_set_fill
                0x0000000000000000       0x1c build/lib/mpack/mpack-reader.o
 .text.mpack_reader_set_skip
                0x0000000000000000        0x4 build/lib/mpack/mpack-reader.o
 .text.mpack_reader_destroy
                0x0000000000000000       0x18 build/lib/mpack/mpack-reader.o
 .text.mpack_reader_flag_error
                0x0000000000000000       0x10 build/lib/mpack/mpack-reader.o
 .text.mpack_read_native_straddle
                0x0000000000000000       0x98 build/lib/mpack/mpack-reader.o
 .text.mpack_read_cstr_unchecked
                0x0000000000000000       0x4c build/lib/mpack/mpack-reader.o
 .text.mpack_skip_bytes
                0x0000000000000000       0x10 build/lib/mpack/mpack-reader.o
 .text.mpack_read_bytes
                0x0000000000000000       0x2c build/lib/mpack/mpack-reader.o
 .text.mpack_read_utf8
                0x0000000000000000       0x54 build/lib/mpack/mpack-reader.o
 .text.mpack_read_cstr
                0x0000000000000000       0x34 build/lib/mpack/mpack-reader.o
 .text.mpack_read_utf8_cstr
                0x0000000000000000       0x34 build/lib/mpack/mpack-reader.o
 .text.mpack_read_bytes_alloc_impl
                0x0000000000000000       0xa8 build/lib/mpack/mpack-reader.o
 .text.mpack_peek_tag
                0x0000000000000000       0x4c build/lib/mpack/mpack-reader.o
 .text.mpack_discard
                0x0000000000000000       0x78 build/lib/mpack/mpack-reader.o
 .rodata.mpack_discard
                0x0000000000000000       0x14 build/lib/mpack/mpack-reader.o
 .text.mpack_read_timestamp
                0x0000000000000000       0xc4 build/lib/mpack/mpack-reader.o
 .text          0x0000000000000000        0x0 build/lib/mpack/mpack-writer.o
 .data          0x0000000000000000        0x0 build/lib/mpack/mpack-writer.o
 .bss           0x0000000000000000        0x0 build/lib/mpack/mpack-writer.o
 .text.mpack_start_str_notrack
                0x0000000000000000       0xb4 build/lib/mpack/mpack-writer.o
 .text.mpack_writer_init
                0x0000000000000000       0x18 build/lib/mpack/mpack-writer.o
 .text.mpack_writer_init_error
                0x0000000000000000       0x14 build/lib/mpack/mpack-writer.o
 .text.mpack_writer_set_flush
                0x0000000000000000       0x20 build/lib/mpack/mpack-writer.o
 .text.mpack_writer_flag_error
                0x0000000000000000       0x10 build/lib/mpack/mpack-writer.o
 .text.mpack_writer_flush_message
                0x0000000000000000       0x28 build/lib/mpack/mpack-writer.o
 .text.mpack_write_true
                0x0000000000000000       0x24 build/lib/mpack/mpack-writer.o
 .text.mpack_write_false
                0x0000000000000000       0x24 build/lib/mpack/mpack-writer.o
 .text.mpack_write_object_bytes
                0x0000000000000000       0x28 build/lib/mpack/mpack-writer.o
 .text.mpack_write_u8
                0x0000000000000000       0x50 build/lib/mpack/mpack-writer.o
 .text.mpack_write_u16
                0x0000000000000000       0x74 build/lib/mpack/mpack-writer.o
 .text.mpack_write_u32
                0x0000000000000000       0xac build/lib/mpack/mpack-writer.o
 .text.mpack_write_u64
                0x0000000000000000       0xf4 build/lib/mpack/mpack-writer.o
 .text.mpack_write_i8
                0x0000000000000000       0x4c build/lib/mpack/mpack-writer.o
 .text.mpack_write_i16
                0x0000000000000000       0xc8 build/lib/mpack/mpack-writer.o
 .text.mpack_write_i32
                0x0000000000000000      0x108 build/lib/mpack/mpack-writer.o
 .text.mpack_write_double
                0x0000000000000000       0x44 build/lib/mpack/mpack-writer.o
 .text.mpack_write_timestamp
                0x0000000000000000       0xf0 build/lib/mpack/mpack-writer.o
 .text.mpack_start_str
                0x0000000000000000        0x8 build/lib/mpack/mpack-writer.o
 .text.mpack_start_bin
                0x0000000000000000        0x8 build/lib/mpack/mpack-writer.o
 .text.mpack_write_tag
                0x0000000000000000       0xd0 build/lib/mpack/mpack-writer.o
 .rodata.mpack_write_tag
                0x0000000000000000       0x30 build/lib/mpack/mpack-writer.o
 .text.mpack_write_bytes
                0x0000000000000000       0x28 build/lib/mpack/mpack-writer.o
 .text.mpack_write_cstr
                0x0000000000000000       0x18 build/lib/mpack/mpack-writer.o
 .text.mpack_write_cstr_or_nil
                0x0000000000000000       0x30 build/lib/mpack/mpack-writer.o
 .text.mpack_write_utf8
                0x0000000000000000       0x34 build/lib/mpack/mpack-writer.o
 .text.mpack_write_utf8_cstr
                0x0000000000000000       0x18 build/lib/mpack/mpack-writer.o
 .text.mpack_write_utf8_cstr_or_nil
                0x0000000000000000       0x30 build/lib/mpack/mpack-writer.o
 .text          0x0000000000000000        0x0 build/lib/utils/sys_stdio_mphal.o
 .data          0x0000000000000000        0x0 build/lib/utils/sys_stdio_mphal.o
 .bss           0x0000000000000000        0x0 build/lib/utils/sys_stdio_mphal.o
 .text          0x0000000000000000        0x0 build/lib/utils/interrupt_char.o
 .data          0x0000000000000000        0x0 build/lib/utils/interrupt_char.o
 .bss           0x0000000000000000        0x0 build/lib/utils/interrupt_char.o
 .text.mp_keyboard_interrupt
                0x0000000000000000       0x20 build/lib/utils/interrupt_char.o
 .text          0x0000000000000000        0x0 build/lib/utils/pyexec.o
 .data          0x0000000000000000        0x0 build/lib/utils/pyexec.o
 .bss           0x0000000000000000        0x0 build/lib/utils/pyexec.o
 .text.pyb_set_repl_info
                0x0000000000000000       0x1c build/lib/utils/pyexec.o
 .text.pyexec_file
                0x0000000000000000        0xc build/lib/utils/pyexec.o
 .text.pyexec_frozen_module
                0x0000000000000000       0x48 build/lib/utils/pyexec.o
 .rodata.pyb_set_repl_info_obj
                0x0000000000000000        0x8 build/lib/utils/pyexec.o
 .rodata.pyexec_frozen_module.str1.4
                0x0000000000000000       0x1c build/lib/utils/pyexec.o
 .text          0x0000000000000000        0x0 build/lib/libc/string0.o
 .data          0x0000000000000000        0x0 build/lib/libc/string0.o
 .bss           0x0000000000000000        0x0 build/lib/libc/string0.o
 .text.memchr   0x0000000000000000       0x1c build/lib/libc/string0.o
 .text.strcpy   0x0000000000000000       0x24 build/lib/libc/string0.o
 .text.stpcpy   0x0000000000000000       0x1c build/lib/libc/string0.o
 .text.strcat   0x0000000000000000       0x38 build/lib/libc/string0.o
 .text.strstr   0x0000000000000000       0x40 build/lib/libc/string0.o
 .text          0x0000000000000000        0x0 build/lib/mp-readline/readline.o
 .data          0x0000000000000000        0x0 build/lib/mp-readline/readline.o
 .bss           0x0000000000000000        0x0 build/lib/mp-readline/readline.o
 .text.readline_init0
                0x0000000000000000       0x14 build/lib/mp-readline/readline.o
 .text.readline_note_newline
                0x0000000000000000       0x18 build/lib/mp-readline/readline.o
 .text.readline_init
                0x0000000000000000       0x24 build/lib/mp-readline/readline.o
 .text          0x0000000000000000        0x0 build/lib/libm/math.o
 .data          0x0000000000000000        0x0 build/lib/libm/math.o
 .bss           0x0000000000000000        0x0 build/lib/libm/math.o
 .text.__signbitf
                0x0000000000000000        0x4 build/lib/libm/math.o
 .text.__fpclassifyf
                0x0000000000000000       0x20 build/lib/libm/math.o
 .text.__expo2f
                0x0000000000000000       0x24 build/lib/libm/math.o
 .text          0x0000000000000000        0x0 build/lib/libm/acoshf.o
 .data          0x0000000000000000        0x0 build/lib/libm/acoshf.o
 .bss           0x0000000000000000        0x0 build/lib/libm/acoshf.o
 .text          0x0000000000000000        0x0 build/lib/libm/asinfacosf.o
 .data          0x0000000000000000        0x0 build/lib/libm/asinfacosf.o
 .bss           0x0000000000000000        0x0 build/lib/libm/asinfacosf.o
 .text          0x0000000000000000        0x0 build/lib/libm/asinhf.o
 .data          0x0000000000000000        0x0 build/lib/libm/asinhf.o
 .bss           0x0000000000000000        0x0 build/lib/libm/asinhf.o
 .text          0x0000000000000000        0x0 build/lib/libm/atan2f.o
 .data          0x0000000000000000        0x0 build/lib/libm/atan2f.o
 .bss           0x0000000000000000        0x0 build/lib/libm/atan2f.o
 .text          0x0000000000000000        0x0 build/lib/libm/atanf.o
 .data          0x0000000000000000        0x0 build/lib/libm/atanf.o
 .bss           0x0000000000000000        0x0 build/lib/libm/atanf.o
 .text          0x0000000000000000        0x0 build/lib/libm/atanhf.o
 .data          0x0000000000000000        0x0 build/lib/libm/atanhf.o
 .bss           0x0000000000000000        0x0 build/lib/libm/atanhf.o
 .text          0x0000000000000000        0x0 build/lib/libm/ef_rem_pio2.o
 .data          0x0000000000000000        0x0 build/lib/libm/ef_rem_pio2.o
 .bss           0x0000000000000000        0x0 build/lib/libm/ef_rem_pio2.o
 .text          0x0000000000000000        0x0 build/lib/libm/ef_sqrt.o
 .data          0x0000000000000000        0x0 build/lib/libm/ef_sqrt.o
 .bss           0x0000000000000000        0x0 build/lib/libm/ef_sqrt.o
 .text          0x0000000000000000        0x0 build/lib/libm/erf_lgamma.o
 .data          0x0000000000000000        0x0 build/lib/libm/erf_lgamma.o
 .bss           0x0000000000000000        0x0 build/lib/libm/erf_lgamma.o
 .text          0x0000000000000000        0x0 build/lib/libm/fmodf.o
 .data          0x0000000000000000        0x0 build/lib/libm/fmodf.o
 .bss           0x0000000000000000        0x0 build/lib/libm/fmodf.o
 .text          0x0000000000000000        0x0 build/lib/libm/kf_cos.o
 .data          0x0000000000000000        0x0 build/lib/libm/kf_cos.o
 .bss           0x0000000000000000        0x0 build/lib/libm/kf_cos.o
 .text          0x0000000000000000        0x0 build/lib/libm/kf_rem_pio2.o
 .data          0x0000000000000000        0x0 build/lib/libm/kf_rem_pio2.o
 .bss           0x0000000000000000        0x0 build/lib/libm/kf_rem_pio2.o
 .text          0x0000000000000000        0x0 build/lib/libm/kf_sin.o
 .data          0x0000000000000000        0x0 build/lib/libm/kf_sin.o
 .bss           0x0000000000000000        0x0 build/lib/libm/kf_sin.o
 .text          0x0000000000000000        0x0 build/lib/libm/kf_tan.o
 .data          0x0000000000000000        0x0 build/lib/libm/kf_tan.o
 .bss           0x0000000000000000        0x0 build/lib/libm/kf_tan.o
 .text          0x0000000000000000        0x0 build/lib/libm/log1pf.o
 .data          0x0000000000000000        0x0 build/lib/libm/log1pf.o
 .bss           0x0000000000000000        0x0 build/lib/libm/log1pf.o
 .text          0x0000000000000000        0x0 build/lib/libm/nearbyintf.o
 .data          0x0000000000000000        0x0 build/lib/libm/nearbyintf.o
 .bss           0x0000000000000000        0x0 build/lib/libm/nearbyintf.o
 .text          0x0000000000000000        0x0 build/lib/libm/sf_cos.o
 .data          0x0000000000000000        0x0 build/lib/libm/sf_cos.o
 .bss           0x0000000000000000        0x0 build/lib/libm/sf_cos.o
 .text          0x0000000000000000        0x0 build/lib/libm/sf_erf.o
 .data          0x0000000000000000        0x0 build/lib/libm/sf_erf.o
 .bss           0x0000000000000000        0x0 build/lib/libm/sf_erf.o
 .text          0x0000000000000000        0x0 build/lib/libm/sf_frexp.o
 .data          0x0000000000000000        0x0 build/lib/libm/sf_frexp.o
 .bss           0x0000000000000000        0x0 build/lib/libm/sf_frexp.o
 .text          0x0000000000000000        0x0 build/lib/libm/sf_ldexp.o
 .data          0x0000000000000000        0x0 build/lib/libm/sf_ldexp.o
 .bss           0x0000000000000000        0x0 build/lib/libm/sf_ldexp.o
 .text          0x0000000000000000        0x0 build/lib/libm/sf_modf.o
 .data          0x0000000000000000        0x0 build/lib/libm/sf_modf.o
 .bss           0x0000000000000000        0x0 build/lib/libm/sf_modf.o
 .text          0x0000000000000000        0x0 build/lib/libm/sf_sin.o
 .data          0x0000000000000000        0x0 build/lib/libm/sf_sin.o
 .bss           0x0000000000000000        0x0 build/lib/libm/sf_sin.o
 .text          0x0000000000000000        0x0 build/lib/libm/sf_tan.o
 .data          0x0000000000000000        0x0 build/lib/libm/sf_tan.o
 .bss           0x0000000000000000        0x0 build/lib/libm/sf_tan.o
 .text          0x0000000000000000        0x0 build/lib/libm/wf_lgamma.o
 .data          0x0000000000000000        0x0 build/lib/libm/wf_lgamma.o
 .bss           0x0000000000000000        0x0 build/lib/libm/wf_lgamma.o
 .text          0x0000000000000000        0x0 build/lib/libm/wf_tgamma.o
 .data          0x0000000000000000        0x0 build/lib/libm/wf_tgamma.o
 .bss           0x0000000000000000        0x0 build/lib/libm/wf_tgamma.o
 .data          0x0000000000000000        0x0 /usr/bin/../lib/gcc/arm-none-eabi/7.3.1/thumb/v6-m/libgcc.a(_udivsi3.o)
 .bss           0x0000000000000000        0x0 /usr/bin/../lib/gcc/arm-none-eabi/7.3.1/thumb/v6-m/libgcc.a(_udivsi3.o)
 .data          0x0000000000000000        0x0 /usr/bin/../lib/gcc/arm-none-eabi/7.3.1/thumb/v6-m/libgcc.a(_divsi3.o)
 .bss           0x0000000000000000        0x0 /usr/bin/../lib/gcc/arm-none-eabi/7.3.1/thumb/v6-m/libgcc.a(_divsi3.o)
 .data          0x0000000000000000        0x0 /usr/bin/../lib/gcc/arm-none-eabi/7.3.1/thumb/v6-m/libgcc.a(_dvmd_tls.o)
 .bss           0x0000000000000000        0x0 /usr/bin/../lib/gcc/arm-none-eabi/7.3.1/thumb/v6-m/libgcc.a(_dvmd_tls.o)
 .text          0x0000000000000000       0x7c /usr/bin/../lib/gcc/arm-none-eabi/7.3.1/thumb/v6-m/libgcc.a(_arm_cmpdf2.o)
 .data          0x0000000000000000        0x0 /usr/bin/../lib/gcc/arm-none-eabi/7.3.1/thumb/v6-m/libgcc.a(_arm_cmpdf2.o)
 .bss           0x0000000000000000        0x0 /usr/bin/../lib/gcc/arm-none-eabi/7.3.1/thumb/v6-m/libgcc.a(_arm_cmpdf2.o)
 .ARM.attributes
                0x0000000000000000       0x1e /usr/bin/../lib/gcc/arm-none-eabi/7.3.1/thumb/v6-m/libgcc.a(_arm_cmpdf2.o)
 .data          0x0000000000000000        0x0 /usr/bin/../lib/gcc/arm-none-eabi/7.3.1/thumb/v6-m/libgcc.a(_arm_cmpsf2.o)
 .bss           0x0000000000000000        0x0 /usr/bin/../lib/gcc/arm-none-eabi/7.3.1/thumb/v6-m/libgcc.a(_arm_cmpsf2.o)
 .data          0x0000000000000000        0x0 /usr/bin/../lib/gcc/arm-none-eabi/7.3.1/thumb/v6-m/libgcc.a(_fixunssfsi.o)
 .bss           0x0000000000000000        0x0 /usr/bin/../lib/gcc/arm-none-eabi/7.3.1/thumb/v6-m/libgcc.a(_fixunssfsi.o)
 .text          0x0000000000000000       0x64 /usr/bin/../lib/gcc/arm-none-eabi/7.3.1/thumb/v6-m/libgcc.a(_floatdisf.o)
 .data          0x0000000000000000        0x0 /usr/bin/../lib/gcc/arm-none-eabi/7.3.1/thumb/v6-m/libgcc.a(_floatdisf.o)
 .bss           0x0000000000000000        0x0 /usr/bin/../lib/gcc/arm-none-eabi/7.3.1/thumb/v6-m/libgcc.a(_floatdisf.o)
 .debug_frame   0x0000000000000000       0x2c /usr/bin/../lib/gcc/arm-none-eabi/7.3.1/thumb/v6-m/libgcc.a(_floatdisf.o)
 .ARM.attributes
                0x0000000000000000       0x2c /usr/bin/../lib/gcc/arm-none-eabi/7.3.1/thumb/v6-m/libgcc.a(_floatdisf.o)
 .text          0x0000000000000000       0x2c /usr/bin/../lib/gcc/arm-none-eabi/7.3.1/thumb/v6-m/libgcc.a(_floatdidf.o)
 .data          0x0000000000000000        0x0 /usr/bin/../lib/gcc/arm-none-eabi/7.3.1/thumb/v6-m/libgcc.a(_floatdidf.o)
 .bss           0x0000000000000000        0x0 /usr/bin/../lib/gcc/arm-none-eabi/7.3.1/thumb/v6-m/libgcc.a(_floatdidf.o)
 .debug_frame   0x0000000000000000       0x2c /usr/bin/../lib/gcc/arm-none-eabi/7.3.1/thumb/v6-m/libgcc.a(_floatdidf.o)
 .ARM.attributes
                0x0000000000000000       0x2c /usr/bin/../lib/gcc/arm-none-eabi/7.3.1/thumb/v6-m/libgcc.a(_floatdidf.o)
 .text          0x0000000000000000       0x48 /usr/bin/../lib/gcc/arm-none-eabi/7.3.1/thumb/v6-m/libgcc.a(_floatundisf.o)
 .data          0x0000000000000000        0x0 /usr/bin/../lib/gcc/arm-none-eabi/7.3.1/thumb/v6-m/libgcc.a(_floatundisf.o)
 .bss           0x0000000000000000        0x0 /usr/bin/../lib/gcc/arm-none-eabi/7.3.1/thumb/v6-m/libgcc.a(_floatundisf.o)
 .debug_frame   0x0000000000000000       0x2c /usr/bin/../lib/gcc/arm-none-eabi/7.3.1/thumb/v6-m/libgcc.a(_floatundisf.o)
 .ARM.attributes
                0x0000000000000000       0x2c /usr/bin/../lib/gcc/arm-none-eabi/7.3.1/thumb/v6-m/libgcc.a(_floatundisf.o)
 .text          0x0000000000000000       0x2c /usr/bin/../lib/gcc/arm-none-eabi/7.3.1/thumb/v6-m/libgcc.a(_floatundidf.o)
 .data          0x0000000000000000        0x0 /usr/bin/../lib/gcc/arm-none-eabi/7.3.1/thumb/v6-m/libgcc.a(_floatundidf.o)
 .bss           0x0000000000000000        0x0 /usr/bin/../lib/gcc/arm-none-eabi/7.3.1/thumb/v6-m/libgcc.a(_floatundidf.o)
 .debug_frame   0x0000000000000000       0x2c /usr/bin/../lib/gcc/arm-none-eabi/7.3.1/thumb/v6-m/libgcc.a(_floatundidf.o)
 .ARM.attributes
                0x0000000000000000       0x2c /usr/bin/../lib/gcc/arm-none-eabi/7.3.1/thumb/v6-m/libgcc.a(_floatundidf.o)
 .data          0x0000000000000000        0x0 /usr/bin/../lib/gcc/arm-none-eabi/7.3.1/thumb/v6-m/libgcc.a(addsf3.o)
 .bss           0x0000000000000000        0x0 /usr/bin/../lib/gcc/arm-none-eabi/7.3.1/thumb/v6-m/libgcc.a(addsf3.o)
 .data          0x0000000000000000        0x0 /usr/bin/../lib/gcc/arm-none-eabi/7.3.1/thumb/v6-m/libgcc.a(divsf3.o)
 .bss           0x0000000000000000        0x0 /usr/bin/../lib/gcc/arm-none-eabi/7.3.1/thumb/v6-m/libgcc.a(divsf3.o)
 .data          0x0000000000000000        0x0 /usr/bin/../lib/gcc/arm-none-eabi/7.3.1/thumb/v6-m/libgcc.a(eqsf2.o)
 .bss           0x0000000000000000        0x0 /usr/bin/../lib/gcc/arm-none-eabi/7.3.1/thumb/v6-m/libgcc.a(eqsf2.o)
 .data          0x0000000000000000        0x0 /usr/bin/../lib/gcc/arm-none-eabi/7.3.1/thumb/v6-m/libgcc.a(gesf2.o)
 .bss           0x0000000000000000        0x0 /usr/bin/../lib/gcc/arm-none-eabi/7.3.1/thumb/v6-m/libgcc.a(gesf2.o)
 .data          0x0000000000000000        0x0 /usr/bin/../lib/gcc/arm-none-eabi/7.3.1/thumb/v6-m/libgcc.a(lesf2.o)
 .bss           0x0000000000000000        0x0 /usr/bin/../lib/gcc/arm-none-eabi/7.3.1/thumb/v6-m/libgcc.a(lesf2.o)
 .data          0x0000000000000000        0x0 /usr/bin/../lib/gcc/arm-none-eabi/7.3.1/thumb/v6-m/libgcc.a(mulsf3.o)
 .bss           0x0000000000000000        0x0 /usr/bin/../lib/gcc/arm-none-eabi/7.3.1/thumb/v6-m/libgcc.a(mulsf3.o)
 .data          0x0000000000000000        0x0 /usr/bin/../lib/gcc/arm-none-eabi/7.3.1/thumb/v6-m/libgcc.a(subsf3.o)
 .bss           0x0000000000000000        0x0 /usr/bin/../lib/gcc/arm-none-eabi/7.3.1/thumb/v6-m/libgcc.a(subsf3.o)
 .data          0x0000000000000000        0x0 /usr/bin/../lib/gcc/arm-none-eabi/7.3.1/thumb/v6-m/libgcc.a(unordsf2.o)
 .bss           0x0000000000000000        0x0 /usr/bin/../lib/gcc/arm-none-eabi/7.3.1/thumb/v6-m/libgcc.a(unordsf2.o)
 .data          0x0000000000000000        0x0 /usr/bin/../lib/gcc/arm-none-eabi/7.3.1/thumb/v6-m/libgcc.a(fixsfsi.o)
 .bss           0x0000000000000000        0x0 /usr/bin/../lib/gcc/arm-none-eabi/7.3.1/thumb/v6-m/libgcc.a(fixsfsi.o)
 .data          0x0000000000000000        0x0 /usr/bin/../lib/gcc/arm-none-eabi/7.3.1/thumb/v6-m/libgcc.a(floatsisf.o)
 .bss           0x0000000000000000        0x0 /usr/bin/../lib/gcc/arm-none-eabi/7.3.1/thumb/v6-m/libgcc.a(floatsisf.o)
 .data          0x0000000000000000        0x0 /usr/bin/../lib/gcc/arm-none-eabi/7.3.1/thumb/v6-m/libgcc.a(floatunsisf.o)
 .bss           0x0000000000000000        0x0 /usr/bin/../lib/gcc/arm-none-eabi/7.3.1/thumb/v6-m/libgcc.a(floatunsisf.o)
 .text          0x0000000000000000      0x638 /usr/bin/../lib/gcc/arm-none-eabi/7.3.1/thumb/v6-m/libgcc.a(adddf3.o)
 .data          0x0000000000000000        0x0 /usr/bin/../lib/gcc/arm-none-eabi/7.3.1/thumb/v6-m/libgcc.a(adddf3.o)
 .bss           0x0000000000000000        0x0 /usr/bin/../lib/gcc/arm-none-eabi/7.3.1/thumb/v6-m/libgcc.a(adddf3.o)
 .debug_frame   0x0000000000000000       0x38 /usr/bin/../lib/gcc/arm-none-eabi/7.3.1/thumb/v6-m/libgcc.a(adddf3.o)
 .ARM.attributes
                0x0000000000000000       0x2c /usr/bin/../lib/gcc/arm-none-eabi/7.3.1/thumb/v6-m/libgcc.a(adddf3.o)
 .text          0x0000000000000000       0x78 /usr/bin/../lib/gcc/arm-none-eabi/7.3.1/thumb/v6-m/libgcc.a(eqdf2.o)
 .data          0x0000000000000000        0x0 /usr/bin/../lib/gcc/arm-none-eabi/7.3.1/thumb/v6-m/libgcc.a(eqdf2.o)
 .bss           0x0000000000000000        0x0 /usr/bin/../lib/gcc/arm-none-eabi/7.3.1/thumb/v6-m/libgcc.a(eqdf2.o)
 .debug_frame   0x0000000000000000       0x38 /usr/bin/../lib/gcc/arm-none-eabi/7.3.1/thumb/v6-m/libgcc.a(eqdf2.o)
 .ARM.attributes
                0x0000000000000000       0x2c /usr/bin/../lib/gcc/arm-none-eabi/7.3.1/thumb/v6-m/libgcc.a(eqdf2.o)
 .text          0x0000000000000000       0xc8 /usr/bin/../lib/gcc/arm-none-eabi/7.3.1/thumb/v6-m/libgcc.a(gedf2.o)
 .data          0x0000000000000000        0x0 /usr/bin/../lib/gcc/arm-none-eabi/7.3.1/thumb/v6-m/libgcc.a(gedf2.o)
 .bss           0x0000000000000000        0x0 /usr/bin/../lib/gcc/arm-none-eabi/7.3.1/thumb/v6-m/libgcc.a(gedf2.o)
 .debug_frame   0x0000000000000000       0x38 /usr/bin/../lib/gcc/arm-none-eabi/7.3.1/thumb/v6-m/libgcc.a(gedf2.o)
 .ARM.attributes
                0x0000000000000000       0x2c /usr/bin/../lib/gcc/arm-none-eabi/7.3.1/thumb/v6-m/libgcc.a(gedf2.o)
 .text          0x0000000000000000       0xd0 /usr/bin/../lib/gcc/arm-none-eabi/7.3.1/thumb/v6-m/libgcc.a(ledf2.o)
 .data          0x0000000000000000        0x0 /usr/bin/../lib/gcc/arm-none-eabi/7.3.1/thumb/v6-m/libgcc.a(ledf2.o)
 .bss           0x0000000000000000        0x0 /usr/bin/../lib/gcc/arm-none-eabi/7.3.1/thumb/v6-m/libgcc.a(ledf2.o)
 .debug_frame   0x0000000000000000       0x38 /usr/bin/../lib/gcc/arm-none-eabi/7.3.1/thumb/v6-m/libgcc.a(ledf2.o)
 .ARM.attributes
                0x0000000000000000       0x2c /usr/bin/../lib/gcc/arm-none-eabi/7.3.1/thumb/v6-m/libgcc.a(ledf2.o)
 .text          0x0000000000000000      0x4e4 /usr/bin/../lib/gcc/arm-none-eabi/7.3.1/thumb/v6-m/libgcc.a(muldf3.o)
 .data          0x0000000000000000        0x0 /usr/bin/../lib/gcc/arm-none-eabi/7.3.1/thumb/v6-m/libgcc.a(muldf3.o)
 .bss           0x0000000000000000        0x0 /usr/bin/../lib/gcc/arm-none-eabi/7.3.1/thumb/v6-m/libgcc.a(muldf3.o)
 .rodata        0x0000000000000000       0x40 /usr/bin/../lib/gcc/arm-none-eabi/7.3.1/thumb/v6-m/libgcc.a(muldf3.o)
 .debug_frame   0x0000000000000000       0x3c /usr/bin/../lib/gcc/arm-none-eabi/7.3.1/thumb/v6-m/libgcc.a(muldf3.o)
 .ARM.attributes
                0x0000000000000000       0x2c /usr/bin/../lib/gcc/arm-none-eabi/7.3.1/thumb/v6-m/libgcc.a(muldf3.o)
 .data          0x0000000000000000        0x0 /usr/bin/../lib/gcc/arm-none-eabi/7.3.1/thumb/v6-m/libgcc.a(floatsidf.o)
 .bss           0x0000000000000000        0x0 /usr/bin/../lib/gcc/arm-none-eabi/7.3.1/thumb/v6-m/libgcc.a(floatsidf.o)
 .text          0x0000000000000000       0x64 /usr/bin/../lib/gcc/arm-none-eabi/7.3.1/thumb/v6-m/libgcc.a(floatunsidf.o)
 .data          0x0000000000000000        0x0 /usr/bin/../lib/gcc/arm-none-eabi/7.3.1/thumb/v6-m/libgcc.a(floatunsidf.o)
 .bss           0x0000000000000000        0x0 /usr/bin/../lib/gcc/arm-none-eabi/7.3.1/thumb/v6-m/libgcc.a(floatunsidf.o)
 .debug_frame   0x0000000000000000       0x28 /usr/bin/../lib/gcc/arm-none-eabi/7.3.1/thumb/v6-m/libgcc.a(floatunsidf.o)
 .ARM.attributes
                0x0000000000000000       0x2c /usr/bin/../lib/gcc/arm-none-eabi/7.3.1/thumb/v6-m/libgcc.a(floatunsidf.o)
 .data          0x0000000000000000        0x0 /usr/bin/../lib/gcc/arm-none-eabi/7.3.1/thumb/v6-m/libgcc.a(extendsfdf2.o)
 .bss           0x0000000000000000        0x0 /usr/bin/../lib/gcc/arm-none-eabi/7.3.1/thumb/v6-m/libgcc.a(extendsfdf2.o)
 .data          0x0000000000000000        0x0 /usr/bin/../lib/gcc/arm-none-eabi/7.3.1/thumb/v6-m/libgcc.a(truncdfsf2.o)
 .bss           0x0000000000000000        0x0 /usr/bin/../lib/gcc/arm-none-eabi/7.3.1/thumb/v6-m/libgcc.a(truncdfsf2.o)
 .data          0x0000000000000000        0x0 /usr/bin/../lib/gcc/arm-none-eabi/7.3.1/thumb/v6-m/libgcc.a(_clzsi2.o)
 .bss           0x0000000000000000        0x0 /usr/bin/../lib/gcc/arm-none-eabi/7.3.1/thumb/v6-m/libgcc.a(_clzsi2.o)

Memory Configuration

Name             Origin             Length             Attributes
FLASH            0x0000000008000000 0x0000000000080000 xr
SRAM             0x0000000020000000 0x0000000000010000 rw
RAM              0x0000000060000000 0x0000000000030000 rw
*default*        0x0000000000000000 0xffffffffffffffff

Linker script and memory map

                0x0000000000004000                _minimum_stack_size = 0x4000
                0x0000000000020000                _minimum_heap_size = 0x20000
                0x0000000020010000                _estack = (ORIGIN (SRAM) + LENGTH (SRAM))
                0x0000000020000000                _sram_start = ORIGIN (SRAM)
                0x0000000020010000                _sram_end = (ORIGIN (SRAM) + LENGTH (SRAM))
                0x0000000060000000                _ram_start = ORIGIN (RAM)
                0x0000000060030000                _ram_end = (ORIGIN (RAM) + LENGTH (RAM))

.startup        0x0000000008000000        0xc
                0x0000000008000000                . = ALIGN (0x4)
                0x0000000008000000                _svec = .
 *(.startup)
 .startup       0x0000000008000000        0xc build/machine.o
                0x0000000008000000                startup_vector
                0x000000000800000c                . = ALIGN (0x4)

.text           0x000000000800000c    0x33ebc
                0x000000000800000c                . = ALIGN (0x4)
 *(.text*)
 .text.nlr_push_tail
                0x000000000800000c       0x14 build/py/nlr.o
                0x000000000800000c                nlr_push_tail
 .text.nlr_pop  0x0000000008000020       0x10 build/py/nlr.o
                0x0000000008000020                nlr_pop
 .text.nlr_push
                0x0000000008000030       0x28 build/py/nlrthumb.o
                0x0000000008000030                nlr_push
 .text.nlr_jump
                0x0000000008000058       0x44 build/py/nlrthumb.o
                0x0000000008000058                nlr_jump
 .text.m_malloc
                0x000000000800009c       0x40 build/py/malloc.o
                0x000000000800009c                m_malloc
 .text.m_malloc_maybe
                0x00000000080000dc       0x34 build/py/malloc.o
                0x00000000080000dc                m_malloc_maybe
 .text.m_malloc0
                0x0000000008000110        0x8 build/py/malloc.o
                0x0000000008000110                m_malloc0
 .text.m_realloc
                0x0000000008000118       0x48 build/py/malloc.o
                0x0000000008000118                m_realloc
 .text.m_realloc_maybe
                0x0000000008000160       0x44 build/py/malloc.o
                0x0000000008000160                m_realloc_maybe
 .text.m_free   0x00000000080001a4       0x1c build/py/malloc.o
                0x00000000080001a4                m_free
 .text.m_get_total_bytes_allocated
                0x00000000080001c0       0x10 build/py/malloc.o
                0x00000000080001c0                m_get_total_bytes_allocated
 .text.m_get_current_bytes_allocated
                0x00000000080001d0       0x10 build/py/malloc.o
                0x00000000080001d0                m_get_current_bytes_allocated
 .text.m_get_peak_bytes_allocated
                0x00000000080001e0       0x10 build/py/malloc.o
                0x00000000080001e0                m_get_peak_bytes_allocated
 .text.gc_mark_subtree
                0x00000000080001f0       0xf0 build/py/gc.o
 .text.gc_init  0x00000000080002e0       0x80 build/py/gc.o
                0x00000000080002e0                gc_init
 .text.gc_lock  0x0000000008000360       0x14 build/py/gc.o
                0x0000000008000360                gc_lock
 .text.gc_unlock
                0x0000000008000374       0x14 build/py/gc.o
                0x0000000008000374                gc_unlock
 .text.gc_is_locked
                0x0000000008000388       0x14 build/py/gc.o
                0x0000000008000388                gc_is_locked
 .text.gc_collect_start
                0x000000000800039c      0x114 build/py/gc.o
                0x000000000800039c                gc_collect_start
 .text.gc_collect_root
                0x00000000080004b0       0x88 build/py/gc.o
                0x00000000080004b0                gc_collect_root
 .text.gc_collect_end
                0x0000000008000538      0x19c build/py/gc.o
                0x0000000008000538                gc_collect_end
 .text.gc_info  0x00000000080006d4      0x118 build/py/gc.o
                0x00000000080006d4                gc_info
 .text.gc_alloc
                0x00000000080007ec      0x1c8 build/py/gc.o
                0x00000000080007ec                gc_alloc
 .text.gc_free  0x00000000080009b4       0x84 build/py/gc.o
                0x00000000080009b4                gc_free
 .text.gc_nbytes
                0x0000000008000a38       0x68 build/py/gc.o
                0x0000000008000a38                gc_nbytes
 .text.gc_realloc
                0x0000000008000aa0      0x2a4 build/py/gc.o
                0x0000000008000aa0                gc_realloc
 .text.gc_dump_info
                0x0000000008000d44      0x13c build/py/gc.o
                0x0000000008000d44                gc_dump_info
 .text.gc_dump_alloc_table
                0x0000000008000e80      0x1c4 build/py/gc.o
                0x0000000008000e80                gc_dump_alloc_table
 .text.mp_pystack_init
                0x0000000008001044       0x10 build/py/pystack.o
                0x0000000008001044                mp_pystack_init
 .text.mp_pystack_alloc
                0x0000000008001054       0x30 build/py/pystack.o
                0x0000000008001054                mp_pystack_alloc
 .text.qstr_compute_hash
                0x0000000008001084       0x28 build/py/qstr.o
                0x0000000008001084                qstr_compute_hash
 .text.qstr_init
                0x00000000080010ac       0x18 build/py/qstr.o
                0x00000000080010ac                qstr_init
 .text.qstr_find_strn
                0x00000000080010c4       0xa4 build/py/qstr.o
                0x00000000080010c4                qstr_find_strn
 .text.qstr_from_strn
                0x0000000008001168      0x16c build/py/qstr.o
                0x0000000008001168                qstr_from_strn
 .text.qstr_from_str
                0x00000000080012d4       0x14 build/py/qstr.o
                0x00000000080012d4                qstr_from_str
 .text.qstr_hash
                0x00000000080012e8       0x48 build/py/qstr.o
                0x00000000080012e8                qstr_hash
 .text.qstr_len
                0x0000000008001330       0x24 build/py/qstr.o
                0x0000000008001330                qstr_len
 .text.qstr_str
                0x0000000008001354       0x24 build/py/qstr.o
                0x0000000008001354                qstr_str
 .text.qstr_data
                0x0000000008001378       0x28 build/py/qstr.o
                0x0000000008001378                qstr_data
 .text.qstr_pool_info
                0x00000000080013a0       0x90 build/py/qstr.o
                0x00000000080013a0                qstr_pool_info
 .text.qstr_dump_data
                0x0000000008001430       0x60 build/py/qstr.o
                0x0000000008001430                qstr_dump_data
 .text.vstr_ensure_extra
                0x0000000008001490       0x38 build/py/vstr.o
 .text.vstr_add_strn
                0x00000000080014c8       0x2c build/py/vstr.o
                0x00000000080014c8                vstr_add_strn
 .text.vstr_ins_blank_bytes.constprop.2
                0x00000000080014f4       0x30 build/py/vstr.o
 .text.vstr_init
                0x0000000008001524       0x24 build/py/vstr.o
                0x0000000008001524                vstr_init
 .text.vstr_init_len
                0x0000000008001548       0x28 build/py/vstr.o
                0x0000000008001548                vstr_init_len
 .text.vstr_init_fixed_buf
                0x0000000008001570       0x14 build/py/vstr.o
                0x0000000008001570                vstr_init_fixed_buf
 .text.vstr_init_print
                0x0000000008001584       0x30 build/py/vstr.o
                0x0000000008001584                vstr_init_print
 .text.vstr_clear
                0x00000000080015b4       0x18 build/py/vstr.o
                0x00000000080015b4                vstr_clear
 .text.vstr_new
                0x00000000080015cc       0x2c build/py/vstr.o
                0x00000000080015cc                vstr_new
 .text.vstr_free
                0x00000000080015f8       0x20 build/py/vstr.o
                0x00000000080015f8                vstr_free
 .text.vstr_extend
                0x0000000008001618       0x30 build/py/vstr.o
                0x0000000008001618                vstr_extend
 .text.vstr_add_len
                0x0000000008001648       0x18 build/py/vstr.o
                0x0000000008001648                vstr_add_len
 .text.vstr_null_terminated_str
                0x0000000008001660       0x20 build/py/vstr.o
                0x0000000008001660                vstr_null_terminated_str
 .text.vstr_add_byte
                0x0000000008001680       0x18 build/py/vstr.o
                0x0000000008001680                vstr_add_byte
 .text.vstr_add_char
                0x0000000008001698       0xcc build/py/vstr.o
                0x0000000008001698                vstr_add_char
 .text.vstr_add_str
                0x0000000008001764       0x18 build/py/vstr.o
                0x0000000008001764                vstr_add_str
 .text.vstr_ins_byte
                0x000000000800177c        0xc build/py/vstr.o
                0x000000000800177c                vstr_ins_byte
 .text.vstr_ins_char
                0x0000000008001788        0xc build/py/vstr.o
                0x0000000008001788                vstr_ins_char
 .text.vstr_cut_tail_bytes
                0x0000000008001794       0x14 build/py/vstr.o
                0x0000000008001794                vstr_cut_tail_bytes
 .text.vstr_cut_out_bytes
                0x00000000080017a8       0x30 build/py/vstr.o
                0x00000000080017a8                vstr_cut_out_bytes
 .text.plat_print_strn
                0x00000000080017d8        0xc build/py/mpprint.o
 .text.mp_print_str
                0x00000000080017e4       0x1c build/py/mpprint.o
                0x00000000080017e4                mp_print_str
 .text.mp_print_strn
                0x0000000008001800       0xd4 build/py/mpprint.o
                0x0000000008001800                mp_print_strn
 .text.mp_print_int
                0x00000000080018d4       0xf0 build/py/mpprint.o
 .text.mp_print_mp_int
                0x00000000080019c4      0x2dc build/py/mpprint.o
                0x00000000080019c4                mp_print_mp_int
 .text.mp_print_float
                0x0000000008001ca0       0xa4 build/py/mpprint.o
                0x0000000008001ca0                mp_print_float
 .text.mp_vprintf
                0x0000000008001d44      0x300 build/py/mpprint.o
                0x0000000008001d44                mp_vprintf
 .text.mp_printf
                0x0000000008002044       0x18 build/py/mpprint.o
                0x0000000008002044                mp_printf
 .text.utf8_get_char
                0x000000000800205c       0x48 build/py/unicode.o
                0x000000000800205c                utf8_get_char
 .text.utf8_next_char
                0x00000000080020a4       0x1c build/py/unicode.o
                0x00000000080020a4                utf8_next_char
 .text.utf8_ptr_to_index
                0x00000000080020c0       0x20 build/py/unicode.o
                0x00000000080020c0                utf8_ptr_to_index
 .text.utf8_charlen
                0x00000000080020e0       0x24 build/py/unicode.o
                0x00000000080020e0                utf8_charlen
 .text.unichar_isspace
                0x0000000008002104       0x18 build/py/unicode.o
                0x0000000008002104                unichar_isspace
 .text.unichar_isalpha
                0x000000000800211c       0x18 build/py/unicode.o
                0x000000000800211c                unichar_isalpha
 .text.unichar_isdigit
                0x0000000008002134       0x18 build/py/unicode.o
                0x0000000008002134                unichar_isdigit
 .text.unichar_isxdigit
                0x000000000800214c       0x18 build/py/unicode.o
                0x000000000800214c                unichar_isxdigit
 .text.unichar_isident
                0x0000000008002164       0x24 build/py/unicode.o
                0x0000000008002164                unichar_isident
 .text.unichar_isupper
                0x0000000008002188       0x18 build/py/unicode.o
                0x0000000008002188                unichar_isupper
 .text.unichar_islower
                0x00000000080021a0       0x18 build/py/unicode.o
                0x00000000080021a0                unichar_islower
 .text.unichar_tolower
                0x00000000080021b8       0x14 build/py/unicode.o
                0x00000000080021b8                unichar_tolower
 .text.unichar_toupper
                0x00000000080021cc       0x14 build/py/unicode.o
                0x00000000080021cc                unichar_toupper
 .text.unichar_xdigit_value
                0x00000000080021e0       0x10 build/py/unicode.o
                0x00000000080021e0                unichar_xdigit_value
 .text.utf8_check
                0x00000000080021f0       0x70 build/py/unicode.o
                0x00000000080021f0                utf8_check
 .text.mpn_shr  0x0000000008002260       0x44 build/py/mpz.o
 .text.mpn_add  0x00000000080022a4       0x74 build/py/mpz.o
 .text.mpn_sub  0x0000000008002318       0x6c build/py/mpz.o
 .text.mpn_xor_neg
                0x0000000008002384       0xa4 build/py/mpz.o
 .text.mpz_need_dig
                0x0000000008002428       0x34 build/py/mpz.o
 .text.mpz_clone
                0x000000000800245c       0x4c build/py/mpz.o
 .text.mpn_cmp.part.1
                0x00000000080024a8       0x44 build/py/mpz.o
 .text.mpz_free.part.2
                0x00000000080024ec       0x1c build/py/mpz.o
 .text.mpz_set_from_int.part.4
                0x0000000008002508       0x44 build/py/mpz.o
 .text.mpz_mul_inpl.part.5
                0x000000000800254c      0x144 build/py/mpz.o
 .text.mpz_init_zero
                0x0000000008002690        0xc build/py/mpz.o
                0x0000000008002690                mpz_init_zero
 .text.mpz_init_from_int
                0x000000000800269c       0x14 build/py/mpz.o
                0x000000000800269c                mpz_init_from_int
 .text.mpz_init_fixed_from_int
                0x00000000080026b0       0x2c build/py/mpz.o
                0x00000000080026b0                mpz_init_fixed_from_int
 .text.mpz_deinit
                0x00000000080026dc       0x1c build/py/mpz.o
                0x00000000080026dc                mpz_deinit
 .text.mpz_set  0x00000000080026f8       0x30 build/py/mpz.o
                0x00000000080026f8                mpz_set
 .text.mpz_set_from_ll
                0x0000000008002728       0x64 build/py/mpz.o
                0x0000000008002728                mpz_set_from_ll
 .text.mpz_set_from_float
                0x000000000800278c       0xd8 build/py/mpz.o
                0x000000000800278c                mpz_set_from_float
 .text.mpz_set_from_str
                0x0000000008002864       0xc8 build/py/mpz.o
                0x0000000008002864                mpz_set_from_str
 .text.mpz_set_from_bytes
                0x000000000800292c       0xa0 build/py/mpz.o
                0x000000000800292c                mpz_set_from_bytes
 .text.mpz_cmp  0x00000000080029cc       0x48 build/py/mpz.o
                0x00000000080029cc                mpz_cmp
 .text.mpz_abs_inpl
                0x0000000008002a14       0x18 build/py/mpz.o
                0x0000000008002a14                mpz_abs_inpl
 .text.mpz_neg_inpl
                0x0000000008002a2c       0x24 build/py/mpz.o
                0x0000000008002a2c                mpz_neg_inpl
 .text.mpz_not_inpl
                0x0000000008002a50       0x78 build/py/mpz.o
                0x0000000008002a50                mpz_not_inpl
 .text.mpz_shl_inpl
                0x0000000008002ac8      0x10c build/py/mpz.o
                0x0000000008002ac8                mpz_shl_inpl
 .text.mpz_shr_inpl
                0x0000000008002bd4       0xe4 build/py/mpz.o
                0x0000000008002bd4                mpz_shr_inpl
 .text.mpz_add_inpl
                0x0000000008002cb8       0x94 build/py/mpz.o
                0x0000000008002cb8                mpz_add_inpl
 .text.mpz_sub_inpl
                0x0000000008002d4c       0xc4 build/py/mpz.o
                0x0000000008002d4c                mpz_sub_inpl
 .text.mpz_and_inpl
                0x0000000008002e10      0x19c build/py/mpz.o
                0x0000000008002e10                mpz_and_inpl
 .text.mpz_or_inpl
                0x0000000008002fac      0x17c build/py/mpz.o
                0x0000000008002fac                mpz_or_inpl
 .text.mpz_xor_inpl
                0x0000000008003128      0x108 build/py/mpz.o
                0x0000000008003128                mpz_xor_inpl
 .text.mpz_mul_inpl
                0x0000000008003230       0x1c build/py/mpz.o
                0x0000000008003230                mpz_mul_inpl
 .text.mpz_pow_inpl
                0x000000000800324c       0xb0 build/py/mpz.o
                0x000000000800324c                mpz_pow_inpl
 .text.mpz_divmod_inpl
                0x00000000080032fc      0x328 build/py/mpz.o
                0x00000000080032fc                mpz_divmod_inpl
 .text.mpz_pow3_inpl
                0x0000000008003624      0x10c build/py/mpz.o
                0x0000000008003624                mpz_pow3_inpl
 .text.mpz_hash
                0x0000000008003730       0x3c build/py/mpz.o
                0x0000000008003730                mpz_hash
 .text.mpz_as_int_checked
                0x000000000800376c       0x44 build/py/mpz.o
                0x000000000800376c                mpz_as_int_checked
 .text.mpz_as_bytes
                0x00000000080037b0       0xb4 build/py/mpz.o
                0x00000000080037b0                mpz_as_bytes
 .text.mpz_as_float
                0x0000000008003864       0x50 build/py/mpz.o
                0x0000000008003864                mpz_as_float
 .text.mpz_as_str_inpl
                0x00000000080038b4      0x170 build/py/mpz.o
                0x00000000080038b4                mpz_as_str_inpl
 .text.mp_reader_mem_readbyte
                0x0000000008003a24       0x18 build/py/reader.o
 .text.mp_reader_mem_close
                0x0000000008003a3c       0x1c build/py/reader.o
 .text.mp_reader_new_mem
                0x0000000008003a58       0x30 build/py/reader.o
                0x0000000008003a58                mp_reader_new_mem
 .text.is_string_or_bytes
                0x0000000008003a88       0x50 build/py/lexer.o
 .text.next_char
                0x0000000008003ad8       0x6c build/py/lexer.o
 .text.skip_whitespace
                0x0000000008003b44       0x68 build/py/lexer.o
 .text.mp_lexer_to_next
                0x0000000008003bac      0x65c build/py/lexer.o
                0x0000000008003bac                mp_lexer_to_next
 .text.mp_lexer_new
                0x0000000008004208       0x7c build/py/lexer.o
                0x0000000008004208                mp_lexer_new
 .text.mp_lexer_new_from_str_len
                0x0000000008004284       0x1c build/py/lexer.o
                0x0000000008004284                mp_lexer_new_from_str_len
 .text.mp_lexer_new_from_file
                0x00000000080042a0       0x24 build/py/lexer.o
                0x00000000080042a0                mp_lexer_new_from_file
 .text.mp_lexer_free
                0x00000000080042c4       0x28 build/py/lexer.o
                0x00000000080042c4                mp_lexer_free
 .text.push_result_node
                0x00000000080042ec       0x30 build/py/parse.o
 .text.push_rule
                0x000000000800431c       0x44 build/py/parse.o
 .text.parser_alloc.isra.4
                0x0000000008004360       0x7c build/py/parse.o
 .text.push_result_token
                0x00000000080043dc       0xfc build/py/parse.o
 .text.mp_parse_node_is_const_false
                0x00000000080044d8       0x1c build/py/parse.o
                0x00000000080044d8                mp_parse_node_is_const_false
 .text.mp_parse_node_is_const_true
                0x00000000080044f4       0x1c build/py/parse.o
                0x00000000080044f4                mp_parse_node_is_const_true
 .text.mp_parse_node_get_int_maybe
                0x0000000008004510       0x4c build/py/parse.o
                0x0000000008004510                mp_parse_node_get_int_maybe
 .text.push_result_rule
                0x000000000800455c      0x4dc build/py/parse.o
 .text.mp_parse_node_extract_list
                0x0000000008004a38       0x28 build/py/parse.o
                0x0000000008004a38                mp_parse_node_extract_list
 .text.mp_parse
                0x0000000008004a60      0x4cc build/py/parse.o
                0x0000000008004a60                mp_parse
 .text.mp_parse_tree_clear
                0x0000000008004f2c       0x18 build/py/parse.o
                0x0000000008004f2c                mp_parse_tree_clear
 .text.scope_new
                0x0000000008004f44       0x54 build/py/scope.o
                0x0000000008004f44                scope_new
 .text.scope_free
                0x0000000008004f98       0x18 build/py/scope.o
                0x0000000008004f98                scope_free
 .text.scope_find_or_add_id
                0x0000000008004fb0       0x78 build/py/scope.o
                0x0000000008004fb0                scope_find_or_add_id
 .text.scope_find
                0x0000000008005028       0x30 build/py/scope.o
                0x0000000008005028                scope_find
 .text.scope_find_global
                0x0000000008005058       0x38 build/py/scope.o
                0x0000000008005058                scope_find_global
 .text.scope_find_local_and_close_over
                0x0000000008005090       0x84 build/py/scope.o
                0x0000000008005090                scope_find_local_and_close_over
 .text.apply_to_single_or_list
                0x0000000008005114       0x40 build/py/compile.o
 .text.compile_del_stmt
                0x0000000008005154       0x14 build/py/compile.o
 .text.compile_import_name
                0x0000000008005168       0x14 build/py/compile.o
 .text.scope_new_and_link
                0x000000000800517c       0x30 build/py/compile.o
 .text.compile_trailer_period
                0x00000000080051ac       0x10 build/py/compile.o
 .text.compile_const_object
                0x00000000080051bc        0xc build/py/compile.o
 .text.compile_yield_from.isra.5
                0x00000000080051c8       0x20 build/py/compile.o
 .text.compile_await_object_method
                0x00000000080051e8       0x24 build/py/compile.o
 .text.compile_load_id
                0x000000000800520c       0x24 build/py/compile.o
 .text.compile_store_id
                0x0000000008005230       0x24 build/py/compile.o
 .text.compile_delete_id
                0x0000000008005254       0x24 build/py/compile.o
 .text.compile_node
                0x0000000008005278       0x9c build/py/compile.o
 .text.c_if_cond
                0x0000000008005314      0x120 build/py/compile.o
 .text.check_for_doc_string
                0x0000000008005434       0xc0 build/py/compile.o
 .text.compile_dictorsetmaker_item
                0x00000000080054f4       0x18 build/py/compile.o
 .text.compile_subscript
                0x000000000800550c       0x9c build/py/compile.o
 .text.compile_trailer_bracket
                0x00000000080055a8       0x14 build/py/compile.o
 .text.c_tuple  0x00000000080055bc       0x4c build/py/compile.o
 .text.compile_generic_tuple
                0x0000000008005608        0xc build/py/compile.o
 .text.compile_while_stmt
                0x0000000008005614       0xa0 build/py/compile.o
 .text.compile_yield_stmt
                0x00000000080056b4       0x14 build/py/compile.o
 .text.compile_if_stmt
                0x00000000080056c8      0x108 build/py/compile.o
 .text.compile_term
                0x00000000080057d0       0x64 build/py/compile.o
 .text.compile_binary_op
                0x0000000008005834       0x40 build/py/compile.o
 .text.compile_factor_2
                0x0000000008005874       0x2c build/py/compile.o
 .text.compile_not_test_2
                0x00000000080058a0       0x14 build/py/compile.o
 .text.compile_or_and_test
                0x00000000080058b4       0x58 build/py/compile.o
 .text.compile_comparison
                0x000000000800590c       0xf8 build/py/compile.o
 .text.compile_test_if_expr
                0x0000000008005a04       0x58 build/py/compile.o
 .text.close_over_variables_etc.isra.12
                0x0000000008005a5c       0xd8 build/py/compile.o
 .text.compile_funcdef_lambdef
                0x0000000008005b34       0x70 build/py/compile.o
 .text.compile_lambdef
                0x0000000008005ba4       0x2c build/py/compile.o
 .text.compile_funcdef_helper
                0x0000000008005bd0       0x30 build/py/compile.o
 .text.compile_funcdef
                0x0000000008005c00       0x18 build/py/compile.o
 .text.compile_comprehension
                0x0000000008005c18       0x5c build/py/compile.o
 .text.compile_atom_paren
                0x0000000008005c74       0x50 build/py/compile.o
 .text.compile_assert_stmt
                0x0000000008005cc4       0x60 build/py/compile.o
 .text.compile_raise_stmt
                0x0000000008005d24       0x48 build/py/compile.o
 .text.do_import_name.isra.20
                0x0000000008005d6c      0x14c build/py/compile.o
 .text.compile_import_from
                0x0000000008005eb8      0x160 build/py/compile.o
 .text.compile_dotted_as_name
                0x0000000008006018       0x30 build/py/compile.o
 .text.compile_syntax_error.part.3
                0x0000000008006048       0x2c build/py/compile.o
 .text.compile_scope_func_lambda_param.isra.4
                0x0000000008006074       0xc4 build/py/compile.o
 .text.compile_scope_lambda_param
                0x0000000008006138        0xc build/py/compile.o
 .text.compile_scope_func_param
                0x0000000008006144        0xc build/py/compile.o
 .text.compile_star_expr
                0x0000000008006150       0x18 build/py/compile.o
 .text.c_assign_tuple
                0x0000000008006168      0x148 build/py/compile.o
 .text.c_assign
                0x00000000080062b0      0x1d0 build/py/compile.o
 .text.compile_scope_comp_iter
                0x0000000008006480       0xcc build/py/compile.o
 .text.compile_scope
                0x000000000800654c      0x1f8 build/py/compile.o
 .text.compile_expr_stmt
                0x0000000008006744      0x21c build/py/compile.o
 .text.compile_for_stmt
                0x0000000008006960      0x2f4 build/py/compile.o
 .text.compile_with_stmt_helper
                0x0000000008006c54       0xbc build/py/compile.o
 .text.compile_with_stmt
                0x0000000008006d10       0x24 build/py/compile.o
 .text.compile_async_with_stmt_helper
                0x0000000008006d34      0x210 build/py/compile.o
 .text.compile_async_stmt
                0x0000000008006f44      0x198 build/py/compile.o
 .text.compile_yield_expr
                0x00000000080070dc       0x68 build/py/compile.o
 .text.compile_return_stmt
                0x0000000008007144       0x7c build/py/compile.o
 .text.c_del_stmt
                0x00000000080071c0      0x12c build/py/compile.o
 .text.compile_trailer_paren_helper
                0x00000000080072ec      0x1c8 build/py/compile.o
 .text.compile_classdef_helper
                0x00000000080074b4       0x64 build/py/compile.o
 .text.compile_classdef
                0x0000000008007518       0x18 build/py/compile.o
 .text.compile_decorated
                0x0000000008007530      0x144 build/py/compile.o
 .text.compile_trailer_paren
                0x0000000008007674       0x10 build/py/compile.o
 .text.compile_atom_brace
                0x0000000008007684      0x174 build/py/compile.o
 .text.compile_funcdef_lambdef_param
                0x00000000080077f8       0xb0 build/py/compile.o
 .text.compile_atom_expr_normal
                0x00000000080078a8      0x178 build/py/compile.o
 .text.compile_atom_expr_await
                0x0000000008007a20       0x34 build/py/compile.o
 .text.compile_try_except
                0x0000000008007a54      0x1fc build/py/compile.o
 .text.compile_try_finally
                0x0000000008007c50       0x94 build/py/compile.o
 .text.compile_try_stmt
                0x0000000008007ce4       0x80 build/py/compile.o
 .text.compile_global_nonlocal_stmt
                0x0000000008007d64      0x110 build/py/compile.o
 .text.compile_break_cont_stmt
                0x0000000008007e74       0x44 build/py/compile.o
 .text.compile_generic_all_nodes
                0x0000000008007eb8       0x50 build/py/compile.o
 .text.compile_atom_bracket
                0x0000000008007f08       0x9c build/py/compile.o
 .text.compile_power
                0x0000000008007fa4       0x14 build/py/compile.o
 .text.mp_compile
                0x0000000008007fb8      0x320 build/py/compile.o
                0x0000000008007fb8                mp_compile
 .text.mp_emit_common_get_id_for_load
                0x00000000080082d8       0x28 build/py/emitcommon.o
                0x00000000080082d8                mp_emit_common_get_id_for_load
 .text.mp_emit_common_get_id_for_modification
                0x0000000008008300       0x3c build/py/emitcommon.o
                0x0000000008008300                mp_emit_common_get_id_for_modification
 .text.mp_emit_common_id_op
                0x000000000800833c       0x50 build/py/emitcommon.o
                0x000000000800833c                mp_emit_common_id_op
 .text.emit_write_uint
                0x000000000800838c       0x4c build/py/emitbc.o
 .text.emit_get_cur_to_write_bytecode.part.1
                0x00000000080083d8       0x18 build/py/emitbc.o
 .text.emit_get_cur_to_write_bytecode
                0x00000000080083f0       0x18 build/py/emitbc.o
 .text.emit_write_bytecode_byte_uint
                0x0000000008008408       0x30 build/py/emitbc.o
 .text.emit_write_bytecode_byte_raw_code
                0x0000000008008438       0x2c build/py/emitbc.o
 .text.mp_emit_bc_delete_local
                0x0000000008008464        0xc build/py/emitbc.o
                0x0000000008008464                mp_emit_bc_delete_local
 .text.emit_write_bytecode_byte_qstr
                0x0000000008008470       0x24 build/py/emitbc.o
 .text.emit_write_bytecode_byte_unsigned_label
                0x0000000008008494       0x38 build/py/emitbc.o
 .text.emit_write_bytecode_byte_signed_label
                0x00000000080084cc       0x3c build/py/emitbc.o
 .text.mp_emit_bc_adjust_stack_size.part.2
                0x0000000008008508       0x18 build/py/emitbc.o
 .text.mp_emit_bc_load_global
                0x0000000008008520       0x40 build/py/emitbc.o
                0x0000000008008520                mp_emit_bc_load_global
 .text.mp_emit_bc_store_global
                0x0000000008008560       0x28 build/py/emitbc.o
                0x0000000008008560                mp_emit_bc_store_global
 .text.mp_emit_bc_delete_global
                0x0000000008008588       0x24 build/py/emitbc.o
                0x0000000008008588                mp_emit_bc_delete_global
 .text.mp_emit_bc_load_local
                0x00000000080085ac       0x4c build/py/emitbc.o
                0x00000000080085ac                mp_emit_bc_load_local
 .text.mp_emit_bc_store_local
                0x00000000080085f8       0x50 build/py/emitbc.o
                0x00000000080085f8                mp_emit_bc_store_local
 .text.emit_bc_call_function_method_helper
                0x0000000008008648       0x58 build/py/emitbc.o
 .text.emit_write_bytecode_byte_obj.constprop.7
                0x00000000080086a0       0x28 build/py/emitbc.o
 .text.emit_get_cur_to_write_code_info
                0x00000000080086c8       0x1c build/py/emitbc.o
 .text.emit_bc_new
                0x00000000080086e4        0xc build/py/emitbc.o
                0x00000000080086e4                emit_bc_new
 .text.emit_bc_set_max_num_labels
                0x00000000080086f0       0x10 build/py/emitbc.o
                0x00000000080086f0                emit_bc_set_max_num_labels
 .text.emit_bc_free
                0x0000000008008700       0x18 build/py/emitbc.o
                0x0000000008008700                emit_bc_free
 .text.mp_emit_bc_start_pass
                0x0000000008008718      0x1f8 build/py/emitbc.o
                0x0000000008008718                mp_emit_bc_start_pass
 .text.mp_emit_bc_end_pass
                0x0000000008008910       0x78 build/py/emitbc.o
                0x0000000008008910                mp_emit_bc_end_pass
 .text.mp_emit_bc_last_emit_was_return_value
                0x0000000008008988        0xc build/py/emitbc.o
                0x0000000008008988                mp_emit_bc_last_emit_was_return_value
 .text.mp_emit_bc_adjust_stack_size
                0x0000000008008994       0x10 build/py/emitbc.o
                0x0000000008008994                mp_emit_bc_adjust_stack_size
 .text.mp_emit_bc_set_source_line
                0x00000000080089a4       0xe8 build/py/emitbc.o
                0x00000000080089a4                mp_emit_bc_set_source_line
 .text.mp_emit_bc_label_assign
                0x0000000008008a8c       0x28 build/py/emitbc.o
                0x0000000008008a8c                mp_emit_bc_label_assign
 .text.mp_emit_bc_import
                0x0000000008008ab4       0x5c build/py/emitbc.o
                0x0000000008008ab4                mp_emit_bc_import
 .text.mp_emit_bc_load_const_tok
                0x0000000008008b10       0x94 build/py/emitbc.o
                0x0000000008008b10                mp_emit_bc_load_const_tok
 .text.mp_emit_bc_load_const_small_int
                0x0000000008008ba4       0xf0 build/py/emitbc.o
                0x0000000008008ba4                mp_emit_bc_load_const_small_int
 .text.mp_emit_bc_load_const_str
                0x0000000008008c94       0x20 build/py/emitbc.o
                0x0000000008008c94                mp_emit_bc_load_const_str
 .text.mp_emit_bc_load_const_obj
                0x0000000008008cb4       0x1c build/py/emitbc.o
                0x0000000008008cb4                mp_emit_bc_load_const_obj
 .text.mp_emit_bc_load_null
                0x0000000008008cd0       0x30 build/py/emitbc.o
                0x0000000008008cd0                mp_emit_bc_load_null
 .text.mp_emit_bc_load_method
                0x0000000008008d00       0x2c build/py/emitbc.o
                0x0000000008008d00                mp_emit_bc_load_method
 .text.mp_emit_bc_load_build_class
                0x0000000008008d2c       0x30 build/py/emitbc.o
                0x0000000008008d2c                mp_emit_bc_load_build_class
 .text.mp_emit_bc_dup_top
                0x0000000008008d5c       0x30 build/py/emitbc.o
                0x0000000008008d5c                mp_emit_bc_dup_top
 .text.mp_emit_bc_dup_top_two
                0x0000000008008d8c       0x30 build/py/emitbc.o
                0x0000000008008d8c                mp_emit_bc_dup_top_two
 .text.mp_emit_bc_pop_top
                0x0000000008008dbc       0x30 build/py/emitbc.o
                0x0000000008008dbc                mp_emit_bc_pop_top
 .text.mp_emit_bc_rot_two
                0x0000000008008dec       0x30 build/py/emitbc.o
                0x0000000008008dec                mp_emit_bc_rot_two
 .text.mp_emit_bc_attr
                0x0000000008008e1c       0x84 build/py/emitbc.o
                0x0000000008008e1c                mp_emit_bc_attr
 .text.mp_emit_bc_rot_three
                0x0000000008008ea0       0x30 build/py/emitbc.o
                0x0000000008008ea0                mp_emit_bc_rot_three
 .text.mp_emit_bc_subscr
                0x0000000008008ed0       0x78 build/py/emitbc.o
                0x0000000008008ed0                mp_emit_bc_subscr
 .text.mp_emit_bc_jump
                0x0000000008008f48       0x20 build/py/emitbc.o
                0x0000000008008f48                mp_emit_bc_jump
 .text.mp_emit_bc_pop_jump_if
                0x0000000008008f68       0x30 build/py/emitbc.o
                0x0000000008008f68                mp_emit_bc_pop_jump_if
 .text.mp_emit_bc_jump_if_or_pop
                0x0000000008008f98       0x30 build/py/emitbc.o
                0x0000000008008f98                mp_emit_bc_jump_if_or_pop
 .text.mp_emit_bc_unwind_jump
                0x0000000008008fc8       0xac build/py/emitbc.o
                0x0000000008008fc8                mp_emit_bc_unwind_jump
 .text.mp_emit_bc_setup_block
                0x0000000008009074       0x34 build/py/emitbc.o
                0x0000000008009074                mp_emit_bc_setup_block
 .text.mp_emit_bc_end_finally
                0x00000000080090a8       0x30 build/py/emitbc.o
                0x00000000080090a8                mp_emit_bc_end_finally
 .text.mp_emit_bc_get_iter
                0x00000000080090d8       0x44 build/py/emitbc.o
                0x00000000080090d8                mp_emit_bc_get_iter
 .text.mp_emit_bc_for_iter
                0x000000000800911c       0x20 build/py/emitbc.o
                0x000000000800911c                mp_emit_bc_for_iter
 .text.mp_emit_bc_for_iter_end
                0x000000000800913c       0x14 build/py/emitbc.o
                0x000000000800913c                mp_emit_bc_for_iter_end
 .text.mp_emit_bc_pop_block
                0x0000000008009150       0x30 build/py/emitbc.o
                0x0000000008009150                mp_emit_bc_pop_block
 .text.mp_emit_bc_with_cleanup
                0x0000000008009180       0x58 build/py/emitbc.o
                0x0000000008009180                mp_emit_bc_with_cleanup
 .text.mp_emit_bc_pop_except
                0x00000000080091d8       0x30 build/py/emitbc.o
                0x00000000080091d8                mp_emit_bc_pop_except
 .text.mp_emit_bc_unary_op
                0x0000000008009208       0x30 build/py/emitbc.o
                0x0000000008009208                mp_emit_bc_unary_op
 .text.mp_emit_bc_binary_op
                0x0000000008009238       0x7c build/py/emitbc.o
                0x0000000008009238                mp_emit_bc_binary_op
 .text.mp_emit_bc_build
                0x00000000080092b4       0x38 build/py/emitbc.o
                0x00000000080092b4                mp_emit_bc_build
 .text.mp_emit_bc_store_map
                0x00000000080092ec       0x30 build/py/emitbc.o
                0x00000000080092ec                mp_emit_bc_store_map
 .text.mp_emit_bc_store_comp
                0x000000000800931c       0x40 build/py/emitbc.o
                0x000000000800931c                mp_emit_bc_store_comp
 .text.mp_emit_bc_unpack_sequence
                0x000000000800935c       0x20 build/py/emitbc.o
                0x000000000800935c                mp_emit_bc_unpack_sequence
 .text.mp_emit_bc_unpack_ex
                0x000000000800937c       0x24 build/py/emitbc.o
                0x000000000800937c                mp_emit_bc_unpack_ex
 .text.mp_emit_bc_make_function
                0x00000000080093a0       0x48 build/py/emitbc.o
                0x00000000080093a0                mp_emit_bc_make_function
 .text.mp_emit_bc_make_closure
                0x00000000080093e8       0x68 build/py/emitbc.o
                0x00000000080093e8                mp_emit_bc_make_closure
 .text.mp_emit_bc_call_function
                0x0000000008009450       0x18 build/py/emitbc.o
                0x0000000008009450                mp_emit_bc_call_function
 .text.mp_emit_bc_call_method
                0x0000000008009468       0x18 build/py/emitbc.o
                0x0000000008009468                mp_emit_bc_call_method
 .text.mp_emit_bc_return_value
                0x0000000008009480       0x38 build/py/emitbc.o
                0x0000000008009480                mp_emit_bc_return_value
 .text.mp_emit_bc_raise_varargs
                0x00000000080094b8       0x34 build/py/emitbc.o
                0x00000000080094b8                mp_emit_bc_raise_varargs
 .text.mp_emit_bc_yield
                0x00000000080094ec       0x4c build/py/emitbc.o
                0x00000000080094ec                mp_emit_bc_yield
 .text.mp_emit_bc_start_except_handler
                0x0000000008009538       0x10 build/py/emitbc.o
                0x0000000008009538                mp_emit_bc_start_except_handler
 .text.mp_emit_bc_end_except_handler
                0x0000000008009548       0x14 build/py/emitbc.o
                0x0000000008009548                mp_emit_bc_end_except_handler
 .text.mp_format_float
                0x000000000800955c      0x6c0 build/py/formatfloat.o
                0x000000000800955c                mp_format_float
 .text.mp_parse_num_base
                0x0000000008009c1c       0x90 build/py/parsenumbase.o
                0x0000000008009c1c                mp_parse_num_base
 .text.unlikely.raise_exc
                0x0000000008009cac       0x20 build/py/parsenum.o
 .text.mp_parse_num_integer
                0x0000000008009ccc      0x154 build/py/parsenum.o
                0x0000000008009ccc                mp_parse_num_integer
 .text.mp_parse_num_decimal
                0x0000000008009e20      0x314 build/py/parsenum.o
                0x0000000008009e20                mp_parse_num_decimal
 .text.mp_emit_glue_new_raw_code
                0x000000000800a134       0x18 build/py/emitglue.o
                0x000000000800a134                mp_emit_glue_new_raw_code
 .text.mp_emit_glue_assign_bytecode
                0x000000000800a14c       0x28 build/py/emitglue.o
                0x000000000800a14c                mp_emit_glue_assign_bytecode
 .text.mp_make_function_from_raw_code
                0x000000000800a174       0x20 build/py/emitglue.o
                0x000000000800a174                mp_make_function_from_raw_code
 .text.mp_make_closure_from_raw_code
                0x000000000800a194       0x50 build/py/emitglue.o
                0x000000000800a194                mp_make_closure_from_raw_code
 .text.load_qstr
                0x000000000800a1e4       0x58 build/py/persistentcode.o
 .text.load_raw_code
                0x000000000800a23c      0x258 build/py/persistentcode.o
 .text.mp_raw_code_load
                0x000000000800a494       0x50 build/py/persistentcode.o
                0x000000000800a494                mp_raw_code_load
 .text.mp_raw_code_load_file
                0x000000000800a4e4       0x18 build/py/persistentcode.o
                0x000000000800a4e4                mp_raw_code_load_file
 .text.mp_init  0x000000000800a4fc       0x7c build/py/runtime.o
                0x000000000800a4fc                mp_init
 .text.mp_load_global
                0x000000000800a578       0x64 build/py/runtime.o
                0x000000000800a578                mp_load_global
 .text.mp_load_name
                0x000000000800a5dc       0x30 build/py/runtime.o
                0x000000000800a5dc                mp_load_name
 .text.mp_load_build_class
                0x000000000800a60c       0x2c build/py/runtime.o
                0x000000000800a60c                mp_load_build_class
 .text.mp_store_name
                0x000000000800a638       0x18 build/py/runtime.o
                0x000000000800a638                mp_store_name
 .text.mp_delete_name
                0x000000000800a650       0x18 build/py/runtime.o
                0x000000000800a650                mp_delete_name
 .text.mp_store_global
                0x000000000800a668       0x18 build/py/runtime.o
                0x000000000800a668                mp_store_global
 .text.mp_delete_global
                0x000000000800a680       0x18 build/py/runtime.o
                0x000000000800a680                mp_delete_global
 .text.mp_unary_op
                0x000000000800a698      0x100 build/py/runtime.o
                0x000000000800a698                mp_unary_op
 .text.mp_call_function_n_kw
                0x000000000800a798       0x44 build/py/runtime.o
                0x000000000800a798                mp_call_function_n_kw
 .text.mp_call_function_0
                0x000000000800a7dc       0x10 build/py/runtime.o
                0x000000000800a7dc                mp_call_function_0
 .text.mp_call_function_1
                0x000000000800a7ec       0x14 build/py/runtime.o
                0x000000000800a7ec                mp_call_function_1
 .text.checked_fun_call
                0x000000000800a800       0x40 build/py/runtime.o
 .text.mp_call_method_n_kw
                0x000000000800a840       0x20 build/py/runtime.o
                0x000000000800a840                mp_call_method_n_kw
 .text.mp_convert_member_lookup
                0x000000000800a860       0xac build/py/runtime.o
                0x000000000800a860                mp_convert_member_lookup
 .text.mp_load_method_maybe
                0x000000000800a90c       0x68 build/py/runtime.o
                0x000000000800a90c                mp_load_method_maybe
 .text.mp_load_method
                0x000000000800a974       0x58 build/py/runtime.o
                0x000000000800a974                mp_load_method
 .text.mp_load_attr
                0x000000000800a9cc       0x1c build/py/runtime.o
                0x000000000800a9cc                mp_load_attr
 .text.mp_load_method_protected
                0x000000000800a9e8       0x48 build/py/runtime.o
                0x000000000800a9e8                mp_load_method_protected
 .text.mp_store_attr
                0x000000000800aa30       0x4c build/py/runtime.o
                0x000000000800aa30                mp_store_attr
 .text.mp_getiter
                0x000000000800aa7c       0x78 build/py/runtime.o
                0x000000000800aa7c                mp_getiter
 .text.mp_iternext_allow_raise
                0x000000000800aaf4       0x5c build/py/runtime.o
                0x000000000800aaf4                mp_iternext_allow_raise
 .text.mp_iternext
                0x000000000800ab50       0x98 build/py/runtime.o
                0x000000000800ab50                mp_iternext
 .text.mp_call_prepare_args_n_kw_var
                0x000000000800abe8      0x300 build/py/runtime.o
                0x000000000800abe8                mp_call_prepare_args_n_kw_var
 .text.mp_call_method_n_kw_var
                0x000000000800aee8       0x30 build/py/runtime.o
                0x000000000800aee8                mp_call_method_n_kw_var
 .text.mp_unpack_sequence
                0x000000000800af18       0xb8 build/py/runtime.o
                0x000000000800af18                mp_unpack_sequence
 .text.mp_unpack_ex
                0x000000000800afd0      0x138 build/py/runtime.o
                0x000000000800afd0                mp_unpack_ex
 .text.mp_make_raise_obj
                0x000000000800b108       0x3c build/py/runtime.o
                0x000000000800b108                mp_make_raise_obj
 .text.mp_resume
                0x000000000800b144      0x138 build/py/runtime.o
                0x000000000800b144                mp_resume
 .text.mp_import_name
                0x000000000800b27c       0x28 build/py/runtime.o
                0x000000000800b27c                mp_import_name
 .text.mp_import_from
                0x000000000800b2a4       0xd4 build/py/runtime.o
                0x000000000800b2a4                mp_import_from
 .text.mp_import_all
                0x000000000800b378       0x6c build/py/runtime.o
                0x000000000800b378                mp_import_all
 .text.mp_parse_compile_execute
                0x000000000800b3e4       0x7c build/py/runtime.o
                0x000000000800b3e4                mp_parse_compile_execute
 .text.mp_raise_msg
                0x000000000800b460       0x18 build/py/runtime.o
                0x000000000800b460                mp_raise_msg
 .text.m_malloc_fail
                0x000000000800b478       0x30 build/py/runtime.o
                0x000000000800b478                m_malloc_fail
 .text.mp_raise_ValueError
                0x000000000800b4a8       0x10 build/py/runtime.o
                0x000000000800b4a8                mp_raise_ValueError
 .text.mp_binary_op
                0x000000000800b4b8      0x3a4 build/py/runtime.o
                0x000000000800b4b8                mp_binary_op
 .text.mp_raise_TypeError
                0x000000000800b85c       0x10 build/py/runtime.o
                0x000000000800b85c                mp_raise_TypeError
 .text.mp_raise_OSError
                0x000000000800b86c       0x18 build/py/runtime.o
                0x000000000800b86c                mp_raise_OSError
 .text.mp_raise_NotImplementedError
                0x000000000800b884       0x10 build/py/runtime.o
                0x000000000800b884                mp_raise_NotImplementedError
 .text.mp_raise_recursion_depth
                0x000000000800b894       0x14 build/py/runtime.o
                0x000000000800b894                mp_raise_recursion_depth
 .text.mp_call_function_1_protected
                0x000000000800b8a8       0x38 build/py/runtime_utils.o
                0x000000000800b8a8                mp_call_function_1_protected
 .text.mp_sched_unlock.part.0
                0x000000000800b8e0       0x30 build/py/scheduler.o
 .text.mp_handle_pending_tail
                0x000000000800b910       0x48 build/py/scheduler.o
                0x000000000800b910                mp_handle_pending_tail
 .text.mp_handle_pending
                0x000000000800b958       0x3c build/py/scheduler.o
                0x000000000800b958                mp_handle_pending
 .text.mp_sched_lock
                0x000000000800b994       0x24 build/py/scheduler.o
                0x000000000800b994                mp_sched_lock
 .text.mp_sched_unlock
                0x000000000800b9b8       0x20 build/py/scheduler.o
                0x000000000800b9b8                mp_sched_unlock
 .text.mp_sched_schedule
                0x000000000800b9d8       0x3c build/py/scheduler.o
                0x000000000800b9d8                mp_sched_schedule
 .text.mp_stack_set_top
                0x000000000800ba14        0xc build/py/stackctrl.o
                0x000000000800ba14                mp_stack_set_top
 .text.mp_stack_usage
                0x000000000800ba20       0x14 build/py/stackctrl.o
                0x000000000800ba20                mp_stack_usage
 .text.mp_stack_set_limit
                0x000000000800ba34        0xc build/py/stackctrl.o
                0x000000000800ba34                mp_stack_set_limit
 .text.mp_stack_check
                0x000000000800ba40       0x20 build/py/stackctrl.o
                0x000000000800ba40                mp_stack_check
 .text.mp_arg_check_num_sig
                0x000000000800ba60       0x6c build/py/argcheck.o
                0x000000000800ba60                mp_arg_check_num_sig
 .text.mp_arg_parse_all
                0x000000000800bacc      0x100 build/py/argcheck.o
                0x000000000800bacc                mp_arg_parse_all
 .text.mp_arg_parse_all_kw_array
                0x000000000800bbcc       0x2c build/py/argcheck.o
                0x000000000800bbcc                mp_arg_parse_all_kw_array
 .text.mp_arg_error_unimpl_kw
                0x000000000800bbf8        0xc build/py/argcheck.o
                0x000000000800bbf8                mp_arg_error_unimpl_kw
 .text.mp_warning
                0x000000000800bc04       0x40 build/py/warning.o
                0x000000000800bc04                mp_warning
 .text.mp_map_init
                0x000000000800bc44       0x1c build/py/map.o
                0x000000000800bc44                mp_map_init
 .text.mp_map_init_fixed_table
                0x000000000800bc60       0x24 build/py/map.o
                0x000000000800bc60                mp_map_init_fixed_table
 .text.mp_map_deinit
                0x000000000800bc84       0x24 build/py/map.o
                0x000000000800bc84                mp_map_deinit
 .text.mp_map_clear
                0x000000000800bca8       0x30 build/py/map.o
                0x000000000800bca8                mp_map_clear
 .text.mp_map_lookup
                0x000000000800bcd8      0x244 build/py/map.o
                0x000000000800bcd8                mp_map_lookup
 .text.mp_map_rehash
                0x000000000800bf1c       0x88 build/py/map.o
 .text.mp_set_init
                0x000000000800bfa4       0x14 build/py/map.o
                0x000000000800bfa4                mp_set_init
 .text.mp_set_lookup
                0x000000000800bfb8      0x110 build/py/map.o
                0x000000000800bfb8                mp_set_lookup
 .text.mp_set_rehash
                0x000000000800c0c8       0x78 build/py/map.o
 .text.mp_set_remove_first
                0x000000000800c140       0x40 build/py/map.o
                0x000000000800c140                mp_set_remove_first
 .text.mp_set_clear
                0x000000000800c180       0x18 build/py/map.o
                0x000000000800c180                mp_set_clear
 .text.mp_identity
                0x000000000800c198        0x4 build/py/obj.o
                0x000000000800c198                mp_identity
 .text.mp_obj_get_type
                0x000000000800c19c       0x20 build/py/obj.o
                0x000000000800c19c                mp_obj_get_type
 .text.mp_obj_get_type_str
                0x000000000800c1bc       0x28 build/py/obj.o
                0x000000000800c1bc                mp_obj_get_type_str
 .text.mp_obj_print_helper
                0x000000000800c1e4       0x4c build/py/obj.o
                0x000000000800c1e4                mp_obj_print_helper
 .text.mp_obj_print
                0x000000000800c230       0x14 build/py/obj.o
                0x000000000800c230                mp_obj_print
 .text.mp_obj_print_exception
                0x000000000800c244       0xbc build/py/obj.o
                0x000000000800c244                mp_obj_print_exception
 .text.mp_obj_is_callable
                0x000000000800c300       0x40 build/py/obj.o
                0x000000000800c300                mp_obj_is_callable
 .text.mp_obj_equal
                0x000000000800c340       0xfc build/py/obj.o
                0x000000000800c340                mp_obj_equal
 .text.mp_obj_get_int
                0x000000000800c43c       0x58 build/py/obj.o
                0x000000000800c43c                mp_obj_get_int
 .text.mp_obj_get_int_truncated
                0x000000000800c494       0x24 build/py/obj.o
                0x000000000800c494                mp_obj_get_int_truncated
 .text.mp_obj_get_int_maybe
                0x000000000800c4b8       0x50 build/py/obj.o
                0x000000000800c4b8                mp_obj_get_int_maybe
 .text.mp_obj_get_float_maybe
                0x000000000800c508       0x60 build/py/obj.o
                0x000000000800c508                mp_obj_get_float_maybe
 .text.mp_obj_get_float
                0x000000000800c568       0x34 build/py/obj.o
                0x000000000800c568                mp_obj_get_float
 .text.mp_obj_get_complex
                0x000000000800c59c       0xa0 build/py/obj.o
                0x000000000800c59c                mp_obj_get_complex
 .text.mp_obj_get_array
                0x000000000800c63c       0x44 build/py/obj.o
                0x000000000800c63c                mp_obj_get_array
 .text.mp_obj_get_array_fixed_n
                0x000000000800c680       0x2c build/py/obj.o
                0x000000000800c680                mp_obj_get_array_fixed_n
 .text.mp_get_index
                0x000000000800c6ac       0x88 build/py/obj.o
                0x000000000800c6ac                mp_get_index
 .text.mp_obj_id
                0x000000000800c734       0x20 build/py/obj.o
                0x000000000800c734                mp_obj_id
 .text.mp_obj_len_maybe
                0x000000000800c754       0x50 build/py/obj.o
                0x000000000800c754                mp_obj_len_maybe
 .text.mp_obj_is_true
                0x000000000800c7a4       0x78 build/py/obj.o
                0x000000000800c7a4                mp_obj_is_true
 .text.mp_obj_len
                0x000000000800c81c       0x2c build/py/obj.o
                0x000000000800c81c                mp_obj_len
 .text.mp_obj_subscr
                0x000000000800c848       0x88 build/py/obj.o
                0x000000000800c848                mp_obj_subscr
 .text.mp_identity_getiter
                0x000000000800c8d0        0x4 build/py/obj.o
                0x000000000800c8d0                mp_identity_getiter
 .text.mp_get_buffer
                0x000000000800c8d4       0x34 build/py/obj.o
                0x000000000800c8d4                mp_get_buffer
 .text.mp_get_buffer_raise
                0x000000000800c908       0x18 build/py/obj.o
                0x000000000800c908                mp_get_buffer_raise
 .text.mp_generic_unary_op
                0x000000000800c920       0x10 build/py/obj.o
                0x000000000800c920                mp_generic_unary_op
 .text.array_unary_op
                0x000000000800c930       0x2c build/py/objarray.o
 .text.array_iterator_new
                0x000000000800c95c       0x28 build/py/objarray.o
 .text.array_get_buffer
                0x000000000800c984       0x54 build/py/objarray.o
 .text.array_new
                0x000000000800c9d8       0x44 build/py/objarray.o
 .text.array_extend
                0x000000000800ca1c       0x78 build/py/objarray.o
 .text.array_append
                0x000000000800ca94       0x70 build/py/objarray.o
 .text.array_it_iternext
                0x000000000800cb04       0x28 build/py/objarray.o
 .text.array_subscr
                0x000000000800cb2c      0x260 build/py/objarray.o
 .text.array_binary_op
                0x000000000800cd8c      0x134 build/py/objarray.o
 .text.memoryview_make_new
                0x000000000800cec0       0x84 build/py/objarray.o
 .text.array_construct
                0x000000000800cf44       0xd0 build/py/objarray.o
 .text.array_make_new
                0x000000000800d014       0x34 build/py/objarray.o
 .text.array_print
                0x000000000800d048       0x94 build/py/objarray.o
 .text.bytearray_make_new
                0x000000000800d0dc       0x60 build/py/objarray.o
 .text.mp_obj_new_bytearray_by_ref
                0x000000000800d13c       0x20 build/py/objarray.o
                0x000000000800d13c                mp_obj_new_bytearray_by_ref
 .text.mp_obj_attrtuple_attr
                0x000000000800d15c       0x40 build/py/objattrtuple.o
 .text.mp_obj_attrtuple_print_helper
                0x000000000800d19c       0x7c build/py/objattrtuple.o
                0x000000000800d19c                mp_obj_attrtuple_print_helper
 .text.mp_obj_attrtuple_print
                0x000000000800d218       0x14 build/py/objattrtuple.o
 .text.bool_binary_op
                0x000000000800d22c       0x10 build/py/objbool.o
 .text.bool_unary_op
                0x000000000800d23c       0x18 build/py/objbool.o
 .text.bool_make_new
                0x000000000800d254       0x30 build/py/objbool.o
 .text.bool_print
                0x000000000800d284       0x40 build/py/objbool.o
 .text.bound_meth_print
                0x000000000800d2c4       0x40 build/py/objboundmeth.o
 .text.bound_meth_attr
                0x000000000800d304       0x20 build/py/objboundmeth.o
 .text.mp_call_method_self_n_kw
                0x000000000800d324       0x4c build/py/objboundmeth.o
                0x000000000800d324                mp_call_method_self_n_kw
 .text.bound_meth_call
                0x000000000800d370       0x18 build/py/objboundmeth.o
 .text.mp_obj_new_bound_meth
                0x000000000800d388       0x1c build/py/objboundmeth.o
                0x000000000800d388                mp_obj_new_bound_meth
 .text.cell_print
                0x000000000800d3a4       0x3c build/py/objcell.o
 .text.mp_obj_cell_get
                0x000000000800d3e0        0x4 build/py/objcell.o
                0x000000000800d3e0                mp_obj_cell_get
 .text.mp_obj_cell_set
                0x000000000800d3e4        0x4 build/py/objcell.o
                0x000000000800d3e4                mp_obj_cell_set
 .text.mp_obj_new_cell
                0x000000000800d3e8       0x18 build/py/objcell.o
                0x000000000800d3e8                mp_obj_new_cell
 .text.closure_call
                0x000000000800d400       0xa4 build/py/objclosure.o
 .text.closure_print
                0x000000000800d4a4       0x8c build/py/objclosure.o
 .text.mp_obj_new_closure
                0x000000000800d530       0x3c build/py/objclosure.o
                0x000000000800d530                mp_obj_new_closure
 .text.complex_unary_op
                0x000000000800d56c       0xa8 build/py/objcomplex.o
 .text.complex_make_new
                0x000000000800d614       0xdc build/py/objcomplex.o
 .text.complex_attr
                0x000000000800d6f0       0x30 build/py/objcomplex.o
 .text.complex_print
                0x000000000800d720       0xac build/py/objcomplex.o
 .text.mp_obj_new_complex
                0x000000000800d7cc       0x1c build/py/objcomplex.o
                0x000000000800d7cc                mp_obj_new_complex
 .text.mp_obj_complex_get
                0x000000000800d7e8        0xc build/py/objcomplex.o
                0x000000000800d7e8                mp_obj_complex_get
 .text.mp_obj_complex_binary_op
                0x000000000800d7f4      0x264 build/py/objcomplex.o
                0x000000000800d7f4                mp_obj_complex_binary_op
 .text.complex_binary_op
                0x000000000800da58       0x10 build/py/objcomplex.o
 .text.deque_make_new
                0x000000000800da68       0x68 build/py/objdeque.o
 .text.deque_unary_op
                0x000000000800dad0       0x4c build/py/objdeque.o
 .text.deque_popleft
                0x000000000800db1c       0x38 build/py/objdeque.o
 .text.mp_obj_deque_append
                0x000000000800db54       0x5c build/py/objdeque.o
 .text.dict_view_getiter
                0x000000000800dbb0       0x18 build/py/objdict.o
 .text.dict_getiter
                0x000000000800dbc8       0x18 build/py/objdict.o
 .text.dict_values
                0x000000000800dbe0       0x1c build/py/objdict.o
 .text.dict_keys
                0x000000000800dbfc       0x1c build/py/objdict.o
 .text.dict_items
                0x000000000800dc18       0x1c build/py/objdict.o
 .text.dict_view_it_iternext
                0x000000000800dc34       0x54 build/py/objdict.o
 .text.dict_view_print
                0x000000000800dc88       0x7c build/py/objdict.o
 .text.dict_update
                0x000000000800dd04      0x124 build/py/objdict.o
 .text.dict_clear
                0x000000000800de28       0x1c build/py/objdict.o
 .text.dict_print
                0x000000000800de44       0xd0 build/py/objdict.o
 .text.dict_fromkeys
                0x000000000800df14       0x8c build/py/objdict.o
 .text.dict_copy
                0x000000000800dfa0       0x68 build/py/objdict.o
 .text.dict_make_new
                0x000000000800e008       0x68 build/py/objdict.o
 .text.dict_unary_op
                0x000000000800e070       0x40 build/py/objdict.o
 .text.dict_get_helper
                0x000000000800e0b0       0x60 build/py/objdict.o
 .text.dict_setdefault
                0x000000000800e110        0xc build/py/objdict.o
 .text.dict_pop
                0x000000000800e11c        0xc build/py/objdict.o
 .text.dict_get
                0x000000000800e128        0xc build/py/objdict.o
 .text.dict_popitem
                0x000000000800e134       0x5c build/py/objdict.o
 .text.dict_binary_op
                0x000000000800e190      0x19c build/py/objdict.o
 .text.dict_view_binary_op
                0x000000000800e32c       0x18 build/py/objdict.o
 .text.mp_obj_dict_get
                0x000000000800e344       0x24 build/py/objdict.o
                0x000000000800e344                mp_obj_dict_get
 .text.mp_obj_dict_init
                0x000000000800e368       0x10 build/py/objdict.o
                0x000000000800e368                mp_obj_dict_init
 .text.mp_obj_new_dict
                0x000000000800e378       0x20 build/py/objdict.o
                0x000000000800e378                mp_obj_new_dict
 .text.mp_obj_dict_len
                0x000000000800e398        0x8 build/py/objdict.o
                0x000000000800e398                mp_obj_dict_len
 .text.mp_obj_dict_store
                0x000000000800e3a0       0x20 build/py/objdict.o
                0x000000000800e3a0                mp_obj_dict_store
 .text.dict_subscr
                0x000000000800e3c0       0x50 build/py/objdict.o
 .text.mp_obj_dict_delete
                0x000000000800e410       0x1c build/py/objdict.o
                0x000000000800e410                mp_obj_dict_delete
 .text.enumerate_iternext
                0x000000000800e42c       0x30 build/py/objenumerate.o
 .text.enumerate_make_new
                0x000000000800e45c       0x3c build/py/objenumerate.o
 .text.mp_obj_exception_print
                0x000000000800e498       0xac build/py/objexcept.o
                0x000000000800e498                mp_obj_exception_print
 .text.mp_obj_exception_make_new
                0x000000000800e544       0x84 build/py/objexcept.o
                0x000000000800e544                mp_obj_exception_make_new
 .text.exc_add_strn
                0x000000000800e5c8       0x5c build/py/objexcept.o
 .text.mp_obj_exception_attr
                0x000000000800e624       0x58 build/py/objexcept.o
                0x000000000800e624                mp_obj_exception_attr
 .text.mp_init_emergency_exception_buf
                0x000000000800e67c        0x4 build/py/objexcept.o
                0x000000000800e67c                mp_init_emergency_exception_buf
 .text.mp_obj_exception_get_value
                0x000000000800e680       0x14 build/py/objexcept.o
                0x000000000800e680                mp_obj_exception_get_value
 .text.mp_obj_new_exception
                0x000000000800e694       0x10 build/py/objexcept.o
                0x000000000800e694                mp_obj_new_exception
 .text.mp_obj_new_exception_arg1
                0x000000000800e6a4       0x14 build/py/objexcept.o
                0x000000000800e6a4                mp_obj_new_exception_arg1
 .text.mp_obj_new_exception_args
                0x000000000800e6b8        0xc build/py/objexcept.o
                0x000000000800e6b8                mp_obj_new_exception_args
 .text.mp_obj_new_exception_msg_varg
                0x000000000800e6c4       0x90 build/py/objexcept.o
                0x000000000800e6c4                mp_obj_new_exception_msg_varg
 .text.mp_obj_new_exception_msg
                0x000000000800e754        0x8 build/py/objexcept.o
                0x000000000800e754                mp_obj_new_exception_msg
 .text.mp_obj_is_exception_type
                0x000000000800e75c       0x30 build/py/objexcept.o
                0x000000000800e75c                mp_obj_is_exception_type
 .text.mp_obj_is_exception_instance
                0x000000000800e78c        0xc build/py/objexcept.o
                0x000000000800e78c                mp_obj_is_exception_instance
 .text.mp_obj_exception_match
                0x000000000800e798       0x24 build/py/objexcept.o
                0x000000000800e798                mp_obj_exception_match
 .text.mp_obj_exception_clear_traceback
                0x000000000800e7bc       0x1c build/py/objexcept.o
                0x000000000800e7bc                mp_obj_exception_clear_traceback
 .text.mp_obj_exception_add_traceback
                0x000000000800e7d8       0x84 build/py/objexcept.o
                0x000000000800e7d8                mp_obj_exception_add_traceback
 .text.mp_obj_exception_get_traceback
                0x000000000800e85c       0x30 build/py/objexcept.o
                0x000000000800e85c                mp_obj_exception_get_traceback
 .text.filter_iternext
                0x000000000800e88c       0x3c build/py/objfilter.o
 .text.filter_make_new
                0x000000000800e8c8       0x30 build/py/objfilter.o
 .text.float_print
                0x000000000800e8f8       0x58 build/py/objfloat.o
 .text.mp_obj_float_divmod
                0x000000000800e950       0xdc build/py/objfloat.o
 .text.float_make_new
                0x000000000800ea2c       0x6c build/py/objfloat.o
 .text.mp_float_hash
                0x000000000800ea98       0x44 build/py/objfloat.o
                0x000000000800ea98                mp_float_hash
 .text.float_unary_op
                0x000000000800eadc       0x68 build/py/objfloat.o
 .text.mp_obj_new_float
                0x000000000800eb44       0x18 build/py/objfloat.o
                0x000000000800eb44                mp_obj_new_float
 .text.mp_obj_float_get
                0x000000000800eb5c        0x4 build/py/objfloat.o
                0x000000000800eb5c                mp_obj_float_get
 .text.mp_obj_float_binary_op
                0x000000000800eb60      0x21c build/py/objfloat.o
                0x000000000800eb60                mp_obj_float_binary_op
 .text.float_binary_op
                0x000000000800ed7c       0x24 build/py/objfloat.o
 .text.fun_builtin_0_call
                0x000000000800eda0       0x14 build/py/objfun.o
 .text.fun_builtin_1_call
                0x000000000800edb4       0x1c build/py/objfun.o
 .text.fun_builtin_2_call
                0x000000000800edd0       0x1c build/py/objfun.o
 .text.fun_builtin_3_call
                0x000000000800edec       0x1c build/py/objfun.o
 .text.fun_bc_call
                0x000000000800ee08       0x78 build/py/objfun.o
 .text.fun_builtin_var_call
                0x000000000800ee80       0x40 build/py/objfun.o
 .text.mp_obj_fun_get_name
                0x000000000800eec0       0x1c build/py/objfun.o
                0x000000000800eec0                mp_obj_fun_get_name
 .text.mp_obj_fun_bc_attr
                0x000000000800eedc       0x20 build/py/objfun.o
                0x000000000800eedc                mp_obj_fun_bc_attr
 .text.fun_bc_print
                0x000000000800eefc       0x20 build/py/objfun.o
 .text.mp_obj_fun_bc_prepare_codestate
                0x000000000800ef1c       0x5c build/py/objfun.o
                0x000000000800ef1c                mp_obj_fun_bc_prepare_codestate
 .text.mp_obj_new_fun_bc
                0x000000000800ef78       0xc4 build/py/objfun.o
                0x000000000800ef78                mp_obj_new_fun_bc
 .text.gen_wrap_call
                0x000000000800f03c       0x5c build/py/objgenerator.o
 .text.gen_instance_pend_throw
                0x000000000800f098       0x1c build/py/objgenerator.o
 .text.gen_instance_print
                0x000000000800f0b4       0x20 build/py/objgenerator.o
 .text.unlikely.gen_instance_throw.part.0
                0x000000000800f0d4       0x10 build/py/objgenerator.o
 .text.mp_obj_gen_resume
                0x000000000800f0e4       0xe0 build/py/objgenerator.o
                0x000000000800f0e4                mp_obj_gen_resume
 .text.gen_resume_and_raise
                0x000000000800f1c4       0x44 build/py/objgenerator.o
 .text.gen_instance_throw
                0x000000000800f208       0x24 build/py/objgenerator.o
 .text.gen_instance_send
                0x000000000800f22c       0x14 build/py/objgenerator.o
 .text.gen_instance_iternext
                0x000000000800f240       0x10 build/py/objgenerator.o
 .text.gen_instance_close
                0x000000000800f250       0x50 build/py/objgenerator.o
 .text.it_iternext
                0x000000000800f2a0       0x58 build/py/objgetitemiter.o
 .text.mp_obj_new_getitem_iter
                0x000000000800f2f8       0x18 build/py/objgetitemiter.o
                0x000000000800f2f8                mp_obj_new_getitem_iter
 .text.int_to_bytes
                0x000000000800f310       0x90 build/py/objint.o
 .text.int_from_bytes
                0x000000000800f3a0       0x80 build/py/objint.o
 .text.mp_obj_new_int_from_float
                0x000000000800f420       0x84 build/py/objint.o
                0x000000000800f420                mp_obj_new_int_from_float
 .text.mp_obj_int_make_new
                0x000000000800f4a4       0x9c build/py/objint.o
 .text.mp_int_format_size
                0x000000000800f540       0x40 build/py/objint.o
                0x000000000800f540                mp_int_format_size
 .text.mp_obj_int_formatted
                0x000000000800f580      0x164 build/py/objint.o
                0x000000000800f580                mp_obj_int_formatted
 .text.mp_obj_int_print
                0x000000000800f6e4       0x40 build/py/objint.o
                0x000000000800f6e4                mp_obj_int_print
 .text.mp_obj_int_binary_op_extra_cases
                0x000000000800f724       0x6c build/py/objint.o
                0x000000000800f724                mp_obj_int_binary_op_extra_cases
 .text.mp_obj_int_new_mpz
                0x000000000800f790       0x1c build/py/objint_mpz.o
                0x000000000800f790                mp_obj_int_new_mpz
 .text.mp_obj_int_formatted_impl
                0x000000000800f7ac       0x70 build/py/objint_mpz.o
                0x000000000800f7ac                mp_obj_int_formatted_impl
 .text.mp_obj_int_from_bytes_impl
                0x000000000800f81c       0x38 build/py/objint_mpz.o
                0x000000000800f81c                mp_obj_int_from_bytes_impl
 .text.mp_obj_int_to_bytes_impl
                0x000000000800f854       0x20 build/py/objint_mpz.o
                0x000000000800f854                mp_obj_int_to_bytes_impl
 .text.mp_obj_int_sign
                0x000000000800f874       0x30 build/py/objint_mpz.o
                0x000000000800f874                mp_obj_int_sign
 .text.mp_obj_int_unary_op
                0x000000000800f8a4       0xa8 build/py/objint_mpz.o
                0x000000000800f8a4                mp_obj_int_unary_op
 .text.mp_obj_new_int_from_ll
                0x000000000800f94c       0x34 build/py/objint_mpz.o
                0x000000000800f94c                mp_obj_new_int_from_ll
 .text.mp_obj_new_int
                0x000000000800f980       0x18 build/py/objint_mpz.o
                0x000000000800f980                mp_obj_new_int
 .text.mp_obj_new_int_from_ull
                0x000000000800f998       0x34 build/py/objint_mpz.o
                0x000000000800f998                mp_obj_new_int_from_ull
 .text.mp_obj_int_pow3
                0x000000000800f9cc       0xf8 build/py/objint_mpz.o
                0x000000000800f9cc                mp_obj_int_pow3
 .text.mp_obj_new_int_from_uint
                0x000000000800fac4       0x18 build/py/objint_mpz.o
                0x000000000800fac4                mp_obj_new_int_from_uint
 .text.mp_obj_new_int_from_str_len
                0x000000000800fadc       0x50 build/py/objint_mpz.o
                0x000000000800fadc                mp_obj_new_int_from_str_len
 .text.mp_obj_int_get_truncated
                0x000000000800fb2c       0x14 build/py/objint_mpz.o
                0x000000000800fb2c                mp_obj_int_get_truncated
 .text.mp_obj_int_get_checked
                0x000000000800fb40       0x30 build/py/objint_mpz.o
                0x000000000800fb40                mp_obj_int_get_checked
 .text.mp_obj_int_binary_op
                0x000000000800fb70      0x278 build/py/objint_mpz.o
                0x000000000800fb70                mp_obj_int_binary_op
 .text.mp_obj_int_as_float_impl
                0x000000000800fde8        0xc build/py/objint_mpz.o
                0x000000000800fde8                mp_obj_int_as_float_impl
 .text.list_getiter
                0x000000000800fdf4       0x1c build/py/objlist.o
 .text.list_reverse
                0x000000000800fe10       0x34 build/py/objlist.o
 .text.list_it_iternext
                0x000000000800fe44       0x1c build/py/objlist.o
 .text.mp_obj_list_append
                0x000000000800fe60       0x50 build/py/objlist.o
                0x000000000800fe60                mp_obj_list_append
 .text.list_insert
                0x000000000800feb0       0x64 build/py/objlist.o
 .text.list_clear
                0x000000000800ff14       0x2c build/py/objlist.o
 .text.mp_quicksort
                0x000000000800ff40       0xe8 build/py/objlist.o
 .text.mp_obj_list_sort
                0x0000000008010028       0x6c build/py/objlist.o
                0x0000000008010028                mp_obj_list_sort
 .text.list_index
                0x0000000008010094       0x14 build/py/objlist.o
 .text.list_pop
                0x00000000080100a8       0x80 build/py/objlist.o
 .text.mp_obj_list_remove
                0x0000000008010128       0x28 build/py/objlist.o
                0x0000000008010128                mp_obj_list_remove
 .text.list_extend_from_iter
                0x0000000008010150       0x28 build/py/objlist.o
 .text.list_count
                0x0000000008010178       0x10 build/py/objlist.o
 .text.list_print
                0x0000000008010188       0x64 build/py/objlist.o
 .text.list_unary_op
                0x00000000080101ec       0x3c build/py/objlist.o
 .text.list_extend
                0x0000000008010228       0x78 build/py/objlist.o
 .text.mp_obj_list_init
                0x00000000080102a0       0x34 build/py/objlist.o
                0x00000000080102a0                mp_obj_list_init
 .text.list_binary_op
                0x00000000080102d4       0xe4 build/py/objlist.o
 .text.list_make_new
                0x00000000080103b8       0x40 build/py/objlist.o
 .text.list_subscr
                0x00000000080103f8      0x1d0 build/py/objlist.o
 .text.mp_obj_new_list
                0x00000000080105c8       0x30 build/py/objlist.o
                0x00000000080105c8                mp_obj_new_list
 .text.list_copy
                0x00000000080105f8        0xc build/py/objlist.o
 .text.mp_obj_list_get
                0x0000000008010604        0xc build/py/objlist.o
                0x0000000008010604                mp_obj_list_get
 .text.mp_obj_list_set_len
                0x0000000008010610        0x4 build/py/objlist.o
                0x0000000008010610                mp_obj_list_set_len
 .text.map_iternext
                0x0000000008010614       0x58 build/py/objmap.o
 .text.map_make_new
                0x000000000801066c       0x58 build/py/objmap.o
 .text.module_print
                0x00000000080106c4       0x6c build/py/objmodule.o
 .text.module_attr
                0x0000000008010730       0x6c build/py/objmodule.o
 .text.mp_obj_new_module
                0x000000000801079c       0x48 build/py/objmodule.o
                0x000000000801079c                mp_obj_new_module
 .text.mp_module_call_init
                0x00000000080107e4       0x3c build/py/objmodule.o
                0x00000000080107e4                mp_module_call_init
 .text.mp_module_get
                0x0000000008010820       0x40 build/py/objmodule.o
                0x0000000008010820                mp_module_get
 .text.object___init__
                0x0000000008010860        0x8 build/py/objobject.o
 .text.object___new__
                0x0000000008010868       0x34 build/py/objobject.o
 .text.object_make_new
                0x000000000801089c       0x18 build/py/objobject.o
 .text.polymorph_it_iternext
                0x00000000080108b4        0x8 build/py/objpolyiter.o
 .text.property_deleter
                0x00000000080108bc       0x18 build/py/objproperty.o
 .text.property_setter
                0x00000000080108d4       0x1c build/py/objproperty.o
 .text.property_getter
                0x00000000080108f0       0x1c build/py/objproperty.o
 .text.property_make_new
                0x000000000801090c       0x38 build/py/objproperty.o
 .text.mp_obj_property_get
                0x0000000008010944        0x4 build/py/objproperty.o
                0x0000000008010944                mp_obj_property_get
 .text.none_print
                0x0000000008010948       0x20 build/py/objnone.o
 .text.namedtuple_asdict
                0x0000000008010968       0x5c build/py/objnamedtuple.o
 .text.namedtuple_make_new
                0x00000000080109c4       0xe0 build/py/objnamedtuple.o
 .text.namedtuple_print
                0x0000000008010aa4       0x24 build/py/objnamedtuple.o
 .text.namedtuple_attr
                0x0000000008010ac8       0x60 build/py/objnamedtuple.o
 .text.mp_obj_new_namedtuple_base
                0x0000000008010b28       0x3c build/py/objnamedtuple.o
                0x0000000008010b28                mp_obj_new_namedtuple_base
 .text.new_namedtuple_type
                0x0000000008010b64       0x90 build/py/objnamedtuple.o
 .text.range_it_iternext
                0x0000000008010bf4       0x34 build/py/objrange.o
 .text.range_unary_op
                0x0000000008010c28       0x54 build/py/objrange.o
 .text.range_getiter
                0x0000000008010c7c       0x18 build/py/objrange.o
 .text.range_subscr
                0x0000000008010c94       0xa0 build/py/objrange.o
 .text.range_make_new
                0x0000000008010d34       0x64 build/py/objrange.o
 .text.range_print
                0x0000000008010d98       0x38 build/py/objrange.o
 .text.range_binary_op
                0x0000000008010dd0       0x98 build/py/objrange.o
 .text.range_attr
                0x0000000008010e68       0x48 build/py/objrange.o
 .text.reversed_iternext
                0x0000000008010eb0       0x20 build/py/objreversed.o
 .text.reversed_make_new
                0x0000000008010ed0       0x54 build/py/objreversed.o
 .text.set_it_iternext
                0x0000000008010f24       0x30 build/py/objset.o
 .text.set_getiter
                0x0000000008010f54       0x1c build/py/objset.o
 .text.set_add  0x0000000008010f70       0x14 build/py/objset.o
 .text.set_discard
                0x0000000008010f84       0x14 build/py/objset.o
 .text.set_update_int
                0x0000000008010f98       0x28 build/py/objset.o
 .text.set_update
                0x0000000008010fc0       0x24 build/py/objset.o
 .text.set_symmetric_difference_update
                0x0000000008010fe4       0x30 build/py/objset.o
 .text.set_isdisjoint
                0x0000000008011014       0x40 build/py/objset.o
 .text.set_copy
                0x0000000008011054       0x2c build/py/objset.o
 .text.set_union
                0x0000000008011080       0x14 build/py/objset.o
 .text.set_symmetric_difference
                0x0000000008011094       0x14 build/py/objset.o
 .text.set_clear
                0x00000000080110a8       0x10 build/py/objset.o
 .text.set_diff_int
                0x00000000080110b8       0x6c build/py/objset.o
 .text.set_diff_update
                0x0000000008011124       0x10 build/py/objset.o
 .text.set_diff
                0x0000000008011134        0xc build/py/objset.o
 .text.set_print
                0x0000000008011140       0xf0 build/py/objset.o
 .text.set_remove
                0x0000000008011230       0x28 build/py/objset.o
 .text.set_pop  0x0000000008011258       0x20 build/py/objset.o
 .text.set_unary_op
                0x0000000008011278       0x74 build/py/objset.o
 .text.mp_obj_new_set
                0x00000000080112ec       0x3c build/py/objset.o
                0x00000000080112ec                mp_obj_new_set
 .text.set_intersect_int.part.4
                0x0000000008011328       0x88 build/py/objset.o
 .text.set_intersect_int
                0x00000000080113b0       0x20 build/py/objset.o
 .text.set_intersect
                0x00000000080113d0        0xc build/py/objset.o
 .text.set_intersect_update
                0x00000000080113dc       0x18 build/py/objset.o
 .text.set_make_new
                0x00000000080113f4       0x54 build/py/objset.o
 .text.set_issubset_internal
                0x0000000008011448       0xe8 build/py/objset.o
 .text.set_issuperset
                0x0000000008011530       0x10 build/py/objset.o
 .text.set_issubset
                0x0000000008011540        0xc build/py/objset.o
 .text.set_binary_op
                0x000000000801154c      0x13c build/py/objset.o
 .text.mp_obj_set_store
                0x0000000008011688        0xc build/py/objset.o
                0x0000000008011688                mp_obj_set_store
 .text.singleton_print
                0x0000000008011694       0x10 build/py/objsingleton.o
 .text.slice_print
                0x00000000080116a4       0x54 build/py/objslice.o
 .text.slice_attr
                0x00000000080116f8       0x38 build/py/objslice.o
 .text.mp_obj_new_slice
                0x0000000008011730       0x20 build/py/objslice.o
                0x0000000008011730                mp_obj_new_slice
 .text.mp_obj_slice_get
                0x0000000008011750       0x10 build/py/objslice.o
                0x0000000008011750                mp_obj_slice_get
 .text.arg_looks_numeric
                0x0000000008011760       0x3c build/py/objstr.o
 .text.mp_obj_new_bytes_iterator
                0x000000000801179c       0x1c build/py/objstr.o
 .text.bytes_it_iternext
                0x00000000080117b8       0x3c build/py/objstr.o
 .text.unlikely.bad_implicit_conversion
                0x00000000080117f4       0x3c build/py/objstr.o
 .text.str_count
                0x0000000008011830      0x108 build/py/objstr.o
 .text.str_uni_istype
                0x0000000008011938       0x88 build/py/objstr.o
 .text.str_isspace
                0x00000000080119c0       0x10 build/py/objstr.o
 .text.str_isalpha
                0x00000000080119d0       0x10 build/py/objstr.o
 .text.str_isdigit
                0x00000000080119e0       0x10 build/py/objstr.o
 .text.str_isupper
                0x00000000080119f0       0x10 build/py/objstr.o
 .text.str_islower
                0x0000000008011a00       0x10 build/py/objstr.o
 .text.str_to_int.part.0
                0x0000000008011a10       0x2c build/py/objstr.o
 .text.mp_obj_str_get_buffer
                0x0000000008011a3c       0x40 build/py/objstr.o
                0x0000000008011a3c                mp_obj_str_get_buffer
 .text.mp_str_print_quoted
                0x0000000008011a7c      0x118 build/py/objstr.o
                0x0000000008011a7c                mp_str_print_quoted
 .text.mp_str_print_json
                0x0000000008011b94       0xb8 build/py/objstr.o
                0x0000000008011b94                mp_str_print_json
 .text.str_print
                0x0000000008011c4c       0x68 build/py/objstr.o
 .text.find_subbytes
                0x0000000008011cb4       0x50 build/py/objstr.o
                0x0000000008011cb4                find_subbytes
 .text.str_finder
                0x0000000008011d04      0x10c build/py/objstr.o
 .text.str_find
                0x0000000008011e10        0xc build/py/objstr.o
 .text.str_rfind
                0x0000000008011e1c       0x10 build/py/objstr.o
 .text.str_index
                0x0000000008011e2c        0xc build/py/objstr.o
 .text.str_rindex
                0x0000000008011e38       0x10 build/py/objstr.o
 .text.mp_obj_new_str_copy
                0x0000000008011e48       0x3c build/py/objstr.o
                0x0000000008011e48                mp_obj_new_str_copy
 .text.mp_obj_new_str_via_qstr
                0x0000000008011e84       0x10 build/py/objstr.o
                0x0000000008011e84                mp_obj_new_str_via_qstr
 .text.mp_obj_new_str_from_vstr
                0x0000000008011e94       0x68 build/py/objstr.o
                0x0000000008011e94                mp_obj_new_str_from_vstr
 .text.str_join
                0x0000000008011efc      0x14c build/py/objstr.o
 .text.str_center
                0x0000000008012048       0x70 build/py/objstr.o
 .text.str_replace
                0x00000000080120b8      0x238 build/py/objstr.o
 .text.str_caseconv
                0x00000000080122f0       0x5c build/py/objstr.o
 .text.str_lower
                0x000000000801234c       0x10 build/py/objstr.o
 .text.str_upper
                0x000000000801235c       0x10 build/py/objstr.o
 .text.bytes_make_new.part.4
                0x000000000801236c      0x134 build/py/objstr.o
 .text.bytes_make_new
                0x00000000080124a0       0x20 build/py/objstr.o
 .text.str_encode
                0x00000000080124c0       0x2c build/py/objstr.o
 .text.mp_obj_new_str
                0x00000000080124ec       0x28 build/py/objstr.o
                0x00000000080124ec                mp_obj_new_str
 .text.mp_obj_str_make_new
                0x0000000008012514       0xd0 build/py/objstr.o
                0x0000000008012514                mp_obj_str_make_new
 .text.bytes_decode
                0x00000000080125e4       0x2c build/py/objstr.o
 .text.mp_obj_new_str_of_type
                0x0000000008012610       0x24 build/py/objstr.o
                0x0000000008012610                mp_obj_new_str_of_type
 .text.str_splitlines
                0x0000000008012634       0xe0 build/py/objstr.o
 .text.str_uni_strip
                0x0000000008012714      0x16c build/py/objstr.o
 .text.str_strip
                0x0000000008012880       0x10 build/py/objstr.o
 .text.str_lstrip
                0x0000000008012890       0x10 build/py/objstr.o
 .text.str_rstrip
                0x00000000080128a0       0x10 build/py/objstr.o
 .text.str_partitioner
                0x00000000080128b0       0xe0 build/py/objstr.o
 .text.str_partition
                0x0000000008012990        0xc build/py/objstr.o
 .text.str_rpartition
                0x000000000801299c        0xc build/py/objstr.o
 .text.bytes_subscr
                0x00000000080129a8       0x84 build/py/objstr.o
 .text.mp_obj_new_bytes
                0x0000000008012a2c       0x14 build/py/objstr.o
                0x0000000008012a2c                mp_obj_new_bytes
 .text.mp_obj_str_equal
                0x0000000008012a40       0xa4 build/py/objstr.o
                0x0000000008012a40                mp_obj_str_equal
 .text.mp_obj_str_get_qstr
                0x0000000008012ae4       0x2c build/py/objstr.o
                0x0000000008012ae4                mp_obj_str_get_qstr
 .text.mp_obj_str_get_str
                0x0000000008012b10       0x34 build/py/objstr.o
                0x0000000008012b10                mp_obj_str_get_str
 .text.mp_obj_str_get_data
                0x0000000008012b44       0x3c build/py/objstr.o
                0x0000000008012b44                mp_obj_str_get_data
 .text.mp_obj_str_binary_op
                0x0000000008012b80      0x668 build/py/objstr.o
                0x0000000008012b80                mp_obj_str_binary_op
 .text.mp_obj_str_split
                0x00000000080131e8      0x1ac build/py/objstr.o
                0x00000000080131e8                mp_obj_str_split
 .text.str_rsplit
                0x0000000008013394      0x168 build/py/objstr.o
 .text.str_startswith
                0x00000000080134fc       0x84 build/py/objstr.o
 .text.str_endswith
                0x0000000008013580       0x64 build/py/objstr.o
 .text.mp_obj_str_format_helper
                0x00000000080135e4      0x79c build/py/objstr.o
 .text.mp_obj_str_format
                0x0000000008013d80       0x4c build/py/objstr.o
                0x0000000008013d80                mp_obj_str_format
 .text.mp_obj_str_intern_checked
                0x0000000008013dcc       0x1c build/py/objstr.o
                0x0000000008013dcc                mp_obj_str_intern_checked
 .text.mp_obj_new_str_iterator
                0x0000000008013de8       0x1c build/py/objstrunicode.o
 .text.str_it_iternext
                0x0000000008013e04       0x50 build/py/objstrunicode.o
 .text.uni_unary_op
                0x0000000008013e54       0x50 build/py/objstrunicode.o
 .text.uni_print
                0x0000000008013ea4      0x198 build/py/objstrunicode.o
 .text.str_index_to_ptr
                0x000000000801403c       0xec build/py/objstrunicode.o
                0x000000000801403c                str_index_to_ptr
 .text.str_subscr
                0x0000000008014128       0xe0 build/py/objstrunicode.o
 .text.stringio___exit__
                0x0000000008014208        0xc build/py/objstringio.o
 .text.stringio_getvalue
                0x0000000008014214       0x38 build/py/objstringio.o
 .text.stringio_read
                0x000000000801424c       0x40 build/py/objstringio.o
 .text.stringio_print
                0x000000000801428c       0x24 build/py/objstringio.o
 .text.stringio_ioctl
                0x00000000080142b0       0x6c build/py/objstringio.o
 .text.stringio_write
                0x000000000801431c       0xcc build/py/objstringio.o
 .text.stringio_make_new
                0x00000000080143e8       0xb0 build/py/objstringio.o
 .text.tuple_it_iternext
                0x0000000008014498       0x1c build/py/objtuple.o
 .text.mp_obj_tuple_getiter
                0x00000000080144b4       0x1c build/py/objtuple.o
                0x00000000080144b4                mp_obj_tuple_getiter
 .text.mp_obj_tuple_print
                0x00000000080144d0       0xa8 build/py/objtuple.o
                0x00000000080144d0                mp_obj_tuple_print
 .text.tuple_index
                0x0000000008014578       0x14 build/py/objtuple.o
 .text.tuple_count
                0x000000000801458c       0x10 build/py/objtuple.o
 .text.mp_obj_tuple_unary_op
                0x000000000801459c       0x64 build/py/objtuple.o
                0x000000000801459c                mp_obj_tuple_unary_op
 .text.mp_obj_new_tuple.part.1
                0x0000000008014600       0x38 build/py/objtuple.o
 .text.mp_obj_tuple_binary_op
                0x0000000008014638      0x114 build/py/objtuple.o
                0x0000000008014638                mp_obj_tuple_binary_op
 .text.mp_obj_tuple_subscr
                0x000000000801474c       0x80 build/py/objtuple.o
                0x000000000801474c                mp_obj_tuple_subscr
 .text.mp_obj_tuple_make_new
                0x00000000080147cc       0x9c build/py/objtuple.o
 .text.mp_obj_new_tuple
                0x0000000008014868       0x14 build/py/objtuple.o
                0x0000000008014868                mp_obj_new_tuple
 .text.mp_obj_tuple_get
                0x000000000801487c        0xc build/py/objtuple.o
                0x000000000801487c                mp_obj_tuple_get
 .text.mp_obj_tuple_del
                0x0000000008014888       0x10 build/py/objtuple.o
                0x0000000008014888                mp_obj_tuple_del
 .text.instance_count_native_bases
                0x0000000008014898       0x80 build/py/objtype.o
 .text.native_base_init_wrapper
                0x0000000008014918       0x30 build/py/objtype.o
 .text.mp_obj_class_lookup
                0x0000000008014948      0x114 build/py/objtype.o
 .text.super_attr
                0x0000000008014a5c       0xc0 build/py/objtype.o
 .text.static_class_method_make_new
                0x0000000008014b1c       0x24 build/py/objtype.o
 .text.super_make_new
                0x0000000008014b40       0x40 build/py/objtype.o
 .text.type_print
                0x0000000008014b80       0x10 build/py/objtype.o
 .text.instance_subscr
                0x0000000008014b90       0xa4 build/py/objtype.o
 .text.mp_obj_instance_attr
                0x0000000008014c34      0x274 build/py/objtype.o
 .text.instance_binary_op
                0x0000000008014ea8       0x94 build/py/objtype.o
 .text.instance_unary_op
                0x0000000008014f3c       0xb4 build/py/objtype.o
 .text.instance_print
                0x0000000008014ff0      0x108 build/py/objtype.o
 .text.super_print
                0x00000000080150f8       0x40 build/py/objtype.o
 .text.type_call
                0x0000000008015138       0x24 build/py/objtype.o
 .text.instance_get_buffer
                0x000000000801515c       0x50 build/py/objtype.o
 .text.instance_getiter
                0x00000000080151ac       0x5c build/py/objtype.o
 .text.mp_obj_instance_call
                0x0000000008015208       0x78 build/py/objtype.o
                0x0000000008015208                mp_obj_instance_call
 .text.check_for_special_accessors
                0x0000000008015280       0x54 build/py/objtype.o
 .text.type_attr
                0x00000000080152d4       0xb0 build/py/objtype.o
 .text.mp_obj_new_instance
                0x0000000008015384       0x2c build/py/objtype.o
                0x0000000008015384                mp_obj_new_instance
 .text.mp_obj_instance_make_new
                0x00000000080153b0      0x174 build/py/objtype.o
                0x00000000080153b0                mp_obj_instance_make_new
 .text.mp_obj_instance_is_callable
                0x0000000008015524       0x30 build/py/objtype.o
                0x0000000008015524                mp_obj_instance_is_callable
 .text.mp_obj_new_type
                0x0000000008015554      0x230 build/py/objtype.o
                0x0000000008015554                mp_obj_new_type
 .text.type_make_new
                0x0000000008015784       0x40 build/py/objtype.o
 .text.mp_load_super_method
                0x00000000080157c4       0x24 build/py/objtype.o
                0x00000000080157c4                mp_load_super_method
 .text.mp_obj_is_subclass_fast
                0x00000000080157e8       0x90 build/py/objtype.o
                0x00000000080157e8                mp_obj_is_subclass_fast
 .text.mp_obj_is_subclass
                0x0000000008015878       0x94 build/py/objtype.o
 .text.mp_builtin_issubclass
                0x000000000801590c       0x24 build/py/objtype.o
 .text.mp_builtin_isinstance
                0x0000000008015930       0x10 build/py/objtype.o
 .text.mp_instance_cast_to_native_base
                0x0000000008015940       0x1c build/py/objtype.o
                0x0000000008015940                mp_instance_cast_to_native_base
 .text.zip_iternext
                0x000000000801595c       0x44 build/py/objzip.o
 .text.zip_make_new
                0x00000000080159a0       0x50 build/py/objzip.o
 .text.op_getitem
                0x00000000080159f0       0x18 build/py/opmethods.o
 .text.op_setitem
                0x0000000008015a08       0x18 build/py/opmethods.o
 .text.op_delitem
                0x0000000008015a20       0x18 build/py/opmethods.o
 .text.op_contains
                0x0000000008015a38       0x18 build/py/opmethods.o
 .text.mp_seq_multiply
                0x0000000008015a50       0x2c build/py/sequence.o
                0x0000000008015a50                mp_seq_multiply
 .text.mp_seq_get_fast_slice_indexes
                0x0000000008015a7c      0x164 build/py/sequence.o
                0x0000000008015a7c                mp_seq_get_fast_slice_indexes
 .text.mp_seq_extract_slice
                0x0000000008015be0       0x64 build/py/sequence.o
                0x0000000008015be0                mp_seq_extract_slice
 .text.mp_seq_cmp_bytes
                0x0000000008015c44       0x80 build/py/sequence.o
                0x0000000008015c44                mp_seq_cmp_bytes
 .text.mp_seq_cmp_objs
                0x0000000008015cc4       0xb0 build/py/sequence.o
                0x0000000008015cc4                mp_seq_cmp_objs
 .text.mp_seq_index_obj
                0x0000000008015d74       0x80 build/py/sequence.o
                0x0000000008015d74                mp_seq_index_obj
 .text.mp_seq_count_obj
                0x0000000008015df4       0x30 build/py/sequence.o
                0x0000000008015df4                mp_seq_count_obj
 .text.mp_stream_close
                0x0000000008015e24       0x28 build/py/stream.o
                0x0000000008015e24                mp_stream_close
 .text.stream_flush
                0x0000000008015e4c       0x28 build/py/stream.o
 .text.stream_unbuffered_readline
                0x0000000008015e74       0xa8 build/py/stream.o
 .text.stream_readinto
                0x0000000008015f1c       0x7c build/py/stream.o
 .text.stream_unbuffered_readlines
                0x0000000008015f98       0x34 build/py/stream.o
 .text.stream_seek
                0x0000000008015fcc       0x58 build/py/stream.o
 .text.stream_tell
                0x0000000008016024       0x1c build/py/stream.o
 .text.mp_stream_rw
                0x0000000008016040       0x68 build/py/stream.o
                0x0000000008016040                mp_stream_rw
 .text.stream_read_generic
                0x00000000080160a8      0x22c build/py/stream.o
 .text.stream_read
                0x00000000080162d4        0xc build/py/stream.o
 .text.mp_get_stream_raise
                0x00000000080162e0       0x40 build/py/stream.o
                0x00000000080162e0                mp_get_stream_raise
 .text.mp_stream_write
                0x0000000008016320       0x24 build/py/stream.o
                0x0000000008016320                mp_stream_write
 .text.stream_write_method
                0x0000000008016344       0x64 build/py/stream.o
 .text.mp_stream_write_adaptor
                0x00000000080163a8        0xc build/py/stream.o
                0x00000000080163a8                mp_stream_write_adaptor
 .text.mp_stream_unbuffered_iter
                0x00000000080163b4       0x24 build/py/stream.o
                0x00000000080163b4                mp_stream_unbuffered_iter
 .text.mp_binary_get_size
                0x00000000080163d8       0x6c build/py/binary.o
                0x00000000080163d8                mp_binary_get_size
 .text.mp_binary_get_val_array
                0x0000000008016444       0x94 build/py/binary.o
                0x0000000008016444                mp_binary_get_val_array
 .text.mp_binary_get_int
                0x00000000080164d8       0x64 build/py/binary.o
                0x00000000080164d8                mp_binary_get_int
 .text.mp_binary_get_val
                0x000000000801653c       0xfc build/py/binary.o
                0x000000000801653c                mp_binary_get_val
 .text.mp_binary_set_int
                0x0000000008016638       0x30 build/py/binary.o
                0x0000000008016638                mp_binary_set_int
 .text.mp_binary_set_val
                0x0000000008016668      0x128 build/py/binary.o
                0x0000000008016668                mp_binary_set_val
 .text.mp_binary_set_val_array_from_int
                0x0000000008016790       0x4c build/py/binary.o
                0x0000000008016790                mp_binary_set_val_array_from_int
 .text.mp_binary_set_val_array
                0x00000000080167dc       0x80 build/py/binary.o
                0x00000000080167dc                mp_binary_set_val_array
 .text.mp_import_stat_any
                0x000000000801685c       0x14 build/py/builtinimport.o
 .text.do_execute_raw_code
                0x0000000008016870       0x50 build/py/builtinimport.o
 .text.do_load_from_lexer
                0x00000000080168c0       0x24 build/py/builtinimport.o
 .text.do_load  0x00000000080168e4       0x60 build/py/builtinimport.o
 .text.stat_file_py_or_mpy
                0x0000000008016944       0x34 build/py/builtinimport.o
 .text.stat_dir_or_file
                0x0000000008016978       0x24 build/py/builtinimport.o
 .text.mp_builtin___import__
                0x000000000801699c      0x390 build/py/builtinimport.o
                0x000000000801699c                mp_builtin___import__
 .text.mp_obj_is_package
                0x0000000008016d2c       0x18 build/py/builtinimport.o
                0x0000000008016d2c                mp_obj_is_package
 .text.mp_builtin_compile
                0x0000000008016d44       0x7c build/py/builtinevex.o
 .text.eval_exec_helper
                0x0000000008016dc0      0x104 build/py/builtinevex.o
 .text.mp_builtin_eval
                0x0000000008016ec4        0xc build/py/builtinevex.o
 .text.mp_builtin_exec
                0x0000000008016ed0        0xc build/py/builtinevex.o
 .text.mp_builtin_execfile
                0x0000000008016edc        0xc build/py/builtinevex.o
 .text.mp_help_add_from_map
                0x0000000008016ee8       0x2c build/py/builtinhelp.o
 .text.mp_help_add_from_names
                0x0000000008016f14       0x30 build/py/builtinhelp.o
 .text.mp_builtin_help
                0x0000000008016f44      0x1dc build/py/builtinhelp.o
 .text.mp_builtin_globals
                0x0000000008017120        0xc build/py/modbuiltins.o
 .text.mp_builtin_locals
                0x000000000801712c        0xc build/py/modbuiltins.o
 .text.mp_builtin___build_class__
                0x0000000008017138       0x80 build/py/modbuiltins.o
 .text.mp_builtin_abs
                0x00000000080171b8        0xc build/py/modbuiltins.o
 .text.mp_builtin_hash
                0x00000000080171c4        0xc build/py/modbuiltins.o
 .text.mp_builtin_iter
                0x00000000080171d0        0xc build/py/modbuiltins.o
 .text.mp_builtin_all
                0x00000000080171dc       0x34 build/py/modbuiltins.o
 .text.mp_builtin_any
                0x0000000008017210       0x34 build/py/modbuiltins.o
 .text.mp_builtin_bin
                0x0000000008017244       0x1c build/py/modbuiltins.o
 .text.mp_builtin_callable
                0x0000000008017260       0x1c build/py/modbuiltins.o
 .text.mp_builtin_chr
                0x000000000801727c       0xb0 build/py/modbuiltins.o
 .text.mp_builtin_dir
                0x000000000801732c       0xa4 build/py/modbuiltins.o
 .text.mp_builtin_divmod
                0x00000000080173d0       0x10 build/py/modbuiltins.o
 .text.mp_builtin_hex
                0x00000000080173e0       0x10 build/py/modbuiltins.o
 .text.mp_builtin_oct
                0x00000000080173f0       0x10 build/py/modbuiltins.o
 .text.mp_builtin_sum
                0x0000000008017400       0x34 build/py/modbuiltins.o
 .text.mp_builtin_min_max
                0x0000000008017434      0x108 build/py/modbuiltins.o
 .text.mp_builtin_max
                0x000000000801753c        0xc build/py/modbuiltins.o
 .text.mp_builtin_min
                0x0000000008017548        0xc build/py/modbuiltins.o
 .text.mp_builtin_ord
                0x0000000008017554       0x68 build/py/modbuiltins.o
 .text.mp_builtin_print
                0x00000000080175bc       0x90 build/py/modbuiltins.o
 .text.mp_builtin_repr
                0x000000000801764c       0x2c build/py/modbuiltins.o
 .text.mp_builtin_round
                0x0000000008017678       0x6c build/py/modbuiltins.o
 .text.mp_builtin_sorted
                0x00000000080176e4       0x3c build/py/modbuiltins.o
 .text.mp_builtin_hasattr
                0x0000000008017720       0x30 build/py/modbuiltins.o
 .text.mp_builtin_getattr
                0x0000000008017750       0x60 build/py/modbuiltins.o
 .text.mp_builtin_setattr
                0x00000000080177b0       0x20 build/py/modbuiltins.o
 .text.mp_builtin_delattr
                0x00000000080177d0       0x1c build/py/modbuiltins.o
 .text.mp_builtin_next
                0x00000000080177ec       0x1c build/py/modbuiltins.o
 .text.mp_builtin_pow
                0x0000000008017808       0x24 build/py/modbuiltins.o
 .text.mp_builtin___repl_print__
                0x000000000801782c       0x50 build/py/modbuiltins.o
 .text.gc_disable
                0x000000000801787c       0x18 build/py/modgc.o
 .text.gc_enable
                0x0000000008017894       0x18 build/py/modgc.o
 .text.gc_isenabled
                0x00000000080178ac       0x24 build/py/modgc.o
 .text.py_gc_collect
                0x00000000080178d0       0x1c build/py/modgc.o
 .text.gc_mem_free
                0x00000000080178ec       0x18 build/py/modgc.o
 .text.gc_mem_alloc
                0x0000000008017904       0x18 build/py/modgc.o
 .text.gc_threshold
                0x000000000801791c       0x50 build/py/modgc.o
 .text.resource_stream
                0x000000000801796c       0xdc build/py/modio.o
 .text.fabs_funcf
                0x0000000008017a48        0x8 build/py/modmath.o
 .text.log2f    0x0000000008017a50       0x14 build/py/modmath.o
                0x0000000008017a50                log2f
 .text.mp_math_isnan
                0x0000000008017a64       0x20 build/py/modmath.o
 .text.mp_math_isfinite
                0x0000000008017a84       0x38 build/py/modmath.o
 .text.mp_math_isinf
                0x0000000008017abc       0x38 build/py/modmath.o
 .text.mp_math_degrees
                0x0000000008017af4       0x18 build/py/modmath.o
 .text.mp_math_radians
                0x0000000008017b0c       0x18 build/py/modmath.o
 .text.mp_math_trunc
                0x0000000008017b24       0x10 build/py/modmath.o
 .text.mp_math_modf
                0x0000000008017b34       0x2c build/py/modmath.o
 .text.mp_math_ldexp
                0x0000000008017b60       0x20 build/py/modmath.o
 .text.mp_math_frexp
                0x0000000008017b80       0x2c build/py/modmath.o
 .text.mp_math_floor
                0x0000000008017bac       0x10 build/py/modmath.o
 .text.copysign_funcf
                0x0000000008017bbc        0xc build/py/modmath.o
 .text.mp_math_ceil
                0x0000000008017bc8       0x10 build/py/modmath.o
 .text.math_generic_1
                0x0000000008017bd8       0x74 build/py/modmath.o
 .text.mp_math_lgamma
                0x0000000008017c4c       0x10 build/py/modmath.o
 .text.mp_math_gamma
                0x0000000008017c5c       0x10 build/py/modmath.o
 .text.mp_math_erfc
                0x0000000008017c6c       0x10 build/py/modmath.o
 .text.mp_math_erf
                0x0000000008017c7c       0x10 build/py/modmath.o
 .text.mp_math_fabs
                0x0000000008017c8c       0x10 build/py/modmath.o
 .text.mp_math_atan
                0x0000000008017c9c       0x10 build/py/modmath.o
 .text.mp_math_asin
                0x0000000008017cac       0x10 build/py/modmath.o
 .text.mp_math_acos
                0x0000000008017cbc       0x10 build/py/modmath.o
 .text.mp_math_tan
                0x0000000008017ccc       0x10 build/py/modmath.o
 .text.mp_math_sin
                0x0000000008017cdc       0x10 build/py/modmath.o
 .text.mp_math_cos
                0x0000000008017cec       0x10 build/py/modmath.o
 .text.mp_math_atanh
                0x0000000008017cfc       0x10 build/py/modmath.o
 .text.mp_math_asinh
                0x0000000008017d0c       0x10 build/py/modmath.o
 .text.mp_math_acosh
                0x0000000008017d1c       0x10 build/py/modmath.o
 .text.mp_math_tanh
                0x0000000008017d2c       0x10 build/py/modmath.o
 .text.mp_math_sinh
                0x0000000008017d3c       0x10 build/py/modmath.o
 .text.mp_math_cosh
                0x0000000008017d4c       0x10 build/py/modmath.o
 .text.mp_math_log10
                0x0000000008017d5c       0x10 build/py/modmath.o
 .text.mp_math_log2
                0x0000000008017d6c       0x10 build/py/modmath.o
 .text.mp_math_expm1
                0x0000000008017d7c       0x10 build/py/modmath.o
 .text.mp_math_exp
                0x0000000008017d8c       0x10 build/py/modmath.o
 .text.mp_math_sqrt
                0x0000000008017d9c       0x10 build/py/modmath.o
 .text.math_generic_2
                0x0000000008017dac       0x8c build/py/modmath.o
 .text.mp_math_fmod
                0x0000000008017e38       0x10 build/py/modmath.o
 .text.mp_math_copysign
                0x0000000008017e48       0x10 build/py/modmath.o
 .text.mp_math_atan2
                0x0000000008017e58       0x10 build/py/modmath.o
 .text.mp_math_pow
                0x0000000008017e68       0x10 build/py/modmath.o
 .text.mp_math_log
                0x0000000008017e78       0x78 build/py/modmath.o
 .text.mp_cmath_sin
                0x0000000008017ef0       0x48 build/py/modcmath.o
 .text.mp_cmath_cos
                0x0000000008017f38       0x4c build/py/modcmath.o
 .text.mp_cmath_sqrt
                0x0000000008017f84       0x6c build/py/modcmath.o
 .text.mp_cmath_log10
                0x0000000008017ff0       0x58 build/py/modcmath.o
 .text.mp_cmath_log
                0x0000000008018048       0x4c build/py/modcmath.o
 .text.mp_cmath_exp
                0x0000000008018094       0x40 build/py/modcmath.o
 .text.mp_cmath_rect
                0x00000000080180d4       0x38 build/py/modcmath.o
 .text.mp_cmath_phase
                0x000000000801810c       0x1c build/py/modcmath.o
 .text.mp_cmath_polar
                0x0000000008018128       0x4c build/py/modcmath.o
 .text.mp_micropython_pystack_use
                0x0000000008018174       0x14 build/py/modmicropython.o
 .text.mp_micropython_mem_total
                0x0000000008018188       0x10 build/py/modmicropython.o
 .text.mp_micropython_mem_current
                0x0000000008018198       0x10 build/py/modmicropython.o
 .text.mp_micropython_mem_peak
                0x00000000080181a8       0x10 build/py/modmicropython.o
 .text.mp_micropython_stack_use
                0x00000000080181b8       0x10 build/py/modmicropython.o
 .text.mp_micropython_mem_info
                0x00000000080181c8       0x60 build/py/modmicropython.o
                0x00000000080181c8                mp_micropython_mem_info
 .text.mp_micropython_kbd_intr
                0x0000000008018228       0x14 build/py/modmicropython.o
 .text.mp_micropython_heap_unlock
                0x000000000801823c       0x10 build/py/modmicropython.o
 .text.mp_micropython_heap_lock
                0x000000000801824c       0x10 build/py/modmicropython.o
 .text.mp_micropython_qstr_info
                0x000000000801825c       0x44 build/py/modmicropython.o
 .text.mp_micropython_schedule
                0x00000000080182a0       0x24 build/py/modmicropython.o
 .text.mp_micropython_opt_level
                0x00000000080182c4       0x34 build/py/modmicropython.o
 .text.get_fmt_num
                0x00000000080182f8       0x2c build/py/modstruct.o
 .text.calc_size_items
                0x0000000008018324       0xac build/py/modstruct.o
 .text.struct_calcsize
                0x00000000080183d0       0x1c build/py/modstruct.o
 .text.struct_unpack_from
                0x00000000080183ec      0x12c build/py/modstruct.o
 .text.struct_pack_into_internal
                0x0000000008018518      0x100 build/py/modstruct.o
 .text.struct_pack
                0x0000000008018618       0x4c build/py/modstruct.o
 .text.struct_pack_into
                0x0000000008018664       0x58 build/py/modstruct.o
 .text.mp_sys_exit
                0x00000000080186bc       0x20 build/py/modsys.o
 .text.mp_sys_print_exception
                0x00000000080186dc       0x38 build/py/modsys.o
 .text.mp_sys_exc_info
                0x0000000008018714       0x3c build/py/modsys.o
 .text.mp_sys_getsizeof
                0x0000000008018750        0xc build/py/modsys.o
 .text.mp_errno_to_str
                0x000000000801875c       0x20 build/py/moduerrno.o
                0x000000000801875c                mp_errno_to_str
 .text.mp_execute_bytecode
                0x000000000801877c     0x12e4 build/py/vm.o
                0x000000000801877c                mp_execute_bytecode
 .text.unlikely.fun_pos_args_mismatch
                0x0000000008019a60       0x28 build/py/bc.o
 .text.mp_decode_uint
                0x0000000008019a88       0x20 build/py/bc.o
                0x0000000008019a88                mp_decode_uint
 .text.mp_decode_uint_value
                0x0000000008019aa8       0x1c build/py/bc.o
                0x0000000008019aa8                mp_decode_uint_value
 .text.mp_decode_uint_skip
                0x0000000008019ac4        0xc build/py/bc.o
                0x0000000008019ac4                mp_decode_uint_skip
 .text.mp_setup_code_state
                0x0000000008019ad0      0x3c0 build/py/bc.o
                0x0000000008019ad0                mp_setup_code_state
 .text.mp_opcode_format
                0x0000000008019e90       0x68 build/py/bc.o
                0x0000000008019e90                mp_opcode_format
 .text.str_startswith_word
                0x0000000008019ef8       0x44 build/py/repl.o
 .text.mp_repl_continue_with_input
                0x0000000008019f3c      0x220 build/py/repl.o
                0x0000000008019f3c                mp_repl_continue_with_input
 .text.mp_repl_autocomplete
                0x000000000801a15c      0x294 build/py/repl.o
                0x000000000801a15c                mp_repl_autocomplete
 .text.mp_small_int_mul_overflow
                0x000000000801a3f0       0x64 build/py/smallint.o
                0x000000000801a3f0                mp_small_int_mul_overflow
 .text.mp_small_int_modulo
                0x000000000801a454       0x20 build/py/smallint.o
                0x000000000801a454                mp_small_int_modulo
 .text.mp_small_int_floor_divide
                0x000000000801a474       0x20 build/py/smallint.o
                0x000000000801a474                mp_small_int_floor_divide
 .text.mp_frozen_stat_helper
                0x000000000801a494       0x50 build/py/frozenmod.o
 .text.mp_find_frozen_str
                0x000000000801a4e4       0x80 build/py/frozenmod.o
                0x000000000801a4e4                mp_find_frozen_str
 .text.mp_frozen_stat
                0x000000000801a564       0x24 build/py/frozenmod.o
                0x000000000801a564                mp_frozen_stat
 .text.mp_find_frozen_module
                0x000000000801a588       0x94 build/py/frozenmod.o
                0x000000000801a588                mp_find_frozen_module
 .text.uctypes_struct_addressof
                0x000000000801a61c       0x18 build/extmod/moductypes.o
 .text.uctypes_struct_bytearray_at
                0x000000000801a634       0x1c build/extmod/moductypes.o
 .text.uctypes_struct_bytes_at
                0x000000000801a650       0x1c build/extmod/moductypes.o
 .text.get_aligned
                0x000000000801a66c       0x90 build/extmod/moductypes.o
 .text.uctypes_struct_make_new
                0x000000000801a6fc       0x44 build/extmod/moductypes.o
 .text.uctypes_struct_print
                0x000000000801a740       0x68 build/extmod/moductypes.o
 .text.set_aligned
                0x000000000801a7a8       0x70 build/extmod/moductypes.o
 .text.uctypes_struct_size
                0x000000000801a818      0x118 build/extmod/moductypes.o
 .text.uctypes_struct_sizeof
                0x000000000801a930       0x44 build/extmod/moductypes.o
 .text.uctypes_struct_agg_size
                0x000000000801a974       0x54 build/extmod/moductypes.o
 .text.uctypes_get_buffer
                0x000000000801a9c8       0x28 build/extmod/moductypes.o
 .text.uctypes_struct_subscr
                0x000000000801a9f0      0x150 build/extmod/moductypes.o
 .text.uctypes_struct_attr_op
                0x000000000801ab40      0x250 build/extmod/moductypes.o
 .text.uctypes_struct_attr
                0x000000000801ad90       0x24 build/extmod/moductypes.o
 .text.ujson_stream_next
                0x000000000801adb4       0x30 build/extmod/modujson.o
 .text.mod_ujson_load
                0x000000000801ade4      0x3dc build/extmod/modujson.o
 .text.mod_ujson_loads
                0x000000000801b1c0       0x38 build/extmod/modujson.o
 .text.mod_ujson_dump
                0x000000000801b1f8       0x30 build/extmod/modujson.o
 .text.mod_ujson_dumps
                0x000000000801b228       0x2c build/extmod/modujson.o
 .text.match_print
                0x000000000801b254       0x10 build/extmod/modure.o
 .text.re_print
                0x000000000801b264       0x10 build/extmod/modure.o
 .text._compilecode
                0x000000000801b274      0x4d4 build/extmod/modure.o
 .text.match_group
                0x000000000801b748       0x4c build/extmod/modure.o
 .text.match_groups
                0x000000000801b794       0x4c build/extmod/modure.o
 .text.match_span_helper
                0x000000000801b7e0       0x64 build/extmod/modure.o
 .text.match_span
                0x000000000801b844       0x18 build/extmod/modure.o
 .text.match_start
                0x000000000801b85c       0x10 build/extmod/modure.o
 .text.match_end
                0x000000000801b86c       0x10 build/extmod/modure.o
 .text.re1_5_sizecode
                0x000000000801b87c       0x30 build/extmod/modure.o
                0x000000000801b87c                re1_5_sizecode
 .text.re1_5_compilecode
                0x000000000801b8ac       0x58 build/extmod/modure.o
                0x000000000801b8ac                re1_5_compilecode
 .text.re1_5_dumpcode
                0x000000000801b904      0x188 build/extmod/modure.o
                0x000000000801b904                re1_5_dumpcode
 .text.mod_re_compile
                0x000000000801ba8c       0x68 build/extmod/modure.o
 .text._re1_5_namedclassmatch
                0x000000000801baf4       0x54 build/extmod/modure.o
                0x000000000801baf4                _re1_5_namedclassmatch
 .text.recursiveloop
                0x000000000801bb48      0x158 build/extmod/modure.o
 .text.ure_exec.isra.3
                0x000000000801bca0       0x9c build/extmod/modure.o
 .text.re_match
                0x000000000801bd3c        0xc build/extmod/modure.o
 .text.re_search
                0x000000000801bd48        0xc build/extmod/modure.o
 .text.mod_re_match
                0x000000000801bd54       0x20 build/extmod/modure.o
 .text.mod_re_search
                0x000000000801bd74       0x20 build/extmod/modure.o
 .text.re_split
                0x000000000801bd94       0xe8 build/extmod/modure.o
 .text.re_sub_helper
                0x000000000801be7c      0x1bc build/extmod/modure.o
 .text.re_sub   0x000000000801c038       0x10 build/extmod/modure.o
 .text.mod_re_sub
                0x000000000801c048       0x18 build/extmod/modure.o
 .text.tinf_build_tree
                0x000000000801c060       0x70 build/extmod/moduzlib.o
 .text.tinf_getbit
                0x000000000801c0d0       0x34 build/extmod/moduzlib.o
 .text.tinf_decode_symbol
                0x000000000801c104       0x34 build/extmod/moduzlib.o
 .text.tinf_decode_trees
                0x000000000801c138      0x220 build/extmod/moduzlib.o
 .text.read_src_stream
                0x000000000801c358       0x3c build/extmod/moduzlib.o
 .text.uzlib_uncompress
                0x000000000801c394      0x378 build/extmod/moduzlib.o
                0x000000000801c394                uzlib_uncompress
 .text.uzlib_zlib_parse_header
                0x000000000801c70c       0x64 build/extmod/moduzlib.o
                0x000000000801c70c                uzlib_zlib_parse_header
 .text.tinf_get_uint16
                0x000000000801c770       0x38 build/extmod/moduzlib.o
                0x000000000801c770                tinf_get_uint16
 .text.uzlib_gzip_parse_header
                0x000000000801c7a8      0x110 build/extmod/moduzlib.o
                0x000000000801c7a8                uzlib_gzip_parse_header
 .text.decompio_make_new
                0x000000000801c8b8       0xb8 build/extmod/moduzlib.o
 .text.uzlib_adler32
                0x000000000801c970      0x168 build/extmod/moduzlib.o
                0x000000000801c970                uzlib_adler32
 .text.uzlib_uncompress_chksum
                0x000000000801cad8       0xe8 build/extmod/moduzlib.o
                0x000000000801cad8                uzlib_uncompress_chksum
 .text.decompio_read
                0x000000000801cbc0       0x44 build/extmod/moduzlib.o
 .text.mod_uzlib_decompress
                0x000000000801cc04       0xd4 build/extmod/moduzlib.o
 .text.uzlib_crc32
                0x000000000801ccd8       0x3c build/extmod/moduzlib.o
                0x000000000801ccd8                uzlib_crc32
 .text.heap_siftdown.isra.0
                0x000000000801cd14       0x6c build/extmod/moduheapq.o
 .text.heap_siftup
                0x000000000801cd80       0xb0 build/extmod/moduheapq.o
 .text.mod_uheapq_heapify
                0x000000000801ce30       0x3c build/extmod/moduheapq.o
 .text.mod_uheapq_heappush
                0x000000000801ce6c       0x38 build/extmod/moduheapq.o
 .text.mod_uheapq_heappop
                0x000000000801cea4       0x58 build/extmod/moduheapq.o
 .text.utimeq_unary_op
                0x000000000801cefc       0x2c build/extmod/modutimeq.o
 .text.utimeq_make_new
                0x000000000801cf28       0x40 build/extmod/modutimeq.o
 .text.mod_utimeq_peektime
                0x000000000801cf68       0x28 build/extmod/modutimeq.o
 .text.heap_siftdown.constprop.4
                0x000000000801cf90       0xb4 build/extmod/modutimeq.o
 .text.mod_utimeq_heappop
                0x000000000801d044      0x154 build/extmod/modutimeq.o
 .text.mod_utimeq_heappush
                0x000000000801d198       0x54 build/extmod/modutimeq.o
 .text.sha256_transform
                0x000000000801d1ec      0x1cc build/extmod/moduhashlib.o
 .text.sha256_update
                0x000000000801d3b8       0x5c build/extmod/moduhashlib.o
                0x000000000801d3b8                sha256_update
 .text.uhashlib_sha256_update
                0x000000000801d414       0x24 build/extmod/moduhashlib.o
 .text.uhashlib_sha256_make_new
                0x000000000801d438       0x78 build/extmod/moduhashlib.o
 .text.sha256_final
                0x000000000801d4b0       0xd8 build/extmod/moduhashlib.o
                0x000000000801d4b0                sha256_final
 .text.uhashlib_sha256_digest
                0x000000000801d588       0x2c build/extmod/moduhashlib.o
 .text.mod_binascii_hexlify
                0x000000000801d5b4       0x94 build/extmod/modubinascii.o
                0x000000000801d5b4                mod_binascii_hexlify
 .text.mod_binascii_b2a_base64
                0x000000000801d648      0x10c build/extmod/modubinascii.o
                0x000000000801d648                mod_binascii_b2a_base64
 .text.mod_binascii_unhexlify
                0x000000000801d754       0x8c build/extmod/modubinascii.o
                0x000000000801d754                mod_binascii_unhexlify
 .text.mod_binascii_a2b_base64
                0x000000000801d7e0       0xd0 build/extmod/modubinascii.o
                0x000000000801d7e0                mod_binascii_a2b_base64
 .text.mod_binascii_crc32
                0x000000000801d8b0       0x38 build/extmod/modubinascii.o
                0x000000000801d8b0                mod_binascii_crc32
 .text.yasmarang
                0x000000000801d8e8       0x68 build/extmod/modurandom.o
 .text.mod_urandom_uniform
                0x000000000801d950       0x44 build/extmod/modurandom.o
 .text.mod_urandom_random
                0x000000000801d994       0x20 build/extmod/modurandom.o
 .text.mod_urandom_randint
                0x000000000801d9b4       0x48 build/extmod/modurandom.o
 .text.mod_urandom_randrange
                0x000000000801d9fc       0xdc build/extmod/modurandom.o
 .text.mod_urandom_seed
                0x000000000801dad8       0x34 build/extmod/modurandom.o
 .text.mod_urandom_getrandbits
                0x000000000801db0c       0x2c build/extmod/modurandom.o
 .text.mod_urandom_choice
                0x000000000801db38       0x50 build/extmod/modurandom.o
 .text.mp_vfs_proxy_call
                0x000000000801db88       0x40 build/extmod/vfs.o
 .text.mp_vfs_umount
                0x000000000801dbc8       0xb4 build/extmod/vfs.o
                0x000000000801dbc8                mp_vfs_umount
 .text.mp_vfs_getcwd
                0x000000000801dc7c       0x74 build/extmod/vfs.o
                0x000000000801dc7c                mp_vfs_getcwd
 .text.mp_vfs_ilistdir_it_iternext
                0x000000000801dcf0       0x8c build/extmod/vfs.o
 .text.mp_vfs_lookup_path
                0x000000000801dd7c       0xc4 build/extmod/vfs.o
                0x000000000801dd7c                mp_vfs_lookup_path
 .text.mp_vfs_mount
                0x000000000801de40       0xc4 build/extmod/vfs.o
                0x000000000801de40                mp_vfs_mount
 .text.lookup_path
                0x000000000801df04       0x3c build/extmod/vfs.o
 .text.mp_vfs_open
                0x000000000801df40       0x30 build/extmod/vfs.o
                0x000000000801df40                mp_vfs_open
 .text.mp_vfs_chdir
                0x000000000801df70       0x58 build/extmod/vfs.o
                0x000000000801df70                mp_vfs_chdir
 .text.mp_vfs_ilistdir
                0x000000000801dfc8       0x6c build/extmod/vfs.o
                0x000000000801dfc8                mp_vfs_ilistdir
 .text.mp_vfs_listdir
                0x000000000801e034       0x34 build/extmod/vfs.o
                0x000000000801e034                mp_vfs_listdir
 .text.mp_vfs_mkdir
                0x000000000801e068       0x40 build/extmod/vfs.o
                0x000000000801e068                mp_vfs_mkdir
 .text.mp_vfs_remove
                0x000000000801e0a8       0x1c build/extmod/vfs.o
                0x000000000801e0a8                mp_vfs_remove
 .text.mp_vfs_rename
                0x000000000801e0c4       0x34 build/extmod/vfs.o
                0x000000000801e0c4                mp_vfs_rename
 .text.mp_vfs_rmdir
                0x000000000801e0f8       0x1c build/extmod/vfs.o
                0x000000000801e0f8                mp_vfs_rmdir
 .text.mp_vfs_stat
                0x000000000801e114       0x44 build/extmod/vfs.o
                0x000000000801e114                mp_vfs_stat
 .text.mp_vfs_statvfs
                0x000000000801e158       0x68 build/extmod/vfs.o
                0x000000000801e158                mp_vfs_statvfs
 .text.mp_vfs_import_stat
                0x000000000801e1c0       0x80 build/extmod/vfs.o
                0x000000000801e1c0                mp_vfs_import_stat
 .text.mp_reader_vfs_close
                0x000000000801e240       0x18 build/extmod/vfs_reader.o
 .text.mp_reader_vfs_readbyte
                0x000000000801e258       0x54 build/extmod/vfs_reader.o
 .text.mp_reader_new_file
                0x000000000801e2ac       0x68 build/extmod/vfs_reader.o
                0x000000000801e2ac                mp_reader_new_file
 .text.time_ticks_diff
                0x000000000801e314       0x20 build/extmod/utime_mphal.o
 .text.time_sleep
                0x000000000801e334       0x20 build/extmod/utime_mphal.o
 .text.time_sleep_ms
                0x000000000801e354       0x18 build/extmod/utime_mphal.o
 .text.time_ticks_add
                0x000000000801e36c       0x20 build/extmod/utime_mphal.o
 .text.time_sleep_us
                0x000000000801e38c       0x18 build/extmod/utime_mphal.o
 .text.time_ticks_ms
                0x000000000801e3a4       0x18 build/extmod/utime_mphal.o
 .text.time_ticks_us
                0x000000000801e3bc       0x18 build/extmod/utime_mphal.o
 .text.time_ticks_cpu
                0x000000000801e3d4       0x18 build/extmod/utime_mphal.o
 .text.strn_print_strn
                0x000000000801e3ec       0x24 build/lib/utils/printf.o
 .text.printf   0x000000000801e410       0x20 build/lib/utils/printf.o
                0x000000000801e410                printf
 .text.putchar  0x000000000801e430       0x18 build/lib/utils/printf.o
                0x000000000801e430                putchar
 .text.puts     0x000000000801e448       0x28 build/lib/utils/printf.o
                0x000000000801e448                puts
 .text.vsnprintf
                0x000000000801e470       0x3c build/lib/utils/printf.o
                0x000000000801e470                __GI_vsnprintf
                0x000000000801e470                vsnprintf
 .text.snprintf
                0x000000000801e4ac       0x18 build/lib/utils/printf.o
                0x000000000801e4ac                snprintf
 .text.do_frozen
                0x000000000801e4c4       0x34 build/main.o
                0x000000000801e4c4                do_frozen
 .text.startup.main
                0x000000000801e4f8      0x128 build/main.o
                0x000000000801e4f8                main
 .text._start   0x000000000801e620        0xc build/machine.o
                0x000000000801e620                _start
 .text.Reset_Handler
                0x000000000801e62c       0x98 build/machine.o
                0x000000000801e62c                Reset_Handler
 .text.__fatal_error
                0x000000000801e6c4       0x1c build/machine.o
                0x000000000801e6c4                __fatal_error
 .text.Call_Handler
                0x000000000801e6e0       0x80 build/machine.o
                0x000000000801e6e0                Call_Handler
 .text.nlr_jump_fail
                0x000000000801e760        0xc build/machine.o
                0x000000000801e760                nlr_jump_fail
 .text.mp_hal_stdio_tx_strn
                0x000000000801e76c       0x30 build/mphalport.o
                0x000000000801e76c                mp_hal_stdio_tx_strn
 .text.mp_hal_stdin_rx_chr
                0x000000000801e79c       0x28 build/mphalport.o
                0x000000000801e79c                mp_hal_stdin_rx_chr
 .text.mp_hal_stdout_tx_str
                0x000000000801e7c4       0x20 build/mphalport.o
                0x000000000801e7c4                mp_hal_stdout_tx_str
 .text.mp_hal_stdout_tx_strn
                0x000000000801e7e4       0x1c build/mphalport.o
                0x000000000801e7e4                mp_hal_stdout_tx_strn
 .text.mp_hal_stdout_tx_strn_cooked
                0x000000000801e800        0x8 build/mphalport.o
                0x000000000801e800                mp_hal_stdout_tx_strn_cooked
 .text.mp_hal_delay_ms
                0x000000000801e808       0x7c build/mphalport.o
                0x000000000801e808                mp_hal_delay_ms
 .text.mp_hal_delay_us
                0x000000000801e884       0x38 build/mphalport.o
                0x000000000801e884                mp_hal_delay_us
 .text.mp_hal_ticks_ms
                0x000000000801e8bc       0x10 build/mphalport.o
                0x000000000801e8bc                mp_hal_ticks_ms
 .text.mp_hal_ticks_us
                0x000000000801e8cc       0x10 build/mphalport.o
                0x000000000801e8cc                mp_hal_ticks_us
 .text.mp_hal_ticks_cpu
                0x000000000801e8dc       0x10 build/mphalport.o
                0x000000000801e8dc                mp_hal_ticks_cpu
 .text.machine_hook_signal
                0x000000000801e8ec       0x10 build/modmachine.o
 .text.machine_hook_stdin
                0x000000000801e8fc       0x10 build/modmachine.o
 .text.machine_hook_stdout
                0x000000000801e90c       0x10 build/modmachine.o
 .text.machine_hook_stderr
                0x000000000801e91c       0x10 build/modmachine.o
 .text.machine_debug
                0x000000000801e92c       0x28 build/modmachine.o
                0x000000000801e92c                machine_debug
 .text.ucode_repl_input
                0x000000000801e954       0x68 build/moducode.o
 .text.ucode_repl_compile
                0x000000000801e9bc       0x80 build/moducode.o
 .text.ucode_repl_call
                0x000000000801ea3c       0x58 build/moducode.o
 .text.ucomponent_get_type
                0x000000000801ea94       0x2c build/moducomponent.o
 .text.ucomponent_get_slot
                0x000000000801eac0       0x2c build/moducomponent.o
 .text.ucomponent_get_methods
                0x000000000801eaec       0x2c build/moducomponent.o
 .text.ucomponent_get_doc
                0x000000000801eb18       0x2c build/moducomponent.o
 .text.ucomponent_invoke
                0x000000000801eb44       0x58 build/moducomponent.o
 .text.ucomponent_get_list
                0x000000000801eb9c       0x40 build/moducomponent.o
 .text.ucomputer_shutdown
                0x000000000801ebdc       0x1c build/moducomputer.o
 .text.ucomputer_reboot
                0x000000000801ebf8       0x1c build/moducomputer.o
 .text.ucomputer_crash
                0x000000000801ec14       0x28 build/moducomputer.o
 .text.ucomputer_push_signal
                0x000000000801ec3c       0x28 build/moducomputer.o
 .text.ucomputer_get_last_error
                0x000000000801ec64       0x18 build/moducomputer.o
 .text.ucomputer_get_users
                0x000000000801ec7c       0x18 build/moducomputer.o
 .text.ucomputer_add_user
                0x000000000801ec94       0x28 build/moducomputer.o
 .text.ucomputer_remove_user
                0x000000000801ecbc       0x28 build/moducomputer.o
 .text.ucomputer_get_computer_address
                0x000000000801ece4       0x18 build/moducomputer.o
 .text.ucomputer_get_tmp_address
                0x000000000801ecfc       0x18 build/moducomputer.o
 .text.ucomputer_get_energy
                0x000000000801ed14       0x18 build/moducomputer.o
 .text.ucomputer_get_max_energy
                0x000000000801ed2c       0x18 build/moducomputer.o
 .text.ucomputer_get_architectures
                0x000000000801ed44       0x18 build/moducomputer.o
 .text.ucomputer_get_architecture
                0x000000000801ed5c       0x18 build/moducomputer.o
 .text.ucomputer_set_architecture
                0x000000000801ed74       0x28 build/moducomputer.o
 .text.ucomputer_pop_signal
                0x000000000801ed9c       0x1c build/moducomputer.o
 .text.ucomputer_beep
                0x000000000801edb8       0x60 build/moducomputer.o
 .text.uimp_new_module
                0x000000000801ee18       0x1c build/moduimp.o
 .text.utime_time_real
                0x000000000801ee34       0x18 build/modutime.o
 .text.utime_time_world
                0x000000000801ee4c       0x18 build/modutime.o
 .text.utime_time_up
                0x000000000801ee64       0x18 build/modutime.o
 .text.utime_time_cpu
                0x000000000801ee7c       0x18 build/modutime.o
 .text.umsgpack_dumps
                0x000000000801ee94       0x18 build/modumsgpack.o
                0x000000000801ee94                umsgpack_dumps
 .text.umsgpack_loads
                0x000000000801eeac       0x18 build/modumsgpack.o
                0x000000000801eeac                umsgpack_loads
 .text.uvalue_hook_value
                0x000000000801eec4       0x10 build/moduvalue.o
 .text.uvalue_print
                0x000000000801eed4       0x10 build/moduvalue.o
 .text._uvalue__syscall
                0x000000000801eee4       0x20 build/moduvalue.o
 .text.uvalue_invoke
                0x000000000801ef04       0x44 build/moduvalue.o
 .text.uvalue_call
                0x000000000801ef48       0x14 build/moduvalue.o
 .text.uvalue_apply
                0x000000000801ef5c        0x8 build/moduvalue.o
 .text.uvalue_unapply
                0x000000000801ef64        0x8 build/moduvalue.o
 .text.uvalue_methods
                0x000000000801ef6c       0x2c build/moduvalue.o
 .text.uvalue_doc
                0x000000000801ef98       0x28 build/moduvalue.o
 .text.uvalue_dispose
                0x000000000801efc0       0x38 build/moduvalue.o
 .text.uvalue_attr
                0x000000000801eff8       0x4c build/moduvalue.o
 .text.oc_create_value
                0x000000000801f044       0x34 build/moduvalue.o
                0x000000000801f044                oc_create_value
 .text.gc_collect
                0x000000000801f078       0x24 build/gccollect.o
                0x000000000801f078                gc_collect
 .text.vfs_openpython_file___exit__
                0x000000000801f09c        0xc build/openpython_vfs.o
 .text.vfs_openpython_file_print
                0x000000000801f0a8       0x20 build/openpython_vfs.o
 .text.unlikely.check_fd_is_open.isra.0.part.1
                0x000000000801f0c8       0x18 build/openpython_vfs.o
 .text.vfs_openpython_file_ioctl
                0x000000000801f0e0       0x98 build/openpython_vfs.o
 .text.vfs_openpython_file_write
                0x000000000801f178       0x38 build/openpython_vfs.o
 .text.vfs_openpython_file_read
                0x000000000801f1b0       0x3c build/openpython_vfs.o
 .text.vfs_openpython_file_fileno
                0x000000000801f1ec       0x14 build/openpython_vfs.o
 .text.mp_vfs_openpython_file_open
                0x000000000801f200       0x64 build/openpython_vfs.o
                0x000000000801f200                mp_vfs_openpython_file_open
 .text.vfs_openpython_file_make_new
                0x000000000801f264       0x30 build/openpython_vfs.o
 .text.msgpack_loads
                0x000000000801f294       0x40 build/msgpack.o
                0x000000000801f294                msgpack_loads
 .text.msgpack_load
                0x000000000801f2d4      0x154 build/msgpack.o
                0x000000000801f2d4                msgpack_load
 .text.msgpack_dump_close
                0x000000000801f428       0x18 build/msgpack.o
                0x000000000801f428                msgpack_dump_close
 .text.msgpack_dumps
                0x000000000801f440       0x3c build/msgpack.o
                0x000000000801f440                msgpack_dumps
 .text.msgpack_dump
                0x000000000801f47c      0x190 build/msgpack.o
                0x000000000801f47c                msgpack_dump
 .text.msgpack_args_dumps
                0x000000000801f60c       0x5c build/msgpack.o
                0x000000000801f60c                msgpack_args_dumps
 .text.wrap_result
                0x000000000801f668       0x6c build/syscall.o
                0x000000000801f668                wrap_result
 .text          0x000000000801f6d4       0x24 build/gchelper_m0.o
                0x000000000801f6d4                gc_helper_get_regs_and_sp
 .text.mpack_utf8_check_impl
                0x000000000801f6f8      0x150 build/lib/mpack/mpack-common.o
 .text.mpack_utf8_check
                0x000000000801f848        0xc build/lib/mpack/mpack-common.o
                0x000000000801f848                mpack_utf8_check
 .text.mpack_memmove
                0x000000000801f854       0x30 build/lib/mpack/mpack-platform.o
                0x000000000801f854                mpack_memmove
 .text.mpack_reader_flag_error.part.13
                0x000000000801f884       0x14 build/lib/mpack/mpack-reader.o
 .text.mpack_fill_range
                0x000000000801f898       0x50 build/lib/mpack/mpack-reader.o
 .text.mpack_reader_init_data
                0x000000000801f8e8       0x18 build/lib/mpack/mpack-reader.o
                0x000000000801f8e8                mpack_reader_init_data
 .text.mpack_reader_remaining
                0x000000000801f900       0x1c build/lib/mpack/mpack-reader.o
                0x000000000801f900                mpack_reader_remaining
 .text.mpack_reader_ensure_straddle
                0x000000000801f91c       0x68 build/lib/mpack/mpack-reader.o
                0x000000000801f91c                mpack_reader_ensure_straddle
 .text.mpack_parse_tag.constprop.18
                0x000000000801f984      0x90c build/lib/mpack/mpack-reader.o
 .text.mpack_read_bytes_inplace
                0x0000000008020290       0x30 build/lib/mpack/mpack-reader.o
                0x0000000008020290                mpack_read_bytes_inplace
 .text.mpack_read_utf8_inplace
                0x00000000080202c0       0x5c build/lib/mpack/mpack-reader.o
                0x00000000080202c0                mpack_read_utf8_inplace
 .text.mpack_read_tag
                0x000000000802031c       0x54 build/lib/mpack/mpack-reader.o
                0x000000000802031c                mpack_read_tag
 .text.mpack_writer_flag_error.part.14
                0x0000000008020370       0x10 build/lib/mpack/mpack-writer.o
 .text.mpack_growable_writer_teardown
                0x0000000008020380       0x74 build/lib/mpack/mpack-writer.o
 .text.mpack_growable_writer_flush
                0x00000000080203f4       0x7c build/lib/mpack/mpack-writer.o
 .text.mpack_writer_ensure
                0x0000000008020470       0x44 build/lib/mpack/mpack-writer.o
 .text.mpack_start_bin_notrack
                0x00000000080204b4       0x8c build/lib/mpack/mpack-writer.o
 .text.mpack_write_native_straddle
                0x0000000008020540       0x58 build/lib/mpack/mpack-writer.o
 .text.mpack_writer_init_growable
                0x0000000008020598       0x58 build/lib/mpack/mpack-writer.o
                0x0000000008020598                mpack_writer_init_growable
 .text.mpack_writer_destroy
                0x00000000080205f0       0x30 build/lib/mpack/mpack-writer.o
                0x00000000080205f0                mpack_writer_destroy
 .text.mpack_write_nil
                0x0000000008020620       0x24 build/lib/mpack/mpack-writer.o
                0x0000000008020620                mpack_write_nil
 .text.mpack_write_bool
                0x0000000008020644       0x2c build/lib/mpack/mpack-writer.o
                0x0000000008020644                mpack_write_bool
 .text.mpack_write_i64
                0x0000000008020670      0x1ec build/lib/mpack/mpack-writer.o
                0x0000000008020670                mpack_write_i64
 .text.mpack_write_float
                0x000000000802085c       0x3c build/lib/mpack/mpack-writer.o
                0x000000000802085c                mpack_write_float
 .text.mpack_start_array
                0x0000000008020898       0x90 build/lib/mpack/mpack-writer.o
                0x0000000008020898                mpack_start_array
 .text.mpack_start_map
                0x0000000008020928       0x90 build/lib/mpack/mpack-writer.o
                0x0000000008020928                mpack_start_map
 .text.mpack_start_ext
                0x00000000080209b8      0x12c build/lib/mpack/mpack-writer.o
                0x00000000080209b8                mpack_start_ext
 .text.mpack_write_str
                0x0000000008020ae4      0x108 build/lib/mpack/mpack-writer.o
                0x0000000008020ae4                mpack_write_str
 .text.mpack_write_bin
                0x0000000008020bec       0x34 build/lib/mpack/mpack-writer.o
                0x0000000008020bec                mpack_write_bin
 .text.mpack_write_ext
                0x0000000008020c20       0x34 build/lib/mpack/mpack-writer.o
                0x0000000008020c20                mpack_write_ext
 .text.stdio_obj___exit__
                0x0000000008020c54        0x8 build/lib/utils/sys_stdio_mphal.o
 .text.stdio_obj_print
                0x0000000008020c5c       0x10 build/lib/utils/sys_stdio_mphal.o
                0x0000000008020c5c                stdio_obj_print
 .text.stdio_buffer_write
                0x0000000008020c6c       0x10 build/lib/utils/sys_stdio_mphal.o
 .text.stdio_buffer_read
                0x0000000008020c7c       0x1c build/lib/utils/sys_stdio_mphal.o
 .text.stdio_write
                0x0000000008020c98       0x24 build/lib/utils/sys_stdio_mphal.o
 .text.stdio_read
                0x0000000008020cbc       0x34 build/lib/utils/sys_stdio_mphal.o
 .text.mp_hal_set_interrupt_char
                0x0000000008020cf0       0x1c build/lib/utils/interrupt_char.o
                0x0000000008020cf0                mp_hal_set_interrupt_char
 .text.parse_compile_execute
                0x0000000008020d0c      0x168 build/lib/utils/pyexec.o
 .text.pyexec_raw_repl
                0x0000000008020e74       0xb8 build/lib/utils/pyexec.o
                0x0000000008020e74                pyexec_raw_repl
 .text.pyexec_friendly_repl
                0x0000000008020f2c      0x160 build/lib/utils/pyexec.o
                0x0000000008020f2c                pyexec_friendly_repl
 .text.memcpy   0x000000000802108c       0x4c build/lib/libc/string0.o
                0x000000000802108c                memcpy
 .text.memmove  0x00000000080210d8       0x28 build/lib/libc/string0.o
                0x00000000080210d8                memmove
 .text.memset   0x0000000008021100       0x48 build/lib/libc/string0.o
                0x0000000008021100                memset
 .text.memcmp   0x0000000008021148       0x28 build/lib/libc/string0.o
                0x0000000008021148                memcmp
 .text.strlen   0x0000000008021170       0x1c build/lib/libc/string0.o
                0x0000000008021170                strlen
 .text.strcmp   0x000000000802118c       0x2c build/lib/libc/string0.o
                0x000000000802118c                strcmp
 .text.strncmp  0x00000000080211b8       0x44 build/lib/libc/string0.o
                0x00000000080211b8                strncmp
 .text.strchr   0x00000000080211fc       0x28 build/lib/libc/string0.o
                0x00000000080211fc                strchr
 .text.mp_hal_move_cursor_back
                0x0000000008021224       0x38 build/lib/mp-readline/readline.o
 .text.readline_push_history
                0x000000000802125c       0x5c build/lib/mp-readline/readline.o
                0x000000000802125c                readline_push_history
 .text.readline_process_char
                0x00000000080212b8      0x2c4 build/lib/mp-readline/readline.o
                0x00000000080212b8                readline_process_char
 .text.readline
                0x000000000802157c       0x30 build/lib/mp-readline/readline.o
                0x000000000802157c                readline
 .text.scalbnf  0x00000000080215ac       0x64 build/lib/libm/math.o
                0x00000000080215ac                scalbnf
 .text.powf     0x0000000008021610      0x714 build/lib/libm/math.o
                0x0000000008021610                powf
 .text.expf     0x0000000008021d24      0x170 build/lib/libm/math.o
                0x0000000008021d24                expf
 .text.expm1f   0x0000000008021e94      0x2e0 build/lib/libm/math.o
                0x0000000008021e94                expm1f
 .text.tanhf    0x0000000008022174       0x58 build/lib/libm/math.o
                0x0000000008022174                tanhf
 .text.logf     0x00000000080221cc      0x16c build/lib/libm/math.o
                0x00000000080221cc                logf
 .text.log10f   0x0000000008022338       0x14 build/lib/libm/math.o
                0x0000000008022338                log10f
 .text.coshf    0x000000000802234c       0xac build/lib/libm/math.o
                0x000000000802234c                coshf
 .text.sinhf    0x00000000080223f8       0xc4 build/lib/libm/math.o
                0x00000000080223f8                sinhf
 .text.ceilf    0x00000000080224bc       0x60 build/lib/libm/math.o
                0x00000000080224bc                ceilf
 .text.floorf   0x000000000802251c       0x60 build/lib/libm/math.o
                0x000000000802251c                floorf
 .text.truncf   0x000000000802257c       0x3c build/lib/libm/math.o
                0x000000000802257c                truncf
 .text.acoshf   0x00000000080225b8       0xa0 build/lib/libm/acoshf.o
                0x00000000080225b8                acoshf
 .text.asinf    0x0000000008022658      0x14c build/lib/libm/asinfacosf.o
                0x0000000008022658                asinf
 .text.acosf    0x00000000080227a4      0x1d4 build/lib/libm/asinfacosf.o
                0x00000000080227a4                acosf
 .text.asinhf   0x0000000008022978       0xd0 build/lib/libm/asinhf.o
                0x0000000008022978                asinhf
 .text.atan2f   0x0000000008022a48      0x130 build/lib/libm/atan2f.o
                0x0000000008022a48                atan2f
 .text.atanf    0x0000000008022b78      0x23c build/lib/libm/atanf.o
                0x0000000008022b78                atanf
 .text.atanhf   0x0000000008022db4       0x94 build/lib/libm/atanhf.o
                0x0000000008022db4                atanhf
 .text.__ieee754_rem_pio2f
                0x0000000008022e48      0x300 build/lib/libm/ef_rem_pio2.o
                0x0000000008022e48                __ieee754_rem_pio2f
 .text.sqrtf    0x0000000008023148       0xb4 build/lib/libm/ef_sqrt.o
                0x0000000008023148                sqrtf
 .text.__ieee754_lgammaf_r
                0x00000000080231fc      0x80c build/lib/libm/erf_lgamma.o
                0x00000000080231fc                __ieee754_lgammaf_r
 .text.fmodf    0x0000000008023a08       0xdc build/lib/libm/fmodf.o
                0x0000000008023a08                fmodf
 .text.__kernel_cosf
                0x0000000008023ae4      0x194 build/lib/libm/kf_cos.o
                0x0000000008023ae4                __kernel_cosf
 .text.__kernel_rem_pio2f
                0x0000000008023c78      0x700 build/lib/libm/kf_rem_pio2.o
                0x0000000008023c78                __kernel_rem_pio2f
 .text.__kernel_sinf
                0x0000000008024378       0xf4 build/lib/libm/kf_sin.o
                0x0000000008024378                __kernel_sinf
 .text.__kernel_tanf
                0x000000000802446c      0x278 build/lib/libm/kf_tan.o
                0x000000000802446c                __kernel_tanf
 .text.log1pf   0x00000000080246e4      0x1dc build/lib/libm/log1pf.o
                0x00000000080246e4                log1pf
 .text.nearbyintf
                0x00000000080248c0       0x50 build/lib/libm/nearbyintf.o
                0x00000000080248c0                nearbyintf
 .text.cosf     0x0000000008024910       0x7c build/lib/libm/sf_cos.o
                0x0000000008024910                cosf
 .text.erff     0x000000000802498c      0x4e8 build/lib/libm/sf_erf.o
                0x000000000802498c                erff
 .text.erfcf    0x0000000008024e74      0x4e8 build/lib/libm/sf_erf.o
                0x0000000008024e74                erfcf
 .text.frexpf   0x000000000802535c       0x54 build/lib/libm/sf_frexp.o
                0x000000000802535c                frexpf
 .text.ldexpf   0x00000000080253b0       0x44 build/lib/libm/sf_ldexp.o
                0x00000000080253b0                ldexpf
 .text.modff    0x00000000080253f4       0x3c build/lib/libm/sf_modf.o
                0x00000000080253f4                modff
 .text.sinf     0x0000000008025430       0x7c build/lib/libm/sf_sin.o
                0x0000000008025430                sinf
 .text.tanf     0x00000000080254ac       0x4c build/lib/libm/sf_tan.o
                0x00000000080254ac                tanf
 .text.lgammaf  0x00000000080254f8       0x10 build/lib/libm/wf_lgamma.o
                0x00000000080254f8                lgammaf
 .text.tgammaf  0x0000000008025508       0x50 build/lib/libm/wf_tgamma.o
                0x0000000008025508                tgammaf
 .text          0x0000000008025558      0x114 /usr/bin/../lib/gcc/arm-none-eabi/7.3.1/thumb/v6-m/libgcc.a(_udivsi3.o)
                0x0000000008025558                __udivsi3
                0x0000000008025558                __aeabi_uidiv
                0x0000000008025664                __aeabi_uidivmod
 .text          0x000000000802566c      0x1d4 /usr/bin/../lib/gcc/arm-none-eabi/7.3.1/thumb/v6-m/libgcc.a(_divsi3.o)
                0x000000000802566c                __aeabi_idiv
                0x000000000802566c                __divsi3
                0x0000000008025838                __aeabi_idivmod
 .text          0x0000000008025840        0x4 /usr/bin/../lib/gcc/arm-none-eabi/7.3.1/thumb/v6-m/libgcc.a(_dvmd_tls.o)
                0x0000000008025840                __aeabi_ldiv0
                0x0000000008025840                __aeabi_idiv0
 .text          0x0000000008025844       0x74 /usr/bin/../lib/gcc/arm-none-eabi/7.3.1/thumb/v6-m/libgcc.a(_arm_cmpsf2.o)
                0x0000000008025844                __aeabi_cfrcmple
                0x000000000802584c                __aeabi_cfcmple
                0x000000000802584c                __aeabi_cfcmpeq
                0x000000000802585c                __aeabi_fcmpeq
                0x0000000008025868                __aeabi_fcmplt
                0x000000000802587c                __aeabi_fcmple
                0x0000000008025890                __aeabi_fcmpgt
                0x00000000080258a4                __aeabi_fcmpge
 .text          0x00000000080258b8       0x30 /usr/bin/../lib/gcc/arm-none-eabi/7.3.1/thumb/v6-m/libgcc.a(_fixunssfsi.o)
                0x00000000080258b8                __aeabi_f2uiz
                0x00000000080258b8                __fixunssfsi
 .text          0x00000000080258e8      0x334 /usr/bin/../lib/gcc/arm-none-eabi/7.3.1/thumb/v6-m/libgcc.a(addsf3.o)
                0x00000000080258e8                __aeabi_fadd
 .text          0x0000000008025c1c      0x224 /usr/bin/../lib/gcc/arm-none-eabi/7.3.1/thumb/v6-m/libgcc.a(divsf3.o)
                0x0000000008025c1c                __aeabi_fdiv
 .text          0x0000000008025e40       0x50 /usr/bin/../lib/gcc/arm-none-eabi/7.3.1/thumb/v6-m/libgcc.a(eqsf2.o)
                0x0000000008025e40                __nesf2
                0x0000000008025e40                __eqsf2
 .text          0x0000000008025e90       0x9c /usr/bin/../lib/gcc/arm-none-eabi/7.3.1/thumb/v6-m/libgcc.a(gesf2.o)
                0x0000000008025e90                __gtsf2
                0x0000000008025e90                __gesf2
 .text          0x0000000008025f2c       0xa0 /usr/bin/../lib/gcc/arm-none-eabi/7.3.1/thumb/v6-m/libgcc.a(lesf2.o)
                0x0000000008025f2c                __lesf2
                0x0000000008025f2c                __ltsf2
 .text          0x0000000008025fcc      0x264 /usr/bin/../lib/gcc/arm-none-eabi/7.3.1/thumb/v6-m/libgcc.a(mulsf3.o)
                0x0000000008025fcc                __aeabi_fmul
 .text          0x0000000008026230      0x388 /usr/bin/../lib/gcc/arm-none-eabi/7.3.1/thumb/v6-m/libgcc.a(subsf3.o)
                0x0000000008026230                __aeabi_fsub
 .text          0x00000000080265b8       0x2c /usr/bin/../lib/gcc/arm-none-eabi/7.3.1/thumb/v6-m/libgcc.a(unordsf2.o)
                0x00000000080265b8                __aeabi_fcmpun
 .text          0x00000000080265e4       0x40 /usr/bin/../lib/gcc/arm-none-eabi/7.3.1/thumb/v6-m/libgcc.a(fixsfsi.o)
                0x00000000080265e4                __aeabi_f2iz
 .text          0x0000000008026624       0x94 /usr/bin/../lib/gcc/arm-none-eabi/7.3.1/thumb/v6-m/libgcc.a(floatsisf.o)
                0x0000000008026624                __aeabi_i2f
 .text          0x00000000080266b8       0x80 /usr/bin/../lib/gcc/arm-none-eabi/7.3.1/thumb/v6-m/libgcc.a(floatunsisf.o)
                0x00000000080266b8                __aeabi_ui2f
 .text          0x0000000008026738       0x74 /usr/bin/../lib/gcc/arm-none-eabi/7.3.1/thumb/v6-m/libgcc.a(floatsidf.o)
                0x0000000008026738                __aeabi_i2d
 .text          0x00000000080267ac       0xa4 /usr/bin/../lib/gcc/arm-none-eabi/7.3.1/thumb/v6-m/libgcc.a(extendsfdf2.o)
                0x00000000080267ac                __aeabi_f2d
 .text          0x0000000008026850      0x108 /usr/bin/../lib/gcc/arm-none-eabi/7.3.1/thumb/v6-m/libgcc.a(truncdfsf2.o)
                0x0000000008026850                __aeabi_d2f
 .text          0x0000000008026958       0x3c /usr/bin/../lib/gcc/arm-none-eabi/7.3.1/thumb/v6-m/libgcc.a(_clzsi2.o)
                0x0000000008026958                __clzsi2
 *(.rodata*)
 .rodata.gc_dump_alloc_table.str1.4
                0x0000000008026994       0x43 build/py/gc.o
                                         0x46 (size before relaxing)
 *fill*         0x00000000080269d7        0x1 
 .rodata.gc_dump_info.str1.4
                0x00000000080269d8       0x69 build/py/gc.o
 *fill*         0x0000000008026a41        0x3 
 .rodata        0x0000000008026a44       0x62 build/py/qstr.o
 *fill*         0x0000000008026aa6        0x2 
 .rodata.mp_qstr_const_pool
                0x0000000008026aa8      0x980 build/py/qstr.o
                0x0000000008026aa8                mp_qstr_const_pool
 .rodata.qstr_dump_data.str1.4
                0x0000000008027428        0x7 build/py/qstr.o
 *fill*         0x000000000802742f        0x1 
 .rodata.str1.4
                0x0000000008027430     0x1de7 build/py/qstr.o
 *fill*         0x0000000008029217        0x1 
 .rodata.mp_vprintf
                0x0000000008029218       0xd0 build/py/mpprint.o
 .rodata.mp_plat_print
                0x00000000080292e8        0x8 build/py/mpprint.o
                0x00000000080292e8                mp_plat_print
 .rodata.mp_print_mp_int.str1.4
                0x00000000080292f0     0x1de7 build/py/mpprint.o
                                          0x1 (size before relaxing)
 .rodata.mp_vprintf.str1.4
                0x00000000080292f0        0xe build/py/mpprint.o
 *fill*         0x00000000080292fe        0x2 
 .rodata.pad_spaces
                0x0000000008029300       0x11 build/py/mpprint.o
 *fill*         0x0000000008029311        0x3 
 .rodata.pad_zeroes
                0x0000000008029314       0x11 build/py/mpprint.o
 *fill*         0x0000000008029325        0x3 
 .rodata.attr   0x0000000008029328       0x80 build/py/unicode.o
 .rodata.mp_lexer_to_next
                0x00000000080293a8      0x1bc build/py/lexer.o
 .rodata.mp_lexer_to_next.str1.4
                0x0000000008029564       0x61 build/py/lexer.o
 *fill*         0x00000000080295c5        0x3 
 .rodata.str1.4
                0x00000000080295c8       0xca build/py/lexer.o
                                         0xf6 (size before relaxing)
 *fill*         0x0000000008029692        0x2 
 .rodata.tok_enc_kind
                0x0000000008029694       0x2a build/py/lexer.o
 *fill*         0x00000000080296be        0x2 
 .rodata.tok_kw
                0x00000000080296c0       0x90 build/py/lexer.o
 .rodata.mp_constants_map
                0x0000000008029750        0xc build/py/parse.o
 .rodata.mp_constants_table
                0x000000000802975c       0x10 build/py/parse.o
 .rodata.mp_parse.str1.4
                0x000000000802976c       0x53 build/py/parse.o
 *fill*         0x00000000080297bf        0x1 
 .rodata.push_result_rule.str1.4
                0x00000000080297c0       0x1c build/py/parse.o
 .rodata.rule_act_table
                0x00000000080297dc       0xaf build/py/parse.o
 *fill*         0x000000000802988b        0x1 
 .rodata.rule_arg_combined_table
                0x000000000802988c      0x37a build/py/parse.o
 *fill*         0x0000000008029c06        0x2 
 .rodata.rule_arg_offset_table
                0x0000000008029c08       0xaf build/py/parse.o
 *fill*         0x0000000008029cb7        0x1 
 .rodata.token_to_op.8413
                0x0000000008029cb8        0xb build/py/parse.o
 *fill*         0x0000000008029cc3        0x1 
 .rodata.scope_simple_name_table
                0x0000000008029cc4        0x7 build/py/scope.o
 *fill*         0x0000000008029ccb        0x1 
 .rodata.CSWTCH.219
                0x0000000008029ccc        0x9 build/py/compile.o
 *fill*         0x0000000008029cd5        0x3 
 .rodata.CSWTCH.222
                0x0000000008029cd8        0xb build/py/compile.o
 *fill*         0x0000000008029ce3        0x1 
 .rodata.CSWTCH.227
                0x0000000008029ce4        0xc build/py/compile.o
 .rodata.c_assign.str1.4
                0x0000000008029cf0       0x1b build/py/compile.o
 *fill*         0x0000000008029d0b        0x1 
 .rodata.c_assign_tuple.str1.4
                0x0000000008029d0c       0x1a build/py/compile.o
 *fill*         0x0000000008029d26        0x2 
 .rodata.c_del_stmt.str1.4
                0x0000000008029d28       0x18 build/py/compile.o
 .rodata.compile_atom_brace.str1.4
                0x0000000008029d40       0x3f build/py/compile.o
 *fill*         0x0000000008029d7f        0x1 
 .rodata.compile_atom_expr_await.str1.4
                0x0000000008029d80       0x19 build/py/compile.o
 *fill*         0x0000000008029d99        0x3 
 .rodata.compile_atom_expr_normal.str1.4
                0x0000000008029d9c       0x18 build/py/compile.o
 .rodata.compile_break_cont_stmt.str1.4
                0x0000000008029db4       0x30 build/py/compile.o
 .rodata.compile_decorated.str1.4
                0x0000000008029de4       0x1e build/py/compile.o
 *fill*         0x0000000008029e02        0x2 
 .rodata.compile_funcdef_lambdef_param.str1.4
                0x0000000008029e04       0x2e build/py/compile.o
 *fill*         0x0000000008029e32        0x2 
 .rodata.compile_function
                0x0000000008029e34       0xe8 build/py/compile.o
 .rodata.compile_global_nonlocal_stmt.str1.4
                0x0000000008029f1c       0x89 build/py/compile.o
 *fill*         0x0000000008029fa5        0x3 
 .rodata.compile_return_stmt.str1.4
                0x0000000008029fa8       0x1a build/py/compile.o
 *fill*         0x0000000008029fc2        0x2 
 .rodata.compile_scope_func_lambda_param.isra.4.str1.4
                0x0000000008029fc4       0x15 build/py/compile.o
                                         0x25 (size before relaxing)
 *fill*         0x0000000008029fd9        0x3 
 .rodata.compile_star_expr.str1.4
                0x0000000008029fdc       0x1d build/py/compile.o
 *fill*         0x0000000008029ff9        0x3 
 .rodata.compile_trailer_paren_helper.str1.4
                0x0000000008029ffc       0x92 build/py/compile.o
 *fill*         0x000000000802a08e        0x2 
 .rodata.compile_try_except.str1.4
                0x000000000802a090       0x1e build/py/compile.o
 *fill*         0x000000000802a0ae        0x2 
 .rodata.compile_yield_expr.str1.4
                0x000000000802a0b0       0x19 build/py/compile.o
 *fill*         0x000000000802a0c9        0x3 
 .rodata.mp_emit_bc_method_table_delete_id_ops
                0x000000000802a0cc        0x8 build/py/emitbc.o
                0x000000000802a0cc                mp_emit_bc_method_table_delete_id_ops
 .rodata.mp_emit_bc_method_table_load_id_ops
                0x000000000802a0d4        0x8 build/py/emitbc.o
                0x000000000802a0d4                mp_emit_bc_method_table_load_id_ops
 .rodata.mp_emit_bc_method_table_store_id_ops
                0x000000000802a0dc        0x8 build/py/emitbc.o
                0x000000000802a0dc                mp_emit_bc_method_table_store_id_ops
 .rodata.g_neg_pow
                0x000000000802a0e4       0x18 build/py/formatfloat.o
 .rodata.g_pos_pow
                0x000000000802a0fc       0x18 build/py/formatfloat.o
 .rodata.mp_parse_num_decimal.str1.4
                0x000000000802a114       0x1a build/py/parsenum.o
 *fill*         0x000000000802a12e        0x2 
 .rodata.mp_parse_num_integer.str1.4
                0x000000000802a130       0x4e build/py/parsenum.o
 *fill*         0x000000000802a17e        0x2 
 .rodata.mp_raw_code_load.str1.4
                0x000000000802a180       0x17 build/py/persistentcode.o
 *fill*         0x000000000802a197        0x1 
 .rodata.mp_unary_op
                0x000000000802a198       0x20 build/py/runtime.o
 .rodata.mp_binary_op
                0x000000000802a1b8       0xb8 build/py/runtime.o
 .rodata.checked_fun_call.str1.4
                0x000000000802a270       0x25 build/py/runtime.o
 *fill*         0x000000000802a295        0x3 
 .rodata.m_malloc_fail.str1.4
                0x000000000802a298       0x5a build/py/runtime.o
 *fill*         0x000000000802a2f2        0x2 
 .rodata.mp_binary_op.str1.4
                0x000000000802a2f4       0x3d build/py/runtime.o
                                         0x4f (size before relaxing)
 *fill*         0x000000000802a331        0x3 
 .rodata.mp_call_function_n_kw.str1.4
                0x000000000802a334       0x1b build/py/runtime.o
 *fill*         0x000000000802a34f        0x1 
 .rodata.mp_getiter.str1.4
                0x000000000802a350       0x1b build/py/runtime.o
 *fill*         0x000000000802a36b        0x1 
 .rodata.mp_import_from.str1.4
                0x000000000802a36c       0x16 build/py/runtime.o
 *fill*         0x000000000802a382        0x2 
 .rodata.mp_iternext_allow_raise.str1.4
                0x000000000802a384       0x1e build/py/runtime.o
 *fill*         0x000000000802a3a2        0x2 
 .rodata.mp_load_global.str1.4
                0x000000000802a3a4       0x18 build/py/runtime.o
 .rodata.mp_load_method.str1.4
                0x000000000802a3bc       0x4a build/py/runtime.o
 *fill*         0x000000000802a406        0x2 
 .rodata.mp_make_raise_obj.str1.4
                0x000000000802a408       0x2a build/py/runtime.o
 *fill*         0x000000000802a432        0x2 
 .rodata.mp_module___main__
                0x000000000802a434        0x8 build/py/runtime.o
                0x000000000802a434                mp_module___main__
 .rodata.mp_type_checked_fun
                0x000000000802a43c       0x3c build/py/runtime.o
 .rodata.mp_unary_op.str1.4
                0x000000000802a478       0x1e build/py/runtime.o
 *fill*         0x000000000802a496        0x2 
 .rodata.mp_unpack_sequence.str1.4
                0x000000000802a498       0x4c build/py/runtime.o
 .rodata.mp_arg_check_num_sig.str1.4
                0x000000000802a4e4       0xc7 build/py/argcheck.o
 *fill*         0x000000000802a5ab        0x1 
 .rodata.mp_arg_error_unimpl_kw.str1.4
                0x000000000802a5ac       0x42 build/py/argcheck.o
 *fill*         0x000000000802a5ee        0x2 
 .rodata.mp_arg_parse_all.str1.4
                0x000000000802a5f0       0x5a build/py/argcheck.o
 *fill*         0x000000000802a64a        0x2 
 .rodata.mp_warning.str1.4
                0x000000000802a64c        0xa build/py/warning.o
                                          0xe (size before relaxing)
 *fill*         0x000000000802a656        0x2 
 .rodata.hash_allocation_sizes
                0x000000000802a658       0x44 build/py/map.o
 .rodata.mp_const_empty_map
                0x000000000802a69c        0xc build/py/map.o
                0x000000000802a69c                mp_const_empty_map
 .rodata.mp_get_buffer_raise.str1.4
                0x000000000802a6a8       0x25 build/py/obj.o
 *fill*         0x000000000802a6cd        0x3 
 .rodata.mp_get_index.str1.4
                0x000000000802a6d0       0x3a build/py/obj.o
 *fill*         0x000000000802a70a        0x2 
 .rodata.mp_identity_obj
                0x000000000802a70c        0x8 build/py/obj.o
                0x000000000802a70c                mp_identity_obj
 .rodata.mp_obj_equal.str1.4
                0x000000000802a714       0x21 build/py/obj.o
 *fill*         0x000000000802a735        0x3 
 .rodata.mp_obj_get_array.str1.4
                0x000000000802a738       0x22 build/py/obj.o
 *fill*         0x000000000802a75a        0x2 
 .rodata.mp_obj_get_array_fixed_n.str1.4
                0x000000000802a75c       0x2d build/py/obj.o
 *fill*         0x000000000802a789        0x3 
 .rodata.mp_obj_get_complex.str1.4
                0x000000000802a78c       0x1c build/py/obj.o
 .rodata.mp_obj_get_float.str1.4
                0x000000000802a7a8       0x1a build/py/obj.o
 *fill*         0x000000000802a7c2        0x2 
 .rodata.mp_obj_get_int.str1.4
                0x000000000802a7c4       0x18 build/py/obj.o
 .rodata.mp_obj_len.str1.4
                0x000000000802a7dc       0x21 build/py/obj.o
 *fill*         0x000000000802a7fd        0x3 
 .rodata.mp_obj_print_exception.str1.4
                0x000000000802a800       0x45 build/py/obj.o
                                         0x49 (size before relaxing)
 *fill*         0x000000000802a845        0x3 
 .rodata.mp_obj_print_helper.str1.4
                0x000000000802a848        0x5 build/py/obj.o
 *fill*         0x000000000802a84d        0x3 
 .rodata.mp_obj_subscr.str1.4
                0x000000000802a850       0x78 build/py/obj.o
 .rodata.array_append_obj
                0x000000000802a8c8        0x8 build/py/objarray.o
 .rodata.array_extend_obj
                0x000000000802a8d0        0x8 build/py/objarray.o
 .rodata.array_it_type
                0x000000000802a8d8       0x3c build/py/objarray.o
 .rodata.array_locals_dict
                0x000000000802a914       0x10 build/py/objarray.o
 .rodata.array_locals_dict_table
                0x000000000802a924       0x10 build/py/objarray.o
 .rodata.array_print.str1.4
                0x000000000802a934       0x23 build/py/objarray.o
                                         0x26 (size before relaxing)
 *fill*         0x000000000802a957        0x1 
 .rodata.array_subscr.str1.4
                0x000000000802a958       0x7b build/py/objarray.o
 *fill*         0x000000000802a9d3        0x1 
 .rodata.mp_type_array
                0x000000000802a9d4       0x3c build/py/objarray.o
                0x000000000802a9d4                mp_type_array
 .rodata.mp_type_bytearray
                0x000000000802aa10       0x3c build/py/objarray.o
                0x000000000802aa10                mp_type_bytearray
 .rodata.mp_type_memoryview
                0x000000000802aa4c       0x3c build/py/objarray.o
                0x000000000802aa4c                mp_type_memoryview
 .rodata.mp_obj_attrtuple_print_helper.str1.4
                0x000000000802aa88        0x8 build/py/objattrtuple.o
                                         0x10 (size before relaxing)
 .rodata.mp_type_attrtuple
                0x000000000802aa90       0x3c build/py/objattrtuple.o
                0x000000000802aa90                mp_type_attrtuple
 .rodata.bool_print.str1.4
                0x000000000802aacc       0x1e build/py/objbool.o
 .rodata.mp_const_false_obj
                0x000000000802aacc        0x8 build/py/objbool.o
                0x000000000802aacc                mp_const_false_obj
 .rodata.mp_const_true_obj
                0x000000000802aad4        0x8 build/py/objbool.o
                0x000000000802aad4                mp_const_true_obj
 .rodata.mp_type_bool
                0x000000000802aadc       0x3c build/py/objbool.o
                0x000000000802aadc                mp_type_bool
 .rodata.bound_meth_print.str1.4
                0x000000000802ab18       0x16 build/py/objboundmeth.o
                                         0x1a (size before relaxing)
 *fill*         0x000000000802ab2e        0x2 
 .rodata.mp_type_bound_meth
                0x000000000802ab30       0x3c build/py/objboundmeth.o
 .rodata.cell_print.str1.4
                0x000000000802ab6c       0x12 build/py/objcell.o
                                         0x16 (size before relaxing)
 *fill*         0x000000000802ab7e        0x2 
 .rodata.mp_type_cell
                0x000000000802ab80       0x3c build/py/objcell.o
 .rodata.closure_print.str1.4
                0x000000000802abbc       0x21 build/py/objclosure.o
                                         0x32 (size before relaxing)
 *fill*         0x000000000802abdd        0x3 
 .rodata.closure_type
                0x000000000802abe0       0x3c build/py/objclosure.o
                0x000000000802abe0                closure_type
 .rodata.complex_unary_op
                0x000000000802ac1c       0x20 build/py/objcomplex.o
 .rodata.mp_obj_complex_binary_op
                0x000000000802ac3c       0x84 build/py/objcomplex.o
 .rodata.complex_print.str1.4
                0x000000000802acc0       0x11 build/py/objcomplex.o
 *fill*         0x000000000802acd1        0x3 
 .rodata.mp_obj_complex_binary_op.str1.4
                0x000000000802acd4       0x57 build/py/objcomplex.o
 *fill*         0x000000000802ad2b        0x1 
 .rodata.mp_type_complex
                0x000000000802ad2c       0x3c build/py/objcomplex.o
                0x000000000802ad2c                mp_type_complex
 .rodata.deque_append_obj
                0x000000000802ad68        0x8 build/py/objdeque.o
 .rodata.deque_locals_dict
                0x000000000802ad70       0x10 build/py/objdeque.o
 .rodata.deque_locals_dict_table
                0x000000000802ad80       0x10 build/py/objdeque.o
 .rodata.deque_popleft.str1.4
                0x000000000802ad90        0x6 build/py/objdeque.o
 *fill*         0x000000000802ad96        0x2 
 .rodata.deque_popleft_obj
                0x000000000802ad98        0x8 build/py/objdeque.o
 .rodata.mp_obj_deque_append.str1.4
                0x000000000802ada0        0x5 build/py/objdeque.o
 *fill*         0x000000000802ada5        0x3 
 .rodata.mp_type_deque
                0x000000000802ada8       0x3c build/py/objdeque.o
                0x000000000802ada8                mp_type_deque
 .rodata.dict_clear_obj
                0x000000000802ade4        0x8 build/py/objdict.o
 .rodata.dict_copy_obj
                0x000000000802adec        0x8 build/py/objdict.o
 .rodata.dict_fromkeys_fun_obj
                0x000000000802adf4        0xc build/py/objdict.o
 .rodata.dict_fromkeys_obj
                0x000000000802ae00        0x8 build/py/objdict.o
 .rodata.dict_get_obj
                0x000000000802ae08        0xc build/py/objdict.o
 .rodata.dict_items_obj
                0x000000000802ae14        0x8 build/py/objdict.o
 .rodata.dict_keys_obj
                0x000000000802ae1c        0x8 build/py/objdict.o
 .rodata.dict_locals_dict
                0x000000000802ae24       0x10 build/py/objdict.o
 .rodata.dict_locals_dict_table
                0x000000000802ae34       0x70 build/py/objdict.o
 .rodata.dict_pop_obj
                0x000000000802aea4        0xc build/py/objdict.o
 .rodata.dict_popitem.str1.4
                0x000000000802aeb0       0x1f build/py/objdict.o
 *fill*         0x000000000802aecf        0x1 
 .rodata.dict_popitem_obj
                0x000000000802aed0        0x8 build/py/objdict.o
 .rodata.dict_print.str1.4
                0x000000000802aed8        0xe build/py/objdict.o
                                         0x12 (size before relaxing)
 *fill*         0x000000000802aee6        0x2 
 .rodata.dict_setdefault_obj
                0x000000000802aee8        0xc build/py/objdict.o
 .rodata.dict_update.str1.4
                0x000000000802aef4       0x26 build/py/objdict.o
 *fill*         0x000000000802af1a        0x2 
 .rodata.dict_update_obj
                0x000000000802af1c        0xc build/py/objdict.o
 .rodata.dict_values_obj
                0x000000000802af28        0x8 build/py/objdict.o
 .rodata.dict_view_it_type
                0x000000000802af30       0x3c build/py/objdict.o
 .rodata.dict_view_print.str1.4
                0x000000000802af6c        0x7 build/py/objdict.o
                                          0xb (size before relaxing)
 *fill*         0x000000000802af73        0x1 
 .rodata.dict_view_type
                0x000000000802af74       0x3c build/py/objdict.o
 .rodata.mp_dict_view_names
                0x000000000802afb0        0xc build/py/objdict.o
 .rodata.mp_type_dict
                0x000000000802afbc       0x3c build/py/objdict.o
                0x000000000802afbc                mp_type_dict
 .rodata.mp_type_ordereddict
                0x000000000802aff8       0x3c build/py/objdict.o
                0x000000000802aff8                mp_type_ordereddict
 .rodata.str1.4
                0x000000000802b034       0x24 build/py/objdict.o
 .rodata.allowed_args.6581
                0x000000000802b058       0x10 build/py/objenumerate.o
 .rodata.mp_type_enumerate
                0x000000000802b068       0x3c build/py/objenumerate.o
                0x000000000802b068                mp_type_enumerate
 .rodata.mp_const_GeneratorExit_obj
                0x000000000802b0a4       0x10 build/py/objexcept.o
                0x000000000802b0a4                mp_const_GeneratorExit_obj
 .rodata.mp_obj_exception_print.str1.4
                0x000000000802b0b4        0xe build/py/objexcept.o
                                         0x16 (size before relaxing)
 *fill*         0x000000000802b0c2        0x2 
 .rodata.mp_type_ArithmeticError
                0x000000000802b0c4       0x3c build/py/objexcept.o
                0x000000000802b0c4                mp_type_ArithmeticError
 .rodata.mp_type_AssertionError
                0x000000000802b100       0x3c build/py/objexcept.o
                0x000000000802b100                mp_type_AssertionError
 .rodata.mp_type_AttributeError
                0x000000000802b13c       0x3c build/py/objexcept.o
                0x000000000802b13c                mp_type_AttributeError
 .rodata.mp_type_BaseException
                0x000000000802b178       0x3c build/py/objexcept.o
                0x000000000802b178                mp_type_BaseException
 .rodata.mp_type_EOFError
                0x000000000802b1b4       0x3c build/py/objexcept.o
                0x000000000802b1b4                mp_type_EOFError
 .rodata.mp_type_Exception
                0x000000000802b1f0       0x3c build/py/objexcept.o
                0x000000000802b1f0                mp_type_Exception
 .rodata.mp_type_GeneratorExit
                0x000000000802b22c       0x3c build/py/objexcept.o
                0x000000000802b22c                mp_type_GeneratorExit
 .rodata.mp_type_ImportError
                0x000000000802b268       0x3c build/py/objexcept.o
                0x000000000802b268                mp_type_ImportError
 .rodata.mp_type_IndentationError
                0x000000000802b2a4       0x3c build/py/objexcept.o
                0x000000000802b2a4                mp_type_IndentationError
 .rodata.mp_type_IndexError
                0x000000000802b2e0       0x3c build/py/objexcept.o
                0x000000000802b2e0                mp_type_IndexError
 .rodata.mp_type_KeyError
                0x000000000802b31c       0x3c build/py/objexcept.o
                0x000000000802b31c                mp_type_KeyError
 .rodata.mp_type_KeyboardInterrupt
                0x000000000802b358       0x3c build/py/objexcept.o
                0x000000000802b358                mp_type_KeyboardInterrupt
 .rodata.mp_type_LookupError
                0x000000000802b394       0x3c build/py/objexcept.o
                0x000000000802b394                mp_type_LookupError
 .rodata.mp_type_MemoryError
                0x000000000802b3d0       0x3c build/py/objexcept.o
                0x000000000802b3d0                mp_type_MemoryError
 .rodata.mp_type_NameError
                0x000000000802b40c       0x3c build/py/objexcept.o
                0x000000000802b40c                mp_type_NameError
 .rodata.mp_type_NotImplementedError
                0x000000000802b448       0x3c build/py/objexcept.o
                0x000000000802b448                mp_type_NotImplementedError
 .rodata.mp_type_OSError
                0x000000000802b484       0x3c build/py/objexcept.o
                0x000000000802b484                mp_type_OSError
 .rodata.mp_type_OverflowError
                0x000000000802b4c0       0x3c build/py/objexcept.o
                0x000000000802b4c0                mp_type_OverflowError
 .rodata.mp_type_RuntimeError
                0x000000000802b4fc       0x3c build/py/objexcept.o
                0x000000000802b4fc                mp_type_RuntimeError
 .rodata.mp_type_StopAsyncIteration
                0x000000000802b538       0x3c build/py/objexcept.o
                0x000000000802b538                mp_type_StopAsyncIteration
 .rodata.mp_type_StopIteration
                0x000000000802b574       0x3c build/py/objexcept.o
                0x000000000802b574                mp_type_StopIteration
 .rodata.mp_type_SyntaxError
                0x000000000802b5b0       0x3c build/py/objexcept.o
                0x000000000802b5b0                mp_type_SyntaxError
 .rodata.mp_type_SystemExit
                0x000000000802b5ec       0x3c build/py/objexcept.o
                0x000000000802b5ec                mp_type_SystemExit
 .rodata.mp_type_TypeError
                0x000000000802b628       0x3c build/py/objexcept.o
                0x000000000802b628                mp_type_TypeError
 .rodata.mp_type_UnicodeError
                0x000000000802b664       0x3c build/py/objexcept.o
                0x000000000802b664                mp_type_UnicodeError
 .rodata.mp_type_ValueError
                0x000000000802b6a0       0x3c build/py/objexcept.o
                0x000000000802b6a0                mp_type_ValueError
 .rodata.mp_type_ZeroDivisionError
                0x000000000802b6dc       0x3c build/py/objexcept.o
                0x000000000802b6dc                mp_type_ZeroDivisionError
 .rodata.mp_type_filter
                0x000000000802b718       0x3c build/py/objfilter.o
                0x000000000802b718                mp_type_filter
 .rodata.float_unary_op
                0x000000000802b754       0x20 build/py/objfloat.o
 .rodata.mp_obj_float_binary_op
                0x000000000802b774       0xb8 build/py/objfloat.o
 .rodata.float_print.str1.4
                0x000000000802b82c        0x3 build/py/objfloat.o
 *fill*         0x000000000802b82f        0x1 
 .rodata.mp_const_float_e_obj
                0x000000000802b830        0x8 build/py/objfloat.o
                0x000000000802b830                mp_const_float_e_obj
 .rodata.mp_const_float_pi_obj
                0x000000000802b838        0x8 build/py/objfloat.o
                0x000000000802b838                mp_const_float_pi_obj
 .rodata.mp_obj_float_binary_op.str1.4
                0x000000000802b840        0xf build/py/objfloat.o
 .rodata.mp_type_float
                0x000000000802b840       0x3c build/py/objfloat.o
                0x000000000802b840                mp_type_float
 .rodata.fun_bc_print.str1.4
                0x000000000802b87c       0x16 build/py/objfun.o
 *fill*         0x000000000802b892        0x2 
 .rodata.mp_type_fun_bc
                0x000000000802b894       0x3c build/py/objfun.o
                0x000000000802b894                mp_type_fun_bc
 .rodata.mp_type_fun_builtin_0
                0x000000000802b8d0       0x3c build/py/objfun.o
                0x000000000802b8d0                mp_type_fun_builtin_0
 .rodata.mp_type_fun_builtin_1
                0x000000000802b90c       0x3c build/py/objfun.o
                0x000000000802b90c                mp_type_fun_builtin_1
 .rodata.mp_type_fun_builtin_2
                0x000000000802b948       0x3c build/py/objfun.o
                0x000000000802b948                mp_type_fun_builtin_2
 .rodata.mp_type_fun_builtin_3
                0x000000000802b984       0x3c build/py/objfun.o
                0x000000000802b984                mp_type_fun_builtin_3
 .rodata.mp_type_fun_builtin_var
                0x000000000802b9c0       0x3c build/py/objfun.o
                0x000000000802b9c0                mp_type_fun_builtin_var
 .rodata.gen_instance_close.str1.4
                0x000000000802b9fc       0x20 build/py/objgenerator.o
 .rodata.gen_instance_close_obj
                0x000000000802ba1c        0x8 build/py/objgenerator.o
 .rodata.gen_instance_locals_dict
                0x000000000802ba24       0x10 build/py/objgenerator.o
 .rodata.gen_instance_locals_dict_table
                0x000000000802ba34       0x20 build/py/objgenerator.o
 .rodata.gen_instance_pend_throw.str1.4
                0x000000000802ba54       0x2b build/py/objgenerator.o
 *fill*         0x000000000802ba7f        0x1 
 .rodata.gen_instance_pend_throw_obj
                0x000000000802ba80        0x8 build/py/objgenerator.o
 .rodata.gen_instance_print.str1.4
                0x000000000802ba88       0x1e build/py/objgenerator.o
 *fill*         0x000000000802baa6        0x2 
 .rodata.gen_instance_send_obj
                0x000000000802baa8        0x8 build/py/objgenerator.o
 .rodata.gen_instance_throw_obj
                0x000000000802bab0        0xc build/py/objgenerator.o
 .rodata.mp_obj_gen_resume.str1.4
                0x000000000802babc       0x73 build/py/objgenerator.o
 *fill*         0x000000000802bb2f        0x1 
 .rodata.mp_type_gen_instance
                0x000000000802bb30       0x3c build/py/objgenerator.o
                0x000000000802bb30                mp_type_gen_instance
 .rodata.mp_type_gen_wrap
                0x000000000802bb6c       0x3c build/py/objgenerator.o
                0x000000000802bb6c                mp_type_gen_wrap
 .rodata.it_type
                0x000000000802bba8       0x3c build/py/objgetitemiter.o
 .rodata.int_from_bytes_fun_obj
                0x000000000802bbe4        0xc build/py/objint.o
 .rodata.int_from_bytes_obj
                0x000000000802bbf0        0x8 build/py/objint.o
 .rodata.int_locals_dict
                0x000000000802bbf8       0x10 build/py/objint.o
 .rodata.int_locals_dict_table
                0x000000000802bc08       0x10 build/py/objint.o
 .rodata.int_to_bytes_obj
                0x000000000802bc18        0xc build/py/objint.o
 .rodata.log_base2_floor
                0x000000000802bc24       0x10 build/py/objint.o
 .rodata.mp_obj_new_int_from_float.str1.4
                0x000000000802bc34       0x35 build/py/objint.o
 *fill*         0x000000000802bc69        0x3 
 .rodata.mp_type_int
                0x000000000802bc6c       0x3c build/py/objint.o
                0x000000000802bc6c                mp_type_int
 .rodata.mp_obj_int_unary_op
                0x000000000802bca8       0x20 build/py/objint_mpz.o
 .rodata.mp_obj_int_binary_op
                0x000000000802bcc8       0x74 build/py/objint_mpz.o
 .rodata.maxsize_dig
                0x000000000802bd3c        0x4 build/py/objint_mpz.o
 .rodata.mp_maxsize_obj
                0x000000000802bd40       0x10 build/py/objint_mpz.o
                0x000000000802bd40                mp_maxsize_obj
 .rodata.mp_obj_int_binary_op.str1.4
                0x000000000802bd50       0x25 build/py/objint_mpz.o
 .rodata.mp_obj_int_get_checked.str1.4
                0x000000000802bd50       0x2d build/py/objint_mpz.o
 *fill*         0x000000000802bd7d        0x3 
 .rodata.mp_obj_int_pow3.str1.4
                0x000000000802bd80       0x29 build/py/objint_mpz.o
 *fill*         0x000000000802bda9        0x3 
 .rodata.list_binary_op
                0x000000000802bdac       0x74 build/py/objlist.o
 .rodata.allowed_args.6528
                0x000000000802be20       0x10 build/py/objlist.o
 .rodata.list_append_obj
                0x000000000802be30        0x8 build/py/objlist.o
 .rodata.list_clear_obj
                0x000000000802be38        0x8 build/py/objlist.o
 .rodata.list_copy_obj
                0x000000000802be40        0x8 build/py/objlist.o
 .rodata.list_count_obj
                0x000000000802be48        0x8 build/py/objlist.o
 .rodata.list_extend_obj
                0x000000000802be50        0x8 build/py/objlist.o
 .rodata.list_index_obj
                0x000000000802be58        0xc build/py/objlist.o
 .rodata.list_insert_obj
                0x000000000802be64        0x8 build/py/objlist.o
 .rodata.list_locals_dict
                0x000000000802be6c       0x10 build/py/objlist.o
 .rodata.list_locals_dict_table
                0x000000000802be7c       0x58 build/py/objlist.o
 .rodata.list_pop.str1.4
                0x000000000802bed4       0x14 build/py/objlist.o
 .rodata.list_pop_obj
                0x000000000802bee8        0xc build/py/objlist.o
 .rodata.list_print.str1.4
                0x000000000802bef4        0x2 build/py/objlist.o
                                          0xb (size before relaxing)
 *fill*         0x000000000802bef6        0x2 
 .rodata.list_remove_obj
                0x000000000802bef8        0x8 build/py/objlist.o
 .rodata.list_reverse_obj
                0x000000000802bf00        0x8 build/py/objlist.o
 .rodata.list_sort_obj
                0x000000000802bf08        0xc build/py/objlist.o
 .rodata.mp_type_list
                0x000000000802bf14       0x3c build/py/objlist.o
                0x000000000802bf14                mp_type_list
 .rodata.mp_type_map
                0x000000000802bf50       0x3c build/py/objmap.o
                0x000000000802bf50                mp_type_map
 .rodata.module_print.str1.4
                0x000000000802bf8c       0x26 build/py/objmodule.o
                                         0x2a (size before relaxing)
 *fill*         0x000000000802bfb2        0x2 
 .rodata.mp_builtin_module_map
                0x000000000802bfb4        0xc build/py/objmodule.o
                0x000000000802bfb4                mp_builtin_module_map
 .rodata.mp_builtin_module_table
                0x000000000802bfc0       0xf0 build/py/objmodule.o
 .rodata.mp_builtin_module_weak_links_map
                0x000000000802c0b0        0xc build/py/objmodule.o
                0x000000000802c0b0                mp_builtin_module_weak_links_map
 .rodata.mp_builtin_module_weak_links_table
                0x000000000802c0bc        0x0 build/py/objmodule.o
 .rodata.mp_type_module
                0x000000000802c0bc       0x3c build/py/objmodule.o
                0x000000000802c0bc                mp_type_module
 .rodata.mp_type_object
                0x000000000802c0f8       0x3c build/py/objobject.o
                0x000000000802c0f8                mp_type_object
 .rodata.object___init___obj
                0x000000000802c134        0x8 build/py/objobject.o
 .rodata.object___new__.str1.4
                0x000000000802c13c       0x20 build/py/objobject.o
 .rodata.object___new___fun_obj
                0x000000000802c15c        0x8 build/py/objobject.o
 .rodata.object___new___obj
                0x000000000802c164        0x8 build/py/objobject.o
 .rodata.object_locals_dict
                0x000000000802c16c       0x10 build/py/objobject.o
 .rodata.object_locals_dict_table
                0x000000000802c17c       0x10 build/py/objobject.o
 .rodata.mp_type_polymorph_iter
                0x000000000802c18c       0x3c build/py/objpolyiter.o
                0x000000000802c18c                mp_type_polymorph_iter
 .rodata.allowed_args.6583
                0x000000000802c1c8       0x20 build/py/objproperty.o
 .rodata.mp_type_property
                0x000000000802c1e8       0x3c build/py/objproperty.o
                0x000000000802c1e8                mp_type_property
 .rodata.property_deleter_obj
                0x000000000802c224        0x8 build/py/objproperty.o
 .rodata.property_getter_obj
                0x000000000802c22c        0x8 build/py/objproperty.o
 .rodata.property_locals_dict
                0x000000000802c234       0x10 build/py/objproperty.o
 .rodata.property_locals_dict_table
                0x000000000802c244       0x18 build/py/objproperty.o
 .rodata.property_setter_obj
                0x000000000802c25c        0x8 build/py/objproperty.o
 .rodata.mp_const_none_obj
                0x000000000802c264        0x4 build/py/objnone.o
                0x000000000802c264                mp_const_none_obj
 .rodata.mp_type_NoneType
                0x000000000802c268       0x3c build/py/objnone.o
                0x000000000802c268                mp_type_NoneType
 .rodata.none_print.str1.4
                0x000000000802c2a4        0x5 build/py/objnone.o
                                          0xd (size before relaxing)
 *fill*         0x000000000802c2a9        0x3 
 .rodata.mp_namedtuple_obj
                0x000000000802c2ac        0x8 build/py/objnamedtuple.o
                0x000000000802c2ac                mp_namedtuple_obj
 .rodata.namedtuple_asdict_obj
                0x000000000802c2b4        0x8 build/py/objnamedtuple.o
                0x000000000802c2b4                namedtuple_asdict_obj
 .rodata.namedtuple_attr.str1.4
                0x000000000802c2bc       0x14 build/py/objnamedtuple.o
 .rodata.namedtuple_make_new.str1.4
                0x000000000802c2d0       0x8b build/py/objnamedtuple.o
 *fill*         0x000000000802c35b        0x1 
 .rodata.namedtuple_print.str1.4
                0x000000000802c35c        0x3 build/py/objnamedtuple.o
 *fill*         0x000000000802c35f        0x1 
 .rodata.mp_type_range
                0x000000000802c360       0x3c build/py/objrange.o
                0x000000000802c360                mp_type_range
 .rodata.range_it_type
                0x000000000802c39c       0x3c build/py/objrange.o
 .rodata.range_make_new.str1.4
                0x000000000802c3d8        0xa build/py/objrange.o
 *fill*         0x000000000802c3e2        0x2 
 .rodata.range_print.str1.4
                0x000000000802c3e4       0x16 build/py/objrange.o
                                         0x1a (size before relaxing)
 *fill*         0x000000000802c3fa        0x2 
 .rodata.mp_type_reversed
                0x000000000802c3fc       0x3c build/py/objreversed.o
                0x000000000802c3fc                mp_type_reversed
 .rodata.set_binary_op
                0x000000000802c438       0x70 build/py/objset.o
 .rodata.frozenset_locals_dict
                0x000000000802c4a8       0x10 build/py/objset.o
 .rodata.frozenset_locals_dict_table
                0x000000000802c4b8       0x48 build/py/objset.o
 .rodata.mp_type_frozenset
                0x000000000802c500       0x3c build/py/objset.o
                0x000000000802c500                mp_type_frozenset
 .rodata.mp_type_set
                0x000000000802c53c       0x3c build/py/objset.o
                0x000000000802c53c                mp_type_set
 .rodata.set_add_obj
                0x000000000802c578        0x8 build/py/objset.o
 .rodata.set_clear_obj
                0x000000000802c580        0x8 build/py/objset.o
 .rodata.set_copy_obj
                0x000000000802c588        0x8 build/py/objset.o
 .rodata.set_diff_obj
                0x000000000802c590        0xc build/py/objset.o
 .rodata.set_diff_update_obj
                0x000000000802c59c        0xc build/py/objset.o
 .rodata.set_discard_obj
                0x000000000802c5a8        0x8 build/py/objset.o
 .rodata.set_intersect_obj
                0x000000000802c5b0        0x8 build/py/objset.o
 .rodata.set_intersect_update_obj
                0x000000000802c5b8        0x8 build/py/objset.o
 .rodata.set_isdisjoint_obj
                0x000000000802c5c0        0x8 build/py/objset.o
 .rodata.set_issubset_obj
                0x000000000802c5c8        0x8 build/py/objset.o
 .rodata.set_issuperset_obj
                0x000000000802c5d0        0x8 build/py/objset.o
 .rodata.set_locals_dict
                0x000000000802c5d8       0x10 build/py/objset.o
 .rodata.set_locals_dict_table
                0x000000000802c5e8       0x90 build/py/objset.o
 .rodata.set_pop.str1.4
                0x000000000802c678       0x16 build/py/objset.o
 *fill*         0x000000000802c68e        0x2 
 .rodata.set_pop_obj
                0x000000000802c690        0x8 build/py/objset.o
 .rodata.set_print.str1.4
                0x000000000802c698       0x1b build/py/objset.o
                                         0x2a (size before relaxing)
 *fill*         0x000000000802c6b3        0x1 
 .rodata.set_remove_obj
                0x000000000802c6b4        0x8 build/py/objset.o
 .rodata.set_symmetric_difference_obj
                0x000000000802c6bc        0x8 build/py/objset.o
 .rodata.set_symmetric_difference_update_obj
                0x000000000802c6c4        0x8 build/py/objset.o
 .rodata.set_union_obj
                0x000000000802c6cc        0x8 build/py/objset.o
 .rodata.set_update_obj
                0x000000000802c6d4        0xc build/py/objset.o
 .rodata.mp_const_ellipsis_obj
                0x000000000802c6e0        0x8 build/py/objsingleton.o
                0x000000000802c6e0                mp_const_ellipsis_obj
 .rodata.mp_const_notimplemented_obj
                0x000000000802c6e8        0x8 build/py/objsingleton.o
                0x000000000802c6e8                mp_const_notimplemented_obj
 .rodata.mp_type_singleton
                0x000000000802c6f0       0x3c build/py/objsingleton.o
                0x000000000802c6f0                mp_type_singleton
 .rodata.singleton_print.str1.4
                0x000000000802c72c        0x3 build/py/objsingleton.o
 .rodata.mp_type_slice
                0x000000000802c72c       0x3c build/py/objslice.o
                0x000000000802c72c                mp_type_slice
 .rodata.slice_print.str1.4
                0x000000000802c768        0x7 build/py/objslice.o
                                          0xe (size before relaxing)
 *fill*         0x000000000802c76f        0x1 
 .rodata.mp_obj_str_binary_op
                0x000000000802c770      0x18c build/py/objstr.o
 .rodata.mp_obj_str_format_helper
                0x000000000802c8fc      0x1e4 build/py/objstr.o
 .rodata.allowed_args.6673
                0x000000000802cae0        0x8 build/py/objstr.o
 .rodata.bad_implicit_conversion.str1.4
                0x000000000802cae8       0x2b build/py/objstr.o
 *fill*         0x000000000802cb13        0x1 
 .rodata.bytes_decode_obj
                0x000000000802cb14        0xc build/py/objstr.o
                0x000000000802cb14                bytes_decode_obj
 .rodata.bytes_make_new.part.4.str1.4
                0x000000000802cb20       0x36 build/py/objstr.o
 .rodata.bytes_subscr.str1.4
                0x000000000802cb56       0x31 build/py/objstr.o
 *fill*         0x000000000802cb56        0x2 
 .rodata.mp_const_empty_bytes_obj
                0x000000000802cb58       0x10 build/py/objstr.o
                0x000000000802cb58                mp_const_empty_bytes_obj
 .rodata.mp_obj_str_binary_op.str1.4
                0x000000000802cb68       0xee build/py/objstr.o
 *fill*         0x000000000802cc56        0x2 
 .rodata.mp_obj_str_format_helper.str1.4
                0x000000000802cc58      0x28d build/py/objstr.o
 *fill*         0x000000000802cee5        0x3 
 .rodata.mp_str_print_json.str1.4
                0x000000000802cee8        0xb build/py/objstr.o
 *fill*         0x000000000802cef3        0x1 
 .rodata.mp_str_print_quoted.str1.4
                0x000000000802cef4       0x1b build/py/objstr.o
                                         0x1f (size before relaxing)
 *fill*         0x000000000802cf0f        0x1 
 .rodata.mp_type_bytes
                0x000000000802cf10       0x3c build/py/objstr.o
                0x000000000802cf10                mp_type_bytes
 .rodata.str1.4
                0x000000000802cf4c        0x1 build/py/objstr.o
 .rodata.str8_locals_dict
                0x000000000802cf4c       0x10 build/py/objstr.o
 .rodata.str8_locals_dict_table
                0x000000000802cf5c       0xd8 build/py/objstr.o
 .rodata.str_center_obj
                0x000000000802d034        0x8 build/py/objstr.o
                0x000000000802d034                str_center_obj
 .rodata.str_count_obj
                0x000000000802d03c        0xc build/py/objstr.o
                0x000000000802d03c                str_count_obj
 .rodata.str_encode_obj
                0x000000000802d048        0xc build/py/objstr.o
                0x000000000802d048                str_encode_obj
 .rodata.str_endswith.str1.4
                0x000000000802d054       0x12 build/py/objstr.o
 *fill*         0x000000000802d066        0x2 
 .rodata.str_endswith_obj
                0x000000000802d068        0xc build/py/objstr.o
                0x000000000802d068                str_endswith_obj
 .rodata.str_find_obj
                0x000000000802d074        0xc build/py/objstr.o
                0x000000000802d074                str_find_obj
 .rodata.str_finder.str1.4
                0x000000000802d080       0x14 build/py/objstr.o
 .rodata.str_format_obj
                0x000000000802d094        0xc build/py/objstr.o
                0x000000000802d094                str_format_obj
 .rodata.str_index_obj
                0x000000000802d0a0        0xc build/py/objstr.o
                0x000000000802d0a0                str_index_obj
 .rodata.str_isalpha_obj
                0x000000000802d0ac        0x8 build/py/objstr.o
                0x000000000802d0ac                str_isalpha_obj
 .rodata.str_isdigit_obj
                0x000000000802d0b4        0x8 build/py/objstr.o
                0x000000000802d0b4                str_isdigit_obj
 .rodata.str_islower_obj
                0x000000000802d0bc        0x8 build/py/objstr.o
                0x000000000802d0bc                str_islower_obj
 .rodata.str_isspace_obj
                0x000000000802d0c4        0x8 build/py/objstr.o
                0x000000000802d0c4                str_isspace_obj
 .rodata.str_isupper_obj
                0x000000000802d0cc        0x8 build/py/objstr.o
                0x000000000802d0cc                str_isupper_obj
 .rodata.str_join.str1.4
                0x000000000802d0d4       0x45 build/py/objstr.o
 *fill*         0x000000000802d119        0x3 
 .rodata.str_join_obj
                0x000000000802d11c        0x8 build/py/objstr.o
                0x000000000802d11c                str_join_obj
 .rodata.str_lower_obj
                0x000000000802d124        0x8 build/py/objstr.o
                0x000000000802d124                str_lower_obj
 .rodata.str_lstrip_obj
                0x000000000802d12c        0xc build/py/objstr.o
                0x000000000802d12c                str_lstrip_obj
 .rodata.str_partition_obj
                0x000000000802d138        0x8 build/py/objstr.o
                0x000000000802d138                str_partition_obj
 .rodata.str_partitioner.str1.4
                0x000000000802d140       0x10 build/py/objstr.o
 .rodata.str_print.str1.4
                0x000000000802d150        0xa build/py/objstr.o
 *fill*         0x000000000802d15a        0x2 
 .rodata.str_replace_obj
                0x000000000802d15c        0xc build/py/objstr.o
                0x000000000802d15c                str_replace_obj
 .rodata.str_rfind_obj
                0x000000000802d168        0xc build/py/objstr.o
                0x000000000802d168                str_rfind_obj
 .rodata.str_rindex_obj
                0x000000000802d174        0xc build/py/objstr.o
                0x000000000802d174                str_rindex_obj
 .rodata.str_rpartition_obj
                0x000000000802d180        0x8 build/py/objstr.o
                0x000000000802d180                str_rpartition_obj
 .rodata.str_rsplit.str1.4
                0x000000000802d188        0xf build/py/objstr.o
 *fill*         0x000000000802d197        0x1 
 .rodata.str_rsplit_obj
                0x000000000802d198        0xc build/py/objstr.o
                0x000000000802d198                str_rsplit_obj
 .rodata.str_rstrip_obj
                0x000000000802d1a4        0xc build/py/objstr.o
                0x000000000802d1a4                str_rstrip_obj
 .rodata.str_split_obj
                0x000000000802d1b0        0xc build/py/objstr.o
                0x000000000802d1b0                str_split_obj
 .rodata.str_splitlines_obj
                0x000000000802d1bc        0xc build/py/objstr.o
                0x000000000802d1bc                str_splitlines_obj
 .rodata.str_startswith_obj
                0x000000000802d1c8        0xc build/py/objstr.o
                0x000000000802d1c8                str_startswith_obj
 .rodata.str_strip_obj
                0x000000000802d1d4        0xc build/py/objstr.o
                0x000000000802d1d4                str_strip_obj
 .rodata.str_upper_obj
                0x000000000802d1e0        0x8 build/py/objstr.o
                0x000000000802d1e0                str_upper_obj
 .rodata.whitespace.6779
                0x000000000802d1e8        0x7 build/py/objstr.o
 *fill*         0x000000000802d1ef        0x1 
 .rodata.mp_type_str
                0x000000000802d1f0       0x3c build/py/objstrunicode.o
                0x000000000802d1f0                mp_type_str
 .rodata.str_index_to_ptr.str1.4
                0x000000000802d22c       0x42 build/py/objstrunicode.o
 .rodata.str_subscr.str1.4
                0x000000000802d26e       0x31 build/py/objstrunicode.o
 *fill*         0x000000000802d26e        0x2 
 .rodata.struni_locals_dict
                0x000000000802d270       0x10 build/py/objstrunicode.o
 .rodata.struni_locals_dict_table
                0x000000000802d280       0xd8 build/py/objstrunicode.o
 .rodata.uni_print.str1.4
                0x000000000802d358        0x7 build/py/objstrunicode.o
                                         0x37 (size before relaxing)
 *fill*         0x000000000802d35f        0x1 
 .rodata.bytesio_stream_p
                0x000000000802d360       0x10 build/py/objstringio.o
 .rodata.mp_type_bytesio
                0x000000000802d370       0x3c build/py/objstringio.o
                0x000000000802d370                mp_type_bytesio
 .rodata.mp_type_stringio
                0x000000000802d3ac       0x3c build/py/objstringio.o
                0x000000000802d3ac                mp_type_stringio
 .rodata.stringio___exit___obj
                0x000000000802d3e8        0xc build/py/objstringio.o
 .rodata.stringio_getvalue.str1.4
                0x000000000802d3f4       0x1d build/py/objstringio.o
 *fill*         0x000000000802d411        0x3 
 .rodata.stringio_getvalue_obj
                0x000000000802d414        0x8 build/py/objstringio.o
 .rodata.stringio_locals_dict
                0x000000000802d41c       0x10 build/py/objstringio.o
 .rodata.stringio_locals_dict_table
                0x000000000802d42c       0x50 build/py/objstringio.o
 .rodata.stringio_print.str1.4
                0x000000000802d47c       0x26 build/py/objstringio.o
 *fill*         0x000000000802d4a2        0x2 
 .rodata.stringio_stream_p
                0x000000000802d4a4       0x10 build/py/objstringio.o
 .rodata.mp_const_empty_tuple_obj
                0x000000000802d4b4        0x8 build/py/objtuple.o
                0x000000000802d4b4                mp_const_empty_tuple_obj
 .rodata.mp_obj_tuple_print.str1.4
                0x000000000802d4bc        0x2 build/py/objtuple.o
                                         0x16 (size before relaxing)
 .rodata.mp_obj_tuple_subscr.str1.4
                0x000000000802d4be       0x31 build/py/objtuple.o
 *fill*         0x000000000802d4be        0x2 
 .rodata.mp_type_tuple
                0x000000000802d4c0       0x3c build/py/objtuple.o
                0x000000000802d4c0                mp_type_tuple
 .rodata.tuple_count_obj
                0x000000000802d4fc        0x8 build/py/objtuple.o
 .rodata.tuple_index_obj
                0x000000000802d504        0xc build/py/objtuple.o
 .rodata.tuple_locals_dict
                0x000000000802d510       0x10 build/py/objtuple.o
 .rodata.tuple_locals_dict_table
                0x000000000802d520       0x10 build/py/objtuple.o
 .rodata.instance_print.str1.4
                0x000000000802d530       0x12 build/py/objtype.o
 *fill*         0x000000000802d542        0x2 
 .rodata.mp_binary_op_method_name
                0x000000000802d544       0x2f build/py/objtype.o
                0x000000000802d544                mp_binary_op_method_name
 *fill*         0x000000000802d573        0x1 
 .rodata.mp_builtin_isinstance_obj
                0x000000000802d574        0x8 build/py/objtype.o
                0x000000000802d574                mp_builtin_isinstance_obj
 .rodata.mp_builtin_issubclass.str1.4
                0x000000000802d57c       0x23 build/py/objtype.o
 *fill*         0x000000000802d59f        0x1 
 .rodata.mp_builtin_issubclass_obj
                0x000000000802d5a0        0x8 build/py/objtype.o
                0x000000000802d5a0                mp_builtin_issubclass_obj
 .rodata.mp_obj_instance_attr.str1.4
                0x000000000802d5a8       0x15 build/py/objtype.o
 .rodata.mp_obj_instance_call.str1.4
                0x000000000802d5bd       0x1b build/py/objtype.o
 *fill*         0x000000000802d5bd        0x3 
 .rodata.mp_obj_instance_make_new.str1.4
                0x000000000802d5c0       0x28 build/py/objtype.o
 .rodata.mp_obj_is_subclass.str1.4
                0x000000000802d5e8       0x39 build/py/objtype.o
 *fill*         0x000000000802d621        0x3 
 .rodata.mp_obj_new_type.str1.4
                0x000000000802d624       0x56 build/py/objtype.o
 *fill*         0x000000000802d67a        0x2 
 .rodata.mp_type_classmethod
                0x000000000802d67c       0x3c build/py/objtype.o
                0x000000000802d67c                mp_type_classmethod
 .rodata.mp_type_staticmethod
                0x000000000802d6b8       0x3c build/py/objtype.o
                0x000000000802d6b8                mp_type_staticmethod
 .rodata.mp_type_super
                0x000000000802d6f4       0x3c build/py/objtype.o
                0x000000000802d6f4                mp_type_super
 .rodata.mp_type_type
                0x000000000802d730       0x3c build/py/objtype.o
                0x000000000802d730                mp_type_type
 .rodata.mp_unary_op_method_name
                0x000000000802d76c        0x9 build/py/objtype.o
                0x000000000802d76c                mp_unary_op_method_name
 *fill*         0x000000000802d775        0x3 
 .rodata.native_base_init_wrapper_obj
                0x000000000802d778        0xc build/py/objtype.o
 .rodata.super_print.str1.4
                0x000000000802d784        0x9 build/py/objtype.o
                                         0x12 (size before relaxing)
 *fill*         0x000000000802d78d        0x3 
 .rodata.to_check.7142
                0x000000000802d790        0x3 build/py/objtype.o
 *fill*         0x000000000802d793        0x1 
 .rodata.type_attr.str1.4
                0x000000000802d794       0x35 build/py/objtype.o
 *fill*         0x000000000802d7c9        0x3 
 .rodata.type_call.str1.4
                0x000000000802d7cc       0x1d build/py/objtype.o
 *fill*         0x000000000802d7e9        0x3 
 .rodata.type_make_new.str1.4
                0x000000000802d7ec       0x1c build/py/objtype.o
 .rodata.type_print.str1.4
                0x000000000802d808        0xd build/py/objtype.o
 *fill*         0x000000000802d815        0x3 
 .rodata.mp_type_zip
                0x000000000802d818       0x3c build/py/objzip.o
                0x000000000802d818                mp_type_zip
 .rodata.mp_op_contains_obj
                0x000000000802d854        0x8 build/py/opmethods.o
                0x000000000802d854                mp_op_contains_obj
 .rodata.mp_op_delitem_obj
                0x000000000802d85c        0x8 build/py/opmethods.o
                0x000000000802d85c                mp_op_delitem_obj
 .rodata.mp_op_getitem_obj
                0x000000000802d864        0x8 build/py/opmethods.o
                0x000000000802d864                mp_op_getitem_obj
 .rodata.mp_op_setitem_obj
                0x000000000802d86c        0x8 build/py/opmethods.o
                0x000000000802d86c                mp_op_setitem_obj
 .rodata.mp_seq_get_fast_slice_indexes.str1.4
                0x000000000802d874       0x1a build/py/sequence.o
 *fill*         0x000000000802d88e        0x2 
 .rodata.mp_seq_index_obj.str1.4
                0x000000000802d890       0x17 build/py/sequence.o
 *fill*         0x000000000802d8a7        0x1 
 .rodata.mp_get_stream_raise.str1.4
                0x000000000802d8a8       0x1f build/py/stream.o
 *fill*         0x000000000802d8c7        0x1 
 .rodata.mp_stream_close_obj
                0x000000000802d8c8        0x8 build/py/stream.o
                0x000000000802d8c8                mp_stream_close_obj
 .rodata.mp_stream_flush_obj
                0x000000000802d8d0        0x8 build/py/stream.o
                0x000000000802d8d0                mp_stream_flush_obj
 .rodata.mp_stream_read_obj
                0x000000000802d8d8        0xc build/py/stream.o
                0x000000000802d8d8                mp_stream_read_obj
 .rodata.mp_stream_readinto_obj
                0x000000000802d8e4        0xc build/py/stream.o
                0x000000000802d8e4                mp_stream_readinto_obj
 .rodata.mp_stream_seek_obj
                0x000000000802d8f0        0xc build/py/stream.o
                0x000000000802d8f0                mp_stream_seek_obj
 .rodata.mp_stream_tell_obj
                0x000000000802d8fc        0x8 build/py/stream.o
                0x000000000802d8fc                mp_stream_tell_obj
 .rodata.mp_stream_unbuffered_readline_obj
                0x000000000802d904        0xc build/py/stream.o
                0x000000000802d904                mp_stream_unbuffered_readline_obj
 .rodata.mp_stream_unbuffered_readlines_obj
                0x000000000802d910        0x8 build/py/stream.o
                0x000000000802d910                mp_stream_unbuffered_readlines_obj
 .rodata.mp_stream_write_obj
                0x000000000802d918        0xc build/py/stream.o
                0x000000000802d918                mp_stream_write_obj
 .rodata.mp_binary_get_size
                0x000000000802d924      0x288 build/py/binary.o
 .rodata.mp_binary_get_val_array
                0x000000000802dbac      0x1c8 build/py/binary.o
 .rodata.mp_binary_set_val_array_from_int
                0x000000000802dd74      0x1c8 build/py/binary.o
 .rodata.mp_binary_get_size.str1.4
                0x000000000802df3c        0xd build/py/binary.o
 *fill*         0x000000000802df49        0x3 
 .rodata.mp_builtin___import__.str1.4
                0x000000000802df4c       0x44 build/py/builtinimport.o
 .rodata.mp_builtin___import___obj
                0x000000000802df90        0xc build/py/builtinimport.o
                0x000000000802df90                mp_builtin___import___obj
 .rodata.stat_dir_or_file.str1.4
                0x000000000802df9c       0x44 build/py/builtinimport.o
                                          0x4 (size before relaxing)
 .rodata.mp_builtin_compile.str1.4
                0x000000000802df9c       0x11 build/py/builtinevex.o
 *fill*         0x000000000802dfad        0x3 
 .rodata.mp_builtin_compile_obj
                0x000000000802dfb0        0xc build/py/builtinevex.o
                0x000000000802dfb0                mp_builtin_compile_obj
 .rodata.mp_builtin_eval_obj
                0x000000000802dfbc        0xc build/py/builtinevex.o
                0x000000000802dfbc                mp_builtin_eval_obj
 .rodata.mp_builtin_exec_obj
                0x000000000802dfc8        0xc build/py/builtinevex.o
                0x000000000802dfc8                mp_builtin_exec_obj
 .rodata.mp_builtin_execfile_obj
                0x000000000802dfd4        0xc build/py/builtinevex.o
                0x000000000802dfd4                mp_builtin_execfile_obj
 .rodata.mp_type_code
                0x000000000802dfe0       0x3c build/py/builtinevex.o
 .rodata.mp_builtin_help.str1.4
                0x000000000802e01c       0x45 build/py/builtinhelp.o
                                         0x4d (size before relaxing)
 *fill*         0x000000000802e061        0x3 
 .rodata.mp_builtin_help_obj
                0x000000000802e064        0xc build/py/builtinhelp.o
                0x000000000802e064                mp_builtin_help_obj
 .rodata.mp_module_array
                0x000000000802e070        0x8 build/py/modarray.o
                0x000000000802e070                mp_module_array
 .rodata.mp_module_array_globals
                0x000000000802e078       0x10 build/py/modarray.o
 .rodata.mp_module_array_globals_table
                0x000000000802e088       0x10 build/py/modarray.o
 .rodata.allowed_args.7880
                0x000000000802e098       0x18 build/py/modbuiltins.o
 .rodata.mp_builtin___build_class___obj
                0x000000000802e0b0        0xc build/py/modbuiltins.o
                0x000000000802e0b0                mp_builtin___build_class___obj
 .rodata.mp_builtin___repl_print__.str1.4
                0x000000000802e0bc        0x2 build/py/modbuiltins.o
 .rodata.mp_builtin___repl_print___obj
                0x000000000802e0bc        0x8 build/py/modbuiltins.o
                0x000000000802e0bc                mp_builtin___repl_print___obj
 .rodata.mp_builtin_abs_obj
                0x000000000802e0c4        0x8 build/py/modbuiltins.o
                0x000000000802e0c4                mp_builtin_abs_obj
 .rodata.mp_builtin_all_obj
                0x000000000802e0cc        0x8 build/py/modbuiltins.o
                0x000000000802e0cc                mp_builtin_all_obj
 .rodata.mp_builtin_any_obj
                0x000000000802e0d4        0x8 build/py/modbuiltins.o
                0x000000000802e0d4                mp_builtin_any_obj
 .rodata.mp_builtin_bin_obj
                0x000000000802e0dc        0x8 build/py/modbuiltins.o
                0x000000000802e0dc                mp_builtin_bin_obj
 .rodata.mp_builtin_callable_obj
                0x000000000802e0e4        0x8 build/py/modbuiltins.o
                0x000000000802e0e4                mp_builtin_callable_obj
 .rodata.mp_builtin_chr.str1.4
                0x000000000802e0ec       0x21 build/py/modbuiltins.o
 *fill*         0x000000000802e10d        0x3 
 .rodata.mp_builtin_chr_obj
                0x000000000802e110        0x8 build/py/modbuiltins.o
                0x000000000802e110                mp_builtin_chr_obj
 .rodata.mp_builtin_delattr_obj
                0x000000000802e118        0x8 build/py/modbuiltins.o
                0x000000000802e118                mp_builtin_delattr_obj
 .rodata.mp_builtin_dir_obj
                0x000000000802e120        0xc build/py/modbuiltins.o
                0x000000000802e120                mp_builtin_dir_obj
 .rodata.mp_builtin_divmod_obj
                0x000000000802e12c        0x8 build/py/modbuiltins.o
                0x000000000802e12c                mp_builtin_divmod_obj
 .rodata.mp_builtin_getattr_obj
                0x000000000802e134        0xc build/py/modbuiltins.o
                0x000000000802e134                mp_builtin_getattr_obj
 .rodata.mp_builtin_globals_obj
                0x000000000802e140        0x8 build/py/modbuiltins.o
                0x000000000802e140                mp_builtin_globals_obj
 .rodata.mp_builtin_hasattr_obj
                0x000000000802e148        0x8 build/py/modbuiltins.o
                0x000000000802e148                mp_builtin_hasattr_obj
 .rodata.mp_builtin_hash_obj
                0x000000000802e150        0x8 build/py/modbuiltins.o
                0x000000000802e150                mp_builtin_hash_obj
 .rodata.mp_builtin_hex_obj
                0x000000000802e158        0x8 build/py/modbuiltins.o
                0x000000000802e158                mp_builtin_hex_obj
 .rodata.mp_builtin_id_obj
                0x000000000802e160        0x8 build/py/modbuiltins.o
                0x000000000802e160                mp_builtin_id_obj
 .rodata.mp_builtin_iter_obj
                0x000000000802e168        0x8 build/py/modbuiltins.o
                0x000000000802e168                mp_builtin_iter_obj
 .rodata.mp_builtin_len_obj
                0x000000000802e170        0x8 build/py/modbuiltins.o
                0x000000000802e170                mp_builtin_len_obj
 .rodata.mp_builtin_locals_obj
                0x000000000802e178        0x8 build/py/modbuiltins.o
                0x000000000802e178                mp_builtin_locals_obj
 .rodata.mp_builtin_max_obj
                0x000000000802e180        0xc build/py/modbuiltins.o
                0x000000000802e180                mp_builtin_max_obj
 .rodata.mp_builtin_min_max.str1.4
                0x000000000802e18c       0x19 build/py/modbuiltins.o
 *fill*         0x000000000802e1a5        0x3 
 .rodata.mp_builtin_min_obj
                0x000000000802e1a8        0xc build/py/modbuiltins.o
                0x000000000802e1a8                mp_builtin_min_obj
 .rodata.mp_builtin_next_obj
                0x000000000802e1b4        0x8 build/py/modbuiltins.o
                0x000000000802e1b4                mp_builtin_next_obj
 .rodata.mp_builtin_oct_obj
                0x000000000802e1bc        0x8 build/py/modbuiltins.o
                0x000000000802e1bc                mp_builtin_oct_obj
 .rodata.mp_builtin_ord.str1.4
                0x000000000802e1c4       0x3a build/py/modbuiltins.o
 *fill*         0x000000000802e1fe        0x2 
 .rodata.mp_builtin_ord_obj
                0x000000000802e200        0x8 build/py/modbuiltins.o
                0x000000000802e200                mp_builtin_ord_obj
 .rodata.mp_builtin_pow_obj
                0x000000000802e208        0xc build/py/modbuiltins.o
                0x000000000802e208                mp_builtin_pow_obj
 .rodata.mp_builtin_print_obj
                0x000000000802e214        0xc build/py/modbuiltins.o
                0x000000000802e214                mp_builtin_print_obj
 .rodata.mp_builtin_repr_obj
                0x000000000802e220        0x8 build/py/modbuiltins.o
                0x000000000802e220                mp_builtin_repr_obj
 .rodata.mp_builtin_round_obj
                0x000000000802e228        0xc build/py/modbuiltins.o
                0x000000000802e228                mp_builtin_round_obj
 .rodata.mp_builtin_setattr_obj
                0x000000000802e234        0x8 build/py/modbuiltins.o
                0x000000000802e234                mp_builtin_setattr_obj
 .rodata.mp_builtin_sorted.str1.4
                0x000000000802e23c       0x2b build/py/modbuiltins.o
 *fill*         0x000000000802e267        0x1 
 .rodata.mp_builtin_sorted_obj
                0x000000000802e268        0xc build/py/modbuiltins.o
                0x000000000802e268                mp_builtin_sorted_obj
 .rodata.mp_builtin_sum_obj
                0x000000000802e274        0xc build/py/modbuiltins.o
                0x000000000802e274                mp_builtin_sum_obj
 .rodata.mp_module_builtins
                0x000000000802e280        0x8 build/py/modbuiltins.o
                0x000000000802e280                mp_module_builtins
 .rodata.mp_module_builtins_globals
                0x000000000802e288       0x10 build/py/modbuiltins.o
                0x000000000802e288                mp_module_builtins_globals
 .rodata.mp_module_builtins_globals_table
                0x000000000802e298      0x310 build/py/modbuiltins.o
 .rodata.mp_module_collections
                0x000000000802e5a8        0x8 build/py/modcollections.o
                0x000000000802e5a8                mp_module_collections
 .rodata.mp_module_collections_globals
                0x000000000802e5b0       0x10 build/py/modcollections.o
 .rodata.mp_module_collections_globals_table
                0x000000000802e5c0       0x20 build/py/modcollections.o
 .rodata.gc_collect_obj
                0x000000000802e5e0        0x8 build/py/modgc.o
                0x000000000802e5e0                gc_collect_obj
 .rodata.gc_disable_obj
                0x000000000802e5e8        0x8 build/py/modgc.o
                0x000000000802e5e8                gc_disable_obj
 .rodata.gc_enable_obj
                0x000000000802e5f0        0x8 build/py/modgc.o
                0x000000000802e5f0                gc_enable_obj
 .rodata.gc_isenabled_obj
                0x000000000802e5f8        0x8 build/py/modgc.o
                0x000000000802e5f8                gc_isenabled_obj
 .rodata.gc_mem_alloc_obj
                0x000000000802e600        0x8 build/py/modgc.o
                0x000000000802e600                gc_mem_alloc_obj
 .rodata.gc_mem_free_obj
                0x000000000802e608        0x8 build/py/modgc.o
                0x000000000802e608                gc_mem_free_obj
 .rodata.gc_threshold_obj
                0x000000000802e610        0xc build/py/modgc.o
                0x000000000802e610                gc_threshold_obj
 .rodata.mp_module_gc
                0x000000000802e61c        0x8 build/py/modgc.o
                0x000000000802e61c                mp_module_gc
 .rodata.mp_module_gc_globals
                0x000000000802e624       0x10 build/py/modgc.o
 .rodata.mp_module_gc_globals_table
                0x000000000802e634       0x40 build/py/modgc.o
 .rodata.mp_module_io
                0x000000000802e674        0x8 build/py/modio.o
                0x000000000802e674                mp_module_io
 .rodata.mp_module_io_globals
                0x000000000802e67c       0x10 build/py/modio.o
 .rodata.mp_module_io_globals_table
                0x000000000802e68c       0x38 build/py/modio.o
 .rodata.resource_stream_obj
                0x000000000802e6c4        0x8 build/py/modio.o
 .rodata.math_generic_1.str1.4
                0x000000000802e6cc       0x12 build/py/modmath.o
 *fill*         0x000000000802e6de        0x2 
 .rodata.mp_math_acos_obj
                0x000000000802e6e0        0x8 build/py/modmath.o
 .rodata.mp_math_acosh_obj
                0x000000000802e6e8        0x8 build/py/modmath.o
 .rodata.mp_math_asin_obj
                0x000000000802e6f0        0x8 build/py/modmath.o
 .rodata.mp_math_asinh_obj
                0x000000000802e6f8        0x8 build/py/modmath.o
 .rodata.mp_math_atan2_obj
                0x000000000802e700        0x8 build/py/modmath.o
 .rodata.mp_math_atan_obj
                0x000000000802e708        0x8 build/py/modmath.o
 .rodata.mp_math_atanh_obj
                0x000000000802e710        0x8 build/py/modmath.o
 .rodata.mp_math_ceil_obj
                0x000000000802e718        0x8 build/py/modmath.o
 .rodata.mp_math_copysign_obj
                0x000000000802e720        0x8 build/py/modmath.o
 .rodata.mp_math_cos_obj
                0x000000000802e728        0x8 build/py/modmath.o
 .rodata.mp_math_cosh_obj
                0x000000000802e730        0x8 build/py/modmath.o
 .rodata.mp_math_degrees_obj
                0x000000000802e738        0x8 build/py/modmath.o
 .rodata.mp_math_erf_obj
                0x000000000802e740        0x8 build/py/modmath.o
 .rodata.mp_math_erfc_obj
                0x000000000802e748        0x8 build/py/modmath.o
 .rodata.mp_math_exp_obj
                0x000000000802e750        0x8 build/py/modmath.o
 .rodata.mp_math_expm1_obj
                0x000000000802e758        0x8 build/py/modmath.o
 .rodata.mp_math_fabs_obj
                0x000000000802e760        0x8 build/py/modmath.o
 .rodata.mp_math_floor_obj
                0x000000000802e768        0x8 build/py/modmath.o
 .rodata.mp_math_fmod_obj
                0x000000000802e770        0x8 build/py/modmath.o
 .rodata.mp_math_frexp_obj
                0x000000000802e778        0x8 build/py/modmath.o
 .rodata.mp_math_gamma_obj
                0x000000000802e780        0x8 build/py/modmath.o
 .rodata.mp_math_isfinite_obj
                0x000000000802e788        0x8 build/py/modmath.o
 .rodata.mp_math_isinf_obj
                0x000000000802e790        0x8 build/py/modmath.o
 .rodata.mp_math_isnan_obj
                0x000000000802e798        0x8 build/py/modmath.o
 .rodata.mp_math_ldexp_obj
                0x000000000802e7a0        0x8 build/py/modmath.o
 .rodata.mp_math_lgamma_obj
                0x000000000802e7a8        0x8 build/py/modmath.o
 .rodata.mp_math_log.str1.4
                0x000000000802e7b0        0xf build/py/modmath.o
 .rodata.mp_math_log10_obj
                0x000000000802e7b0        0x8 build/py/modmath.o
 .rodata.mp_math_log2_obj
                0x000000000802e7b8        0x8 build/py/modmath.o
 .rodata.mp_math_log_obj
                0x000000000802e7c0        0xc build/py/modmath.o
 .rodata.mp_math_modf_obj
                0x000000000802e7cc        0x8 build/py/modmath.o
 .rodata.mp_math_pow_obj
                0x000000000802e7d4        0x8 build/py/modmath.o
 .rodata.mp_math_radians_obj
                0x000000000802e7dc        0x8 build/py/modmath.o
 .rodata.mp_math_sin_obj
                0x000000000802e7e4        0x8 build/py/modmath.o
 .rodata.mp_math_sinh_obj
                0x000000000802e7ec        0x8 build/py/modmath.o
 .rodata.mp_math_sqrt_obj
                0x000000000802e7f4        0x8 build/py/modmath.o
 .rodata.mp_math_tan_obj
                0x000000000802e7fc        0x8 build/py/modmath.o
 .rodata.mp_math_tanh_obj
                0x000000000802e804        0x8 build/py/modmath.o
 .rodata.mp_math_trunc_obj
                0x000000000802e80c        0x8 build/py/modmath.o
 .rodata.mp_module_math
                0x000000000802e814        0x8 build/py/modmath.o
                0x000000000802e814                mp_module_math
 .rodata.mp_module_math_globals
                0x000000000802e81c       0x10 build/py/modmath.o
 .rodata.mp_module_math_globals_table
                0x000000000802e82c      0x148 build/py/modmath.o
 .rodata.mp_cmath_cos_obj
                0x000000000802e974        0x8 build/py/modcmath.o
 .rodata.mp_cmath_exp_obj
                0x000000000802e97c        0x8 build/py/modcmath.o
 .rodata.mp_cmath_log10_obj
                0x000000000802e984        0x8 build/py/modcmath.o
 .rodata.mp_cmath_log_obj
                0x000000000802e98c        0x8 build/py/modcmath.o
 .rodata.mp_cmath_phase_obj
                0x000000000802e994        0x8 build/py/modcmath.o
 .rodata.mp_cmath_polar_obj
                0x000000000802e99c        0x8 build/py/modcmath.o
 .rodata.mp_cmath_rect_obj
                0x000000000802e9a4        0x8 build/py/modcmath.o
 .rodata.mp_cmath_sin_obj
                0x000000000802e9ac        0x8 build/py/modcmath.o
 .rodata.mp_cmath_sqrt_obj
                0x000000000802e9b4        0x8 build/py/modcmath.o
 .rodata.mp_module_cmath
                0x000000000802e9bc        0x8 build/py/modcmath.o
                0x000000000802e9bc                mp_module_cmath
 .rodata.mp_module_cmath_globals
                0x000000000802e9c4       0x10 build/py/modcmath.o
 .rodata.mp_module_cmath_globals_table
                0x000000000802e9d4       0x60 build/py/modcmath.o
 .rodata.mp_micropython_heap_lock_obj
                0x000000000802ea34        0x8 build/py/modmicropython.o
 .rodata.mp_micropython_heap_unlock_obj
                0x000000000802ea3c        0x8 build/py/modmicropython.o
 .rodata.mp_micropython_kbd_intr_obj
                0x000000000802ea44        0x8 build/py/modmicropython.o
 .rodata.mp_micropython_mem_current_obj
                0x000000000802ea4c        0x8 build/py/modmicropython.o
 .rodata.mp_micropython_mem_info.str1.4
                0x000000000802ea54       0x39 build/py/modmicropython.o
 *fill*         0x000000000802ea8d        0x3 
 .rodata.mp_micropython_mem_info_obj
                0x000000000802ea90        0xc build/py/modmicropython.o
 .rodata.mp_micropython_mem_peak_obj
                0x000000000802ea9c        0x8 build/py/modmicropython.o
 .rodata.mp_micropython_mem_total_obj
                0x000000000802eaa4        0x8 build/py/modmicropython.o
 .rodata.mp_micropython_opt_level_obj
                0x000000000802eaac        0xc build/py/modmicropython.o
 .rodata.mp_micropython_pystack_use_obj
                0x000000000802eab8        0x8 build/py/modmicropython.o
 .rodata.mp_micropython_qstr_info.str1.4
                0x000000000802eac0       0x48 build/py/modmicropython.o
 .rodata.mp_micropython_qstr_info_obj
                0x000000000802eb08        0xc build/py/modmicropython.o
 .rodata.mp_micropython_schedule.str1.4
                0x000000000802eb14       0x14 build/py/modmicropython.o
 .rodata.mp_micropython_schedule_obj
                0x000000000802eb28        0x8 build/py/modmicropython.o
 .rodata.mp_micropython_stack_use_obj
                0x000000000802eb30        0x8 build/py/modmicropython.o
 .rodata.mp_module_micropython
                0x000000000802eb38        0x8 build/py/modmicropython.o
                0x000000000802eb38                mp_module_micropython
 .rodata.mp_module_micropython_globals
                0x000000000802eb40       0x10 build/py/modmicropython.o
 .rodata.mp_module_micropython_globals_table
                0x000000000802eb50       0x70 build/py/modmicropython.o
 .rodata.mp_module_struct_globals
                0x000000000802ebc0       0x10 build/py/modstruct.o
 .rodata.mp_module_struct_globals_table
                0x000000000802ebd0       0x30 build/py/modstruct.o
 .rodata.mp_module_ustruct
                0x000000000802ec00        0x8 build/py/modstruct.o
                0x000000000802ec00                mp_module_ustruct
 .rodata.struct_calcsize_obj
                0x000000000802ec08        0x8 build/py/modstruct.o
                0x000000000802ec08                struct_calcsize_obj
 .rodata.struct_pack_into_obj
                0x000000000802ec10        0xc build/py/modstruct.o
                0x000000000802ec10                struct_pack_into_obj
 .rodata.struct_pack_obj
                0x000000000802ec1c        0xc build/py/modstruct.o
                0x000000000802ec1c                struct_pack_obj
 .rodata.struct_unpack_from.str1.4
                0x000000000802ec28       0x11 build/py/modstruct.o
 *fill*         0x000000000802ec39        0x3 
 .rodata.struct_unpack_from_obj
                0x000000000802ec3c        0xc build/py/modstruct.o
                0x000000000802ec3c                struct_unpack_from_obj
 .rodata.impl_fields
                0x000000000802ec48        0x8 build/py/modsys.o
 .rodata.mp_module_sys
                0x000000000802ec50        0x8 build/py/modsys.o
                0x000000000802ec50                mp_module_sys
 .rodata.mp_module_sys_globals
                0x000000000802ec58       0x10 build/py/modsys.o
 .rodata.mp_module_sys_globals_table
                0x000000000802ec68       0x80 build/py/modsys.o
 .rodata.mp_sys_exc_info_obj
                0x000000000802ece8        0x8 build/py/modsys.o
                0x000000000802ece8                mp_sys_exc_info_obj
 .rodata.mp_sys_exit_obj
                0x000000000802ecf0        0xc build/py/modsys.o
                0x000000000802ecf0                mp_sys_exit_obj
 .rodata.mp_sys_getsizeof_obj
                0x000000000802ecfc        0x8 build/py/modsys.o
 .rodata.mp_sys_implementation_obj
                0x000000000802ed04       0x14 build/py/modsys.o
 .rodata.mp_sys_implementation_version_info_obj
                0x000000000802ed18       0x14 build/py/modsys.o
 .rodata.mp_sys_print_exception_obj
                0x000000000802ed2c        0xc build/py/modsys.o
                0x000000000802ed2c                mp_sys_print_exception_obj
 .rodata.mp_sys_stdout_print
                0x000000000802ed38        0x8 build/py/modsys.o
                0x000000000802ed38                mp_sys_stdout_print
 .rodata.mp_sys_version_info_obj
                0x000000000802ed40       0x14 build/py/modsys.o
 .rodata.str1.4
                0x000000000802ed54        0x6 build/py/modsys.o
 *fill*         0x000000000802ed5a        0x2 
 .rodata.version_obj
                0x000000000802ed5c       0x10 build/py/modsys.o
 .rodata.errorcode_dict
                0x000000000802ed6c       0x10 build/py/moduerrno.o
 .rodata.errorcode_table
                0x000000000802ed7c       0xb0 build/py/moduerrno.o
 .rodata.mp_module_uerrno
                0x000000000802ee2c        0x8 build/py/moduerrno.o
                0x000000000802ee2c                mp_module_uerrno
 .rodata.mp_module_uerrno_globals
                0x000000000802ee34       0x10 build/py/moduerrno.o
 .rodata.mp_module_uerrno_globals_table
                0x000000000802ee44       0xc0 build/py/moduerrno.o
 .rodata.entry_table.7065
                0x000000000802ef04      0x400 build/py/vm.o
 .rodata.mp_execute_bytecode.str1.4
                0x000000000802f304       0x8b build/py/vm.o
 .rodata.fun_pos_args_mismatch.str1.4
                0x000000000802f38f       0x35 build/py/bc.o
 *fill*         0x000000000802f38f        0x1 
 .rodata.mp_setup_code_state.str1.4
                0x000000000802f390       0x8b build/py/bc.o
                                         0xdf (size before relaxing)
 *fill*         0x000000000802f41b        0x1 
 .rodata.opcode_format_table
                0x000000000802f41c       0x40 build/py/bc.o
 .rodata.import_str.6532
                0x000000000802f45c        0x8 build/py/repl.o
 .rodata.mp_repl_autocomplete.str1.4
                0x000000000802f464        0x4 build/py/repl.o
                                          0xa (size before relaxing)
 .rodata.mp_repl_continue_with_input.str1.4
                0x000000000802f468       0x2e build/py/repl.o
 .rodata.get_aligned
                0x000000000802f468       0x40 build/extmod/moductypes.o
 .rodata.set_aligned
                0x000000000802f4a8       0x20 build/extmod/moductypes.o
 .rodata.mp_module_uctypes
                0x000000000802f4c8        0x8 build/extmod/moductypes.o
                0x000000000802f4c8                mp_module_uctypes
 .rodata.mp_module_uctypes_globals
                0x000000000802f4d0       0x10 build/extmod/moductypes.o
 .rodata.mp_module_uctypes_globals_table
                0x000000000802f4e0       0xf0 build/extmod/moductypes.o
 .rodata.type2char.6523
                0x000000000802f5d0       0x10 build/extmod/moductypes.o
 .rodata.uctypes_struct_addressof_obj
                0x000000000802f5e0        0x8 build/extmod/moductypes.o
                0x000000000802f5e0                uctypes_struct_addressof_obj
 .rodata.uctypes_struct_attr_op.str1.4
                0x000000000802f5e8       0x12 build/extmod/moductypes.o
 *fill*         0x000000000802f5fa        0x2 
 .rodata.uctypes_struct_bytearray_at_obj
                0x000000000802f5fc        0x8 build/extmod/moductypes.o
                0x000000000802f5fc                uctypes_struct_bytearray_at_obj
 .rodata.uctypes_struct_bytes_at_obj
                0x000000000802f604        0x8 build/extmod/moductypes.o
                0x000000000802f604                uctypes_struct_bytes_at_obj
 .rodata.uctypes_struct_print.str1.4
                0x000000000802f60c       0x2f build/extmod/moductypes.o
 *fill*         0x000000000802f63b        0x1 
 .rodata.uctypes_struct_size.str1.4
                0x000000000802f63c       0x4b build/extmod/moductypes.o
 *fill*         0x000000000802f687        0x1 
 .rodata.uctypes_struct_sizeof_obj
                0x000000000802f688        0x8 build/extmod/moductypes.o
 .rodata.uctypes_struct_subscr.str1.4
                0x000000000802f690       0x33 build/extmod/moductypes.o
 *fill*         0x000000000802f6c3        0x1 
 .rodata.uctypes_struct_type
                0x000000000802f6c4       0x3c build/extmod/moductypes.o
 .rodata.mod_ujson_load
                0x000000000802f700      0x224 build/extmod/modujson.o
 .rodata.mod_ujson_dump_obj
                0x000000000802f924        0x8 build/extmod/modujson.o
 .rodata.mod_ujson_dumps_obj
                0x000000000802f92c        0x8 build/extmod/modujson.o
 .rodata.mod_ujson_load.str1.4
                0x000000000802f934       0x15 build/extmod/modujson.o
 *fill*         0x000000000802f949        0x3 
 .rodata.mod_ujson_load_obj
                0x000000000802f94c        0x8 build/extmod/modujson.o
 .rodata.mod_ujson_loads_obj
                0x000000000802f954        0x8 build/extmod/modujson.o
 .rodata.mp_module_ujson
                0x000000000802f95c        0x8 build/extmod/modujson.o
                0x000000000802f95c                mp_module_ujson
 .rodata.mp_module_ujson_globals
                0x000000000802f964       0x10 build/extmod/modujson.o
 .rodata.mp_module_ujson_globals_table
                0x000000000802f974       0x28 build/extmod/modujson.o
 .rodata._compilecode
                0x000000000802f99c      0x164 build/extmod/modure.o
 .rodata.match_end_obj
                0x000000000802fb00        0xc build/extmod/modure.o
                0x000000000802fb00                match_end_obj
 .rodata.match_group_obj
                0x000000000802fb0c        0x8 build/extmod/modure.o
                0x000000000802fb0c                match_group_obj
 .rodata.match_groups_obj
                0x000000000802fb14        0x8 build/extmod/modure.o
                0x000000000802fb14                match_groups_obj
 .rodata.match_locals_dict
                0x000000000802fb1c       0x10 build/extmod/modure.o
 .rodata.match_locals_dict_table
                0x000000000802fb2c       0x28 build/extmod/modure.o
 .rodata.match_print.str1.4
                0x000000000802fb54        0xf build/extmod/modure.o
 *fill*         0x000000000802fb63        0x1 
 .rodata.match_span_obj
                0x000000000802fb64        0xc build/extmod/modure.o
                0x000000000802fb64                match_span_obj
 .rodata.match_start_obj
                0x000000000802fb70        0xc build/extmod/modure.o
                0x000000000802fb70                match_start_obj
 .rodata.match_type
                0x000000000802fb7c       0x3c build/extmod/modure.o
 .rodata.mod_re_compile.str1.4
                0x000000000802fbb8        0xf build/extmod/modure.o
 *fill*         0x000000000802fbc7        0x1 
 .rodata.mod_re_compile_obj
                0x000000000802fbc8        0xc build/extmod/modure.o
                0x000000000802fbc8                mod_re_compile_obj
 .rodata.mod_re_match_obj
                0x000000000802fbd4        0xc build/extmod/modure.o
                0x000000000802fbd4                mod_re_match_obj
 .rodata.mod_re_search_obj
                0x000000000802fbe0        0xc build/extmod/modure.o
                0x000000000802fbe0                mod_re_search_obj
 .rodata.mod_re_sub_obj
                0x000000000802fbec        0xc build/extmod/modure.o
                0x000000000802fbec                mod_re_sub_obj
 .rodata.mp_module_re_globals
                0x000000000802fbf8       0x10 build/extmod/modure.o
 .rodata.mp_module_re_globals_table
                0x000000000802fc08       0x30 build/extmod/modure.o
 .rodata.mp_module_ure
                0x000000000802fc38        0x8 build/extmod/modure.o
                0x000000000802fc38                mp_module_ure
 .rodata.re1_5_dumpcode.str1.4
                0x000000000802fc40       0xb6 build/extmod/modure.o
                                         0xbe (size before relaxing)
 *fill*         0x000000000802fcf6        0x2 
 .rodata.re_locals_dict
                0x000000000802fcf8       0x10 build/extmod/modure.o
 .rodata.re_locals_dict_table
                0x000000000802fd08       0x20 build/extmod/modure.o
 .rodata.re_match_obj
                0x000000000802fd28        0xc build/extmod/modure.o
                0x000000000802fd28                re_match_obj
 .rodata.re_print.str1.4
                0x000000000802fd34        0x8 build/extmod/modure.o
 .rodata.re_search_obj
                0x000000000802fd3c        0xc build/extmod/modure.o
                0x000000000802fd3c                re_search_obj
 .rodata.re_split.str1.4
                0x000000000802fd48       0x1c build/extmod/modure.o
 .rodata.re_split_obj
                0x000000000802fd64        0xc build/extmod/modure.o
                0x000000000802fd64                re_split_obj
 .rodata.re_sub_obj
                0x000000000802fd70        0xc build/extmod/modure.o
                0x000000000802fd70                re_sub_obj
 .rodata.re_type
                0x000000000802fd7c       0x3c build/extmod/modure.o
 .rodata.clcidx
                0x000000000802fdb8       0x13 build/extmod/moduzlib.o
                0x000000000802fdb8                clcidx
 *fill*         0x000000000802fdcb        0x1 
 .rodata.decompio_locals_dict
                0x000000000802fdcc       0x10 build/extmod/moduzlib.o
 .rodata.decompio_locals_dict_table
                0x000000000802fddc       0x18 build/extmod/moduzlib.o
 .rodata.decompio_make_new.str1.4
                0x000000000802fdf4       0x13 build/extmod/moduzlib.o
 *fill*         0x000000000802fe07        0x1 
 .rodata.decompio_stream_p
                0x000000000802fe08       0x10 build/extmod/moduzlib.o
 .rodata.decompio_type
                0x000000000802fe18       0x3c build/extmod/moduzlib.o
 .rodata.dist_base
                0x000000000802fe54       0x3c build/extmod/moduzlib.o
                0x000000000802fe54                dist_base
 .rodata.dist_bits
                0x000000000802fe90       0x1e build/extmod/moduzlib.o
                0x000000000802fe90                dist_bits
 *fill*         0x000000000802feae        0x2 
 .rodata.length_base
                0x000000000802feb0       0x3c build/extmod/moduzlib.o
                0x000000000802feb0                length_base
 .rodata.length_bits
                0x000000000802feec       0x1e build/extmod/moduzlib.o
                0x000000000802feec                length_bits
 *fill*         0x000000000802ff0a        0x2 
 .rodata.mod_uzlib_decompress_obj
                0x000000000802ff0c        0xc build/extmod/moduzlib.o
 .rodata.mp_module_uzlib
                0x000000000802ff18        0x8 build/extmod/moduzlib.o
                0x000000000802ff18                mp_module_uzlib
 .rodata.mp_module_uzlib_globals
                0x000000000802ff20       0x10 build/extmod/moduzlib.o
 .rodata.mp_module_uzlib_globals_table
                0x000000000802ff30       0x18 build/extmod/moduzlib.o
 .rodata.tinf_crc32tab
                0x000000000802ff48       0x40 build/extmod/moduzlib.o
 .rodata.mod_uheapq_heapify.str1.4
                0x000000000802ff88       0x14 build/extmod/moduheapq.o
 .rodata.mod_uheapq_heapify_obj
                0x000000000802ff9c        0x8 build/extmod/moduheapq.o
 .rodata.mod_uheapq_heappop.str1.4
                0x000000000802ffa4        0xb build/extmod/moduheapq.o
 *fill*         0x000000000802ffaf        0x1 
 .rodata.mod_uheapq_heappop_obj
                0x000000000802ffb0        0x8 build/extmod/moduheapq.o
 .rodata.mod_uheapq_heappush_obj
                0x000000000802ffb8        0x8 build/extmod/moduheapq.o
 .rodata.mp_module_uheapq
                0x000000000802ffc0        0x8 build/extmod/moduheapq.o
                0x000000000802ffc0                mp_module_uheapq
 .rodata.mp_module_uheapq_globals
                0x000000000802ffc8       0x10 build/extmod/moduheapq.o
 .rodata.mp_module_uheapq_globals_table
                0x000000000802ffd8       0x20 build/extmod/moduheapq.o
 .rodata.mod_utimeq_heappop_obj
                0x000000000802fff8        0x8 build/extmod/modutimeq.o
 .rodata.mod_utimeq_heappush.str1.4
                0x0000000008030000        0xf build/extmod/modutimeq.o
 *fill*         0x000000000803000f        0x1 
 .rodata.mod_utimeq_heappush_obj
                0x0000000008030010        0xc build/extmod/modutimeq.o
 .rodata.mod_utimeq_peektime.str1.4
                0x000000000803001c        0xb build/extmod/modutimeq.o
 .rodata.mod_utimeq_peektime_obj
                0x000000000803001c        0x8 build/extmod/modutimeq.o
 .rodata.mp_module_utimeq
                0x0000000008030024        0x8 build/extmod/modutimeq.o
                0x0000000008030024                mp_module_utimeq
 .rodata.mp_module_utimeq_globals
                0x000000000803002c       0x10 build/extmod/modutimeq.o
 .rodata.mp_module_utimeq_globals_table
                0x000000000803003c       0x10 build/extmod/modutimeq.o
 .rodata.utimeq_locals_dict
                0x000000000803004c       0x10 build/extmod/modutimeq.o
 .rodata.utimeq_locals_dict_table
                0x000000000803005c       0x18 build/extmod/modutimeq.o
 .rodata.utimeq_type
                0x0000000008030074       0x3c build/extmod/modutimeq.o
 .rodata.k      0x00000000080300b0      0x100 build/extmod/moduhashlib.o
 .rodata.mp_module_uhashlib
                0x00000000080301b0        0x8 build/extmod/moduhashlib.o
                0x00000000080301b0                mp_module_uhashlib
 .rodata.mp_module_uhashlib_globals
                0x00000000080301b8       0x10 build/extmod/moduhashlib.o
 .rodata.mp_module_uhashlib_globals_table
                0x00000000080301c8       0x10 build/extmod/moduhashlib.o
 .rodata.uhashlib_sha256_digest_obj
                0x00000000080301d8        0x8 build/extmod/moduhashlib.o
 .rodata.uhashlib_sha256_locals_dict
                0x00000000080301e0       0x10 build/extmod/moduhashlib.o
 .rodata.uhashlib_sha256_locals_dict_table
                0x00000000080301f0       0x10 build/extmod/moduhashlib.o
 .rodata.uhashlib_sha256_type
                0x0000000008030200       0x3c build/extmod/moduhashlib.o
 .rodata.uhashlib_sha256_update_obj
                0x000000000803023c        0x8 build/extmod/moduhashlib.o
 .rodata.mod_binascii_a2b_base64.str1.4
                0x0000000008030244       0x12 build/extmod/modubinascii.o
 *fill*         0x0000000008030256        0x2 
 .rodata.mod_binascii_a2b_base64_obj
                0x0000000008030258        0x8 build/extmod/modubinascii.o
                0x0000000008030258                mod_binascii_a2b_base64_obj
 .rodata.mod_binascii_b2a_base64_obj
                0x0000000008030260        0x8 build/extmod/modubinascii.o
                0x0000000008030260                mod_binascii_b2a_base64_obj
 .rodata.mod_binascii_crc32_obj
                0x0000000008030268        0xc build/extmod/modubinascii.o
                0x0000000008030268                mod_binascii_crc32_obj
 .rodata.mod_binascii_hexlify_obj
                0x0000000008030274        0xc build/extmod/modubinascii.o
                0x0000000008030274                mod_binascii_hexlify_obj
 .rodata.mod_binascii_unhexlify.str1.4
                0x0000000008030280       0x28 build/extmod/modubinascii.o
 .rodata.mod_binascii_unhexlify_obj
                0x00000000080302a8        0x8 build/extmod/modubinascii.o
                0x00000000080302a8                mod_binascii_unhexlify_obj
 .rodata.mp_module_binascii_globals
                0x00000000080302b0       0x10 build/extmod/modubinascii.o
 .rodata.mp_module_binascii_globals_table
                0x00000000080302c0       0x30 build/extmod/modubinascii.o
 .rodata.mp_module_ubinascii
                0x00000000080302f0        0x8 build/extmod/modubinascii.o
                0x00000000080302f0                mp_module_ubinascii
 .rodata.mod_urandom_choice_obj
                0x00000000080302f8        0x8 build/extmod/modurandom.o
 .rodata.mod_urandom_getrandbits_obj
                0x0000000008030300        0x8 build/extmod/modurandom.o
 .rodata.mod_urandom_randint_obj
                0x0000000008030308        0x8 build/extmod/modurandom.o
 .rodata.mod_urandom_random_obj
                0x0000000008030310        0x8 build/extmod/modurandom.o
 .rodata.mod_urandom_randrange_obj
                0x0000000008030318        0xc build/extmod/modurandom.o
 .rodata.mod_urandom_seed_obj
                0x0000000008030324        0x8 build/extmod/modurandom.o
 .rodata.mod_urandom_uniform_obj
                0x000000000803032c        0x8 build/extmod/modurandom.o
 .rodata.mp_module_urandom
                0x0000000008030334        0x8 build/extmod/modurandom.o
                0x0000000008030334                mp_module_urandom
 .rodata.mp_module_urandom_globals
                0x000000000803033c       0x10 build/extmod/modurandom.o
 .rodata.mp_module_urandom_globals_table
                0x000000000803034c       0x40 build/extmod/modurandom.o
 .rodata.allowed_args.6711
                0x000000000803038c       0x10 build/extmod/vfs.o
 .rodata.allowed_args.6745
                0x000000000803039c       0x20 build/extmod/vfs.o
 .rodata.mp_vfs_chdir_obj
                0x00000000080303bc        0x8 build/extmod/vfs.o
                0x00000000080303bc                mp_vfs_chdir_obj
 .rodata.mp_vfs_getcwd_obj
                0x00000000080303c4        0x8 build/extmod/vfs.o
                0x00000000080303c4                mp_vfs_getcwd_obj
 .rodata.mp_vfs_ilistdir_obj
                0x00000000080303cc        0xc build/extmod/vfs.o
                0x00000000080303cc                mp_vfs_ilistdir_obj
 .rodata.mp_vfs_listdir_obj
                0x00000000080303d8        0xc build/extmod/vfs.o
                0x00000000080303d8                mp_vfs_listdir_obj
 .rodata.mp_vfs_lookup_path.str1.4
                0x00000000080303e4        0x2 build/extmod/vfs.o
 *fill*         0x00000000080303e6        0x2 
 .rodata.mp_vfs_mkdir_obj
                0x00000000080303e8        0x8 build/extmod/vfs.o
                0x00000000080303e8                mp_vfs_mkdir_obj
 .rodata.mp_vfs_mount_obj
                0x00000000080303f0        0xc build/extmod/vfs.o
                0x00000000080303f0                mp_vfs_mount_obj
 .rodata.mp_vfs_open_obj
                0x00000000080303fc        0xc build/extmod/vfs.o
                0x00000000080303fc                mp_vfs_open_obj
 .rodata.mp_vfs_remove_obj
                0x0000000008030408        0x8 build/extmod/vfs.o
                0x0000000008030408                mp_vfs_remove_obj
 .rodata.mp_vfs_rename_obj
                0x0000000008030410        0x8 build/extmod/vfs.o
                0x0000000008030410                mp_vfs_rename_obj
 .rodata.mp_vfs_rmdir_obj
                0x0000000008030418        0x8 build/extmod/vfs.o
                0x0000000008030418                mp_vfs_rmdir_obj
 .rodata.mp_vfs_stat_obj
                0x0000000008030420        0x8 build/extmod/vfs.o
                0x0000000008030420                mp_vfs_stat_obj
 .rodata.mp_vfs_statvfs_obj
                0x0000000008030428        0x8 build/extmod/vfs.o
                0x0000000008030428                mp_vfs_statvfs_obj
 .rodata.mp_vfs_umount_obj
                0x0000000008030430        0x8 build/extmod/vfs.o
                0x0000000008030430                mp_vfs_umount_obj
 .rodata.mp_utime_sleep_ms_obj
                0x0000000008030438        0x8 build/extmod/utime_mphal.o
                0x0000000008030438                mp_utime_sleep_ms_obj
 .rodata.mp_utime_sleep_obj
                0x0000000008030440        0x8 build/extmod/utime_mphal.o
                0x0000000008030440                mp_utime_sleep_obj
 .rodata.mp_utime_sleep_us_obj
                0x0000000008030448        0x8 build/extmod/utime_mphal.o
                0x0000000008030448                mp_utime_sleep_us_obj
 .rodata.mp_utime_ticks_add_obj
                0x0000000008030450        0x8 build/extmod/utime_mphal.o
                0x0000000008030450                mp_utime_ticks_add_obj
 .rodata.mp_utime_ticks_cpu_obj
                0x0000000008030458        0x8 build/extmod/utime_mphal.o
                0x0000000008030458                mp_utime_ticks_cpu_obj
 .rodata.mp_utime_ticks_diff_obj
                0x0000000008030460        0x8 build/extmod/utime_mphal.o
                0x0000000008030460                mp_utime_ticks_diff_obj
 .rodata.mp_utime_ticks_ms_obj
                0x0000000008030468        0x8 build/extmod/utime_mphal.o
                0x0000000008030468                mp_utime_ticks_ms_obj
 .rodata.mp_utime_ticks_us_obj
                0x0000000008030470        0x8 build/extmod/utime_mphal.o
                0x0000000008030470                mp_utime_ticks_us_obj
 .rodata.mp_frozen_str_content
                0x0000000008030478     0x201f build/build/frozen.o
                0x0000000008030478                mp_frozen_str_content
 *fill*         0x0000000008032497        0x1 
 .rodata.mp_frozen_str_names
                0x0000000008032498        0xd build/build/frozen.o
                0x0000000008032498                mp_frozen_str_names
 *fill*         0x00000000080324a5        0x3 
 .rodata.mp_frozen_str_sizes
                0x00000000080324a8        0x4 build/build/frozen.o
                0x00000000080324a8                mp_frozen_str_sizes
 .rodata.const_obj_bios__lt_module_gt__bios_0
                0x00000000080324ac       0x10 build/build/frozen_mpy.o
 .rodata.const_obj_bios__lt_module_gt__bios_1
                0x00000000080324bc       0x10 build/build/frozen_mpy.o
 .rodata.const_obj_bios__lt_module_gt__bios_2
                0x00000000080324cc       0x10 build/build/frozen_mpy.o
 .rodata.const_table_data_bios__lt_module_gt_
                0x00000000080324dc        0x4 build/build/frozen_mpy.o
 .rodata.const_table_data_bios__lt_module_gt__bios
                0x00000000080324e0        0xc build/build/frozen_mpy.o
 .rodata.mp_frozen_mpy_content
                0x00000000080324ec        0x4 build/build/frozen_mpy.o
                0x00000000080324ec                mp_frozen_mpy_content
 .rodata.mp_frozen_mpy_names
                0x00000000080324f0        0xa build/build/frozen_mpy.o
                0x00000000080324f0                mp_frozen_mpy_names
 *fill*         0x00000000080324fa        0x2 
 .rodata.mp_qstr_frozen_const_pool
                0x00000000080324fc       0x24 build/build/frozen_mpy.o
                0x00000000080324fc                mp_qstr_frozen_const_pool
 .rodata.raw_code_bios__lt_module_gt_
                0x0000000008032520       0x10 build/build/frozen_mpy.o
                0x0000000008032520                raw_code_bios__lt_module_gt_
 .rodata.raw_code_bios__lt_module_gt__bios
                0x0000000008032530       0x10 build/build/frozen_mpy.o
 .rodata.str1.4
                0x0000000008032540      0x70c build/build/frozen_mpy.o
 .rodata.do_frozen.str1.4
                0x0000000008032c4c       0x1d build/main.o
 *fill*         0x0000000008032c69        0x3 
 .rodata.main.str1.4
                0x0000000008032c6c        0x8 build/main.o
 .rodata.openpython_help_text
                0x0000000008032c74       0x9f build/help.o
                0x0000000008032c74                openpython_help_text
 *fill*         0x0000000008032d13        0x1 
 .rodata.Call_Handler
                0x0000000008032d14       0x14 build/machine.o
 .rodata.Call_Handler.str1.4
                0x0000000008032d28       0x20 build/machine.o
 .rodata.mp_type_SystemError
                0x0000000008032d48       0x3c build/machine.o
                0x0000000008032d48                mp_type_SystemError
 .rodata.nlr_jump_fail.str1.4
                0x0000000008032d84        0xe build/machine.o
 *fill*         0x0000000008032d92        0x2 
 .rodata.mp_hal_delay_ms.str1.4
                0x0000000008032d94       0x14 build/mphalport.o
 .rodata.machine_debug_obj
                0x0000000008032da8        0x8 build/modmachine.o
                0x0000000008032da8                machine_debug_obj
 .rodata.machine_hook_signal_obj
                0x0000000008032db0        0x8 build/modmachine.o
                0x0000000008032db0                machine_hook_signal_obj
 .rodata.machine_hook_stderr_obj
                0x0000000008032db8        0x8 build/modmachine.o
                0x0000000008032db8                machine_hook_stderr_obj
 .rodata.machine_hook_stdin_obj
                0x0000000008032dc0        0x8 build/modmachine.o
                0x0000000008032dc0                machine_hook_stdin_obj
 .rodata.machine_hook_stdout_obj
                0x0000000008032dc8        0x8 build/modmachine.o
                0x0000000008032dc8                machine_hook_stdout_obj
 .rodata.machine_module_globals
                0x0000000008032dd0       0x10 build/modmachine.o
 .rodata.machine_module_globals_table
                0x0000000008032de0       0x30 build/modmachine.o
 .rodata.mp_module_machine
                0x0000000008032e10        0x8 build/modmachine.o
                0x0000000008032e10                mp_module_machine
 .rodata.mp_module_ucode
                0x0000000008032e18        0x8 build/moducode.o
                0x0000000008032e18                mp_module_ucode
 .rodata.str1.4
                0x0000000008032e20       0x3e build/moducode.o
 *fill*         0x0000000008032e5e        0x2 
 .rodata.ucode_MICROPY_BUILD_DATE_obj
                0x0000000008032e60       0x10 build/moducode.o
 .rodata.ucode_MICROPY_GIT_TAG_obj
                0x0000000008032e70       0x10 build/moducode.o
 .rodata.ucode_MICROPY_HW_BOARD_NAME_obj
                0x0000000008032e80       0x10 build/moducode.o
 .rodata.ucode_MICROPY_HW_MCU_NAME_obj
                0x0000000008032e90       0x10 build/moducode.o
 .rodata.ucode_module_globals
                0x0000000008032ea0       0x10 build/moducode.o
 .rodata.ucode_module_globals_table
                0x0000000008032eb0       0x40 build/moducode.o
 .rodata.ucode_repl_call.str1.4
                0x0000000008032ef0       0x14 build/moducode.o
 .rodata.ucode_repl_call_obj
                0x0000000008032f04        0x8 build/moducode.o
                0x0000000008032f04                ucode_repl_call_obj
 .rodata.ucode_repl_compile.str1.4
                0x0000000008032f0c       0x15 build/moducode.o
 *fill*         0x0000000008032f21        0x3 
 .rodata.ucode_repl_compile_obj
                0x0000000008032f24        0x8 build/moducode.o
                0x0000000008032f24                ucode_repl_compile_obj
 .rodata.ucode_repl_input.str1.4
                0x0000000008032f2c        0xd build/moducode.o
                                         0x13 (size before relaxing)
 *fill*         0x0000000008032f39        0x3 
 .rodata.ucode_repl_input_obj
                0x0000000008032f3c        0x8 build/moducode.o
                0x0000000008032f3c                ucode_repl_input_obj
 .rodata.mp_module_ucomponent
                0x0000000008032f44        0x8 build/moducomponent.o
                0x0000000008032f44                mp_module_ucomponent
 .rodata.ucomponent_get_doc_obj
                0x0000000008032f4c        0x8 build/moducomponent.o
                0x0000000008032f4c                ucomponent_get_doc_obj
 .rodata.ucomponent_get_list_obj
                0x0000000008032f54        0xc build/moducomponent.o
                0x0000000008032f54                ucomponent_get_list_obj
 .rodata.ucomponent_get_methods_obj
                0x0000000008032f60        0x8 build/moducomponent.o
                0x0000000008032f60                ucomponent_get_methods_obj
 .rodata.ucomponent_get_slot_obj
                0x0000000008032f68        0x8 build/moducomponent.o
                0x0000000008032f68                ucomponent_get_slot_obj
 .rodata.ucomponent_get_type_obj
                0x0000000008032f70        0x8 build/moducomponent.o
                0x0000000008032f70                ucomponent_get_type_obj
 .rodata.ucomponent_invoke_obj
                0x0000000008032f78        0xc build/moducomponent.o
                0x0000000008032f78                ucomponent_invoke_obj
 .rodata.ucomponent_module_globals
                0x0000000008032f84       0x10 build/moducomponent.o
 .rodata.ucomponent_module_globals_table
                0x0000000008032f94       0x38 build/moducomponent.o
 .rodata.mp_module_ucomputer
                0x0000000008032fcc        0x8 build/moducomputer.o
                0x0000000008032fcc                mp_module_ucomputer
 .rodata.ucomputer_add_user_obj
                0x0000000008032fd4        0x8 build/moducomputer.o
                0x0000000008032fd4                ucomputer_add_user_obj
 .rodata.ucomputer_beep_obj
                0x0000000008032fdc        0xc build/moducomputer.o
                0x0000000008032fdc                ucomputer_beep_obj
 .rodata.ucomputer_crash.str1.4
                0x0000000008032fe8        0xe build/moducomputer.o
 *fill*         0x0000000008032ff6        0x2 
 .rodata.ucomputer_crash_obj
                0x0000000008032ff8        0x8 build/moducomputer.o
                0x0000000008032ff8                ucomputer_crash_obj
 .rodata.ucomputer_get_architecture_obj
                0x0000000008033000        0x8 build/moducomputer.o
                0x0000000008033000                ucomputer_get_architecture_obj
 .rodata.ucomputer_get_architectures_obj
                0x0000000008033008        0x8 build/moducomputer.o
                0x0000000008033008                ucomputer_get_architectures_obj
 .rodata.ucomputer_get_computer_address_obj
                0x0000000008033010        0x8 build/moducomputer.o
                0x0000000008033010                ucomputer_get_computer_address_obj
 .rodata.ucomputer_get_energy_obj
                0x0000000008033018        0x8 build/moducomputer.o
                0x0000000008033018                ucomputer_get_energy_obj
 .rodata.ucomputer_get_last_error_obj
                0x0000000008033020        0x8 build/moducomputer.o
                0x0000000008033020                ucomputer_get_last_error_obj
 .rodata.ucomputer_get_max_energy_obj
                0x0000000008033028        0x8 build/moducomputer.o
                0x0000000008033028                ucomputer_get_max_energy_obj
 .rodata.ucomputer_get_tmp_address_obj
                0x0000000008033030        0x8 build/moducomputer.o
                0x0000000008033030                ucomputer_get_tmp_address_obj
 .rodata.ucomputer_get_users_obj
                0x0000000008033038        0x8 build/moducomputer.o
                0x0000000008033038                ucomputer_get_users_obj
 .rodata.ucomputer_module_globals
                0x0000000008033040       0x10 build/moducomputer.o
 .rodata.ucomputer_module_globals_table
                0x0000000008033050       0x90 build/moducomputer.o
 .rodata.ucomputer_pop_signal_obj
                0x00000000080330e0        0x8 build/moducomputer.o
                0x00000000080330e0                ucomputer_pop_signal_obj
 .rodata.ucomputer_push_signal_obj
                0x00000000080330e8        0xc build/moducomputer.o
                0x00000000080330e8                ucomputer_push_signal_obj
 .rodata.ucomputer_reboot.str1.4
                0x00000000080330f4        0xf build/moducomputer.o
 *fill*         0x0000000008033103        0x1 
 .rodata.ucomputer_reboot_obj
                0x0000000008033104        0x8 build/moducomputer.o
                0x0000000008033104                ucomputer_reboot_obj
 .rodata.ucomputer_remove_user_obj
                0x000000000803310c        0x8 build/moducomputer.o
                0x000000000803310c                ucomputer_remove_user_obj
 .rodata.ucomputer_set_architecture_obj
                0x0000000008033114        0x8 build/moducomputer.o
                0x0000000008033114                ucomputer_set_architecture_obj
 .rodata.ucomputer_shutdown.str1.4
                0x000000000803311c       0x11 build/moducomputer.o
 *fill*         0x000000000803312d        0x3 
 .rodata.ucomputer_shutdown_obj
                0x0000000008033130        0x8 build/moducomputer.o
                0x0000000008033130                ucomputer_shutdown_obj
 .rodata.mp_module_uos
                0x0000000008033138        0x8 build/moduos.o
                0x0000000008033138                mp_module_uos
 .rodata.uos_module_globals
                0x0000000008033140       0x10 build/moduos.o
 .rodata.uos_module_globals_table
                0x0000000008033150       0x68 build/moduos.o
 .rodata.mp_module_uimp
                0x00000000080331b8        0x8 build/moduimp.o
                0x00000000080331b8                mp_module_uimp
 .rodata.uimp_module_globals
                0x00000000080331c0       0x10 build/moduimp.o
 .rodata.uimp_module_globals_table
                0x00000000080331d0       0x10 build/moduimp.o
 .rodata.uimp_new_module_obj
                0x00000000080331e0        0x8 build/moduimp.o
                0x00000000080331e0                uimp_new_module_obj
 .rodata.mp_module_utime
                0x00000000080331e8        0x8 build/modutime.o
                0x00000000080331e8                mp_module_utime
 .rodata.time_module_globals
                0x00000000080331f0       0x10 build/modutime.o
 .rodata.time_module_globals_table
                0x0000000008033200       0x70 build/modutime.o
 .rodata.utime_time_cpu_obj
                0x0000000008033270        0x8 build/modutime.o
                0x0000000008033270                utime_time_cpu_obj
 .rodata.utime_time_real_obj
                0x0000000008033278        0x8 build/modutime.o
                0x0000000008033278                utime_time_real_obj
 .rodata.utime_time_up_obj
                0x0000000008033280        0x8 build/modutime.o
                0x0000000008033280                utime_time_up_obj
 .rodata.utime_time_world_obj
                0x0000000008033288        0x8 build/modutime.o
                0x0000000008033288                utime_time_world_obj
 .rodata.mp_module_umsgpack
                0x0000000008033290        0x8 build/modumsgpack.o
                0x0000000008033290                mp_module_umsgpack
 .rodata.umsgpack_dumps_obj
                0x0000000008033298        0x8 build/modumsgpack.o
                0x0000000008033298                umsgpack_dumps_obj
 .rodata.umsgpack_loads_obj
                0x00000000080332a0        0x8 build/modumsgpack.o
                0x00000000080332a0                umsgpack_loads_obj
 .rodata.umsgpack_module_globals
                0x00000000080332a8       0x10 build/modumsgpack.o
 .rodata.umsgpack_module_globals_table
                0x00000000080332b8       0x18 build/modumsgpack.o
 .rodata.mp_module_uvalue
                0x00000000080332d0        0x8 build/moduvalue.o
                0x00000000080332d0                mp_module_uvalue
 .rodata.uvalue_apply_obj
                0x00000000080332d8        0xc build/moduvalue.o
                0x00000000080332d8                uvalue_apply_obj
 .rodata.uvalue_attr.str1.4
                0x00000000080332e4       0x14 build/moduvalue.o
 .rodata.uvalue_call_obj
                0x00000000080332e4        0xc build/moduvalue.o
                0x00000000080332e4                uvalue_call_obj
 .rodata.uvalue_dispose_obj
                0x00000000080332f0        0x8 build/moduvalue.o
                0x00000000080332f0                uvalue_dispose_obj
 .rodata.uvalue_doc_obj
                0x00000000080332f8        0xc build/moduvalue.o
                0x00000000080332f8                uvalue_doc_obj
 .rodata.uvalue_hook_value_obj
                0x0000000008033304        0x8 build/moduvalue.o
                0x0000000008033304                uvalue_hook_value_obj
 .rodata.uvalue_invoke_obj
                0x000000000803330c        0xc build/moduvalue.o
                0x000000000803330c                uvalue_invoke_obj
 .rodata.uvalue_methods_obj
                0x0000000008033318        0x8 build/moduvalue.o
                0x0000000008033318                uvalue_methods_obj
 .rodata.uvalue_module_globals
                0x0000000008033320       0x10 build/moduvalue.o
 .rodata.uvalue_module_globals_table
                0x0000000008033330       0x48 build/moduvalue.o
 .rodata.uvalue_print.str1.4
                0x0000000008033378       0x11 build/moduvalue.o
 *fill*         0x0000000008033389        0x3 
 .rodata.uvalue_type
                0x000000000803338c       0x3c build/moduvalue.o
                0x000000000803338c                uvalue_type
 .rodata.uvalue_unapply_obj
                0x00000000080333c8        0xc build/moduvalue.o
                0x00000000080333c8                uvalue_unapply_obj
 .rodata.allowed_args.7531
                0x00000000080333d4       0x18 build/openpython_vfs.o
 .rodata.check_fd_is_open.isra.0.part.1.str1.4
                0x00000000080333ec       0x1d build/openpython_vfs.o
 .rodata.fileio_stream_p
                0x00000000080333ec       0x10 build/openpython_vfs.o
 .rodata.mp_type_vfs_openpython_fileio
                0x00000000080333fc       0x3c build/openpython_vfs.o
                0x00000000080333fc                mp_type_vfs_openpython_fileio
 .rodata.mp_type_vfs_openpython_textio
                0x0000000008033438       0x3c build/openpython_vfs.o
                0x0000000008033438                mp_type_vfs_openpython_textio
 .rodata.rawfile_locals_dict
                0x0000000008033474       0x10 build/openpython_vfs.o
 .rodata.rawfile_locals_dict_table
                0x0000000008033484       0x60 build/openpython_vfs.o
 .rodata.textio_stream_p
                0x00000000080334e4       0x10 build/openpython_vfs.o
 .rodata.vfs_openpython_file___exit___obj
                0x00000000080334f4        0xc build/openpython_vfs.o
 .rodata.vfs_openpython_file_fileno_obj
                0x0000000008033500        0x8 build/openpython_vfs.o
 .rodata.vfs_openpython_file_print.str1.4
                0x0000000008033508        0xe build/openpython_vfs.o
 *fill*         0x0000000008033516        0x2 
 .rodata.msgpack_load
                0x0000000008033518       0x30 build/msgpack.o
 .rodata.msgpack_dump_close.str1.4
                0x0000000008033548       0x13 build/msgpack.o
 *fill*         0x000000000803355b        0x1 
 .rodata.msgpack_load.str1.4
                0x000000000803355c       0x18 build/msgpack.o
 .rodata.msgpack_loads.str1.4
                0x0000000008033574       0x18 build/msgpack.o
 .rodata.mpack_parse_tag.constprop.18
                0x000000000803358c      0x200 build/lib/mpack/mpack-reader.o
 .rodata.mp_sys_stderr_obj
                0x000000000803378c        0x8 build/lib/utils/sys_stdio_mphal.o
                0x000000000803378c                mp_sys_stderr_obj
 .rodata.mp_sys_stdin_obj
                0x0000000008033794        0x8 build/lib/utils/sys_stdio_mphal.o
                0x0000000008033794                mp_sys_stdin_obj
 .rodata.mp_sys_stdout_obj
                0x000000000803379c        0x8 build/lib/utils/sys_stdio_mphal.o
                0x000000000803379c                mp_sys_stdout_obj
 .rodata.stdio_buffer_obj
                0x00000000080337a4        0x8 build/lib/utils/sys_stdio_mphal.o
 .rodata.stdio_buffer_obj_stream_p
                0x00000000080337ac       0x10 build/lib/utils/sys_stdio_mphal.o
 .rodata.stdio_buffer_obj_type
                0x00000000080337bc       0x3c build/lib/utils/sys_stdio_mphal.o
 .rodata.stdio_locals_dict
                0x00000000080337f8       0x10 build/lib/utils/sys_stdio_mphal.o
 .rodata.stdio_locals_dict_table
                0x0000000008033808       0x50 build/lib/utils/sys_stdio_mphal.o
 .rodata.stdio_obj___exit___obj
                0x0000000008033858        0xc build/lib/utils/sys_stdio_mphal.o
 .rodata.stdio_obj_print.str1.4
                0x0000000008033864        0xf build/lib/utils/sys_stdio_mphal.o
 *fill*         0x0000000008033873        0x1 
 .rodata.stdio_obj_stream_p
                0x0000000008033874       0x10 build/lib/utils/sys_stdio_mphal.o
 .rodata.stdio_obj_type
                0x0000000008033884       0x3c build/lib/utils/sys_stdio_mphal.o
 .rodata.parse_compile_execute.str1.4
                0x00000000080338c0       0x58 build/lib/utils/pyexec.o
 .rodata.pyexec_friendly_repl.str1.4
                0x0000000008033918       0xb3 build/lib/utils/pyexec.o
                                         0xc9 (size before relaxing)
 *fill*         0x00000000080339cb        0x1 
 .rodata.pyexec_raw_repl.str1.4
                0x00000000080339cc       0x1f build/lib/utils/pyexec.o
                                         0x27 (size before relaxing)
 *fill*         0x00000000080339eb        0x1 
 .rodata.mp_hal_move_cursor_back.str1.4
                0x00000000080339ec        0xd build/lib/mp-readline/readline.o
 *fill*         0x00000000080339f9        0x3 
 .rodata.readline_process_char.str1.4
                0x00000000080339fc        0x4 build/lib/mp-readline/readline.o
                                          0x8 (size before relaxing)
 .rodata.half   0x0000000008033a00        0x8 build/lib/libm/math.o
 .rodata.npio2_hw
                0x0000000008033a08       0x80 build/lib/libm/ef_rem_pio2.o
 .rodata.two_over_pi
                0x0000000008033a88      0x318 build/lib/libm/ef_rem_pio2.o
 .rodata.__ieee754_lgammaf_r
                0x0000000008033da0       0x30 build/lib/libm/erf_lgamma.o
 .rodata.PIo2   0x0000000008033dd0       0x2c build/lib/libm/kf_rem_pio2.o
 .rodata.init_jk
                0x0000000008033dfc        0xc build/lib/libm/kf_rem_pio2.o
 .rodata        0x0000000008033e08       0x80 /usr/bin/../lib/gcc/arm-none-eabi/7.3.1/thumb/v6-m/libgcc.a(divsf3.o)
 .rodata        0x0000000008033e88       0x40 /usr/bin/../lib/gcc/arm-none-eabi/7.3.1/thumb/v6-m/libgcc.a(mulsf3.o)
                0x0000000008033ec8                . = ALIGN (0x4)
                0x0000000008033ec8                _etext = .
                0x0000000008033ec8                _sidata = LOADADDR (.data)

.glue_7         0x0000000008033ec8        0x0
 .glue_7        0x0000000008033ec8        0x0 linker stubs

.glue_7t        0x0000000008033ec8        0x0
 .glue_7t       0x0000000008033ec8        0x0 linker stubs

.vfp11_veneer   0x0000000008033ec8        0x0
 .vfp11_veneer  0x0000000008033ec8        0x0 linker stubs

.v4_bx          0x0000000008033ec8        0x0
 .v4_bx         0x0000000008033ec8        0x0 linker stubs

.iplt           0x0000000008033ec8        0x0
 .iplt          0x0000000008033ec8        0x0 build/py/nlr.o

.rel.dyn        0x0000000008033ec8        0x0
 .rel.iplt      0x0000000008033ec8        0x0 build/py/nlr.o

.data           0x0000000020000000       0xd8 load address 0x0000000008033ec8
                0x0000000020000000                . = ALIGN (0x4)
                0x0000000020000000                _sdata = .
 *(.data*)
 .data.yasmarang_d
                0x0000000020000000        0x4 build/extmod/modurandom.o
 .data.yasmarang_n
                0x0000000020000004        0x4 build/extmod/modurandom.o
 .data.yasmarang_pad
                0x0000000020000008        0x4 build/extmod/modurandom.o
 .data.bytecode_data_bios__lt_module_gt_
                0x000000002000000c       0x1e build/build/frozen_mpy.o
 *fill*         0x000000002000002a        0x2 
 .data.bytecode_data_bios__lt_module_gt__bios
                0x000000002000002c       0xa8 build/build/frozen_mpy.o
 .data.pyexec_mode_kind
                0x00000000200000d4        0x1 build/lib/utils/pyexec.o
                0x00000000200000d4                pyexec_mode_kind
                0x00000000200000d8                . = ALIGN (0x4)
 *fill*         0x00000000200000d5        0x3 
                0x00000000200000d8                _edata = .

.igot.plt       0x00000000200000d8        0x0 load address 0x0000000008033fa0
 .igot.plt      0x00000000200000d8        0x0 build/py/nlr.o

.bss            0x00000000200000d8     0x9fa8 load address 0x0000000008033fa0
                0x00000000200000d8                . = ALIGN (0x4)
                0x00000000200000d8                _sbss = .
 *(.bss*)
 .bss.utimeq_id
                0x00000000200000d8        0x4 build/extmod/modutimeq.o
 .bss.yasmarang_dat
                0x00000000200000dc        0x1 build/extmod/modurandom.o
 *fill*         0x00000000200000dd        0x3 
 .bss.pystack.6876
                0x00000000200000e0     0x9c40 build/main.o
 .bss.pyexec_system_exit
                0x0000000020009d20        0x4 build/lib/utils/pyexec.o
                0x0000000020009d20                pyexec_system_exit
 .bss.repl_display_debugging_info
                0x0000000020009d24        0x1 build/lib/utils/pyexec.o
 *fill*         0x0000000020009d25        0x3 
 .bss.rl        0x0000000020009d28       0x1c build/lib/mp-readline/readline.o
 *(COMMON)
 COMMON         0x0000000020009d44      0x338 build/py/mpstate.o
                0x0000000020009d44                mp_state_ctx
 COMMON         0x000000002000a07c        0x4 build/lib/utils/interrupt_char.o
                0x000000002000a07c                mp_interrupt_char
                0x000000002000a080                . = ALIGN (0x4)
                0x000000002000a080                _ebss = .

.stack          0x000000002000a080     0x4000 load address 0x0000000008033fa0
                0x000000002000a080                . = ALIGN (0x4)
                0x000000002000e080                . = (. + _minimum_stack_size)
 *fill*         0x000000002000a080     0x4000 
                0x000000002000e080                . = ALIGN (0x4)

.heap           0x0000000060000000    0x20000
                0x0000000060000000                . = ALIGN (0x4)
                0x0000000060020000                . = (. + _minimum_heap_size)
 *fill*         0x0000000060000000    0x20000 
                0x0000000060020000                . = ALIGN (0x4)

.ARM.attributes
                0x0000000000000000       0x2f
 *(.ARM.attributes)
 .ARM.attributes
                0x0000000000000000       0x31 build/py/mpstate.o
 .ARM.attributes
                0x0000000000000031       0x31 build/py/nlr.o
 .ARM.attributes
                0x0000000000000062       0x31 build/py/nlrthumb.o
 .ARM.attributes
                0x0000000000000093       0x31 build/py/malloc.o
 .ARM.attributes
                0x00000000000000c4       0x31 build/py/gc.o
 .ARM.attributes
                0x00000000000000f5       0x31 build/py/pystack.o
 .ARM.attributes
                0x0000000000000126       0x31 build/py/qstr.o
 .ARM.attributes
                0x0000000000000157       0x31 build/py/vstr.o
 .ARM.attributes
                0x0000000000000188       0x31 build/py/mpprint.o
 .ARM.attributes
                0x00000000000001b9       0x31 build/py/unicode.o
 .ARM.attributes
                0x00000000000001ea       0x31 build/py/mpz.o
 .ARM.attributes
                0x000000000000021b       0x31 build/py/reader.o
 .ARM.attributes
                0x000000000000024c       0x31 build/py/lexer.o
 .ARM.attributes
                0x000000000000027d       0x31 build/py/parse.o
 .ARM.attributes
                0x00000000000002ae       0x31 build/py/scope.o
 .ARM.attributes
                0x00000000000002df       0x31 build/py/compile.o
 .ARM.attributes
                0x0000000000000310       0x31 build/py/emitcommon.o
 .ARM.attributes
                0x0000000000000341       0x31 build/py/emitbc.o
 .ARM.attributes
                0x0000000000000372       0x31 build/py/formatfloat.o
 .ARM.attributes
                0x00000000000003a3       0x31 build/py/parsenumbase.o
 .ARM.attributes
                0x00000000000003d4       0x31 build/py/parsenum.o
 .ARM.attributes
                0x0000000000000405       0x31 build/py/emitglue.o
 .ARM.attributes
                0x0000000000000436       0x31 build/py/persistentcode.o
 .ARM.attributes
                0x0000000000000467       0x31 build/py/runtime.o
 .ARM.attributes
                0x0000000000000498       0x31 build/py/runtime_utils.o
 .ARM.attributes
                0x00000000000004c9       0x31 build/py/scheduler.o
 .ARM.attributes
                0x00000000000004fa       0x31 build/py/stackctrl.o
 .ARM.attributes
                0x000000000000052b       0x31 build/py/argcheck.o
 .ARM.attributes
                0x000000000000055c       0x31 build/py/warning.o
 .ARM.attributes
                0x000000000000058d       0x31 build/py/map.o
 .ARM.attributes
                0x00000000000005be       0x31 build/py/obj.o
 .ARM.attributes
                0x00000000000005ef       0x31 build/py/objarray.o
 .ARM.attributes
                0x0000000000000620       0x31 build/py/objattrtuple.o
 .ARM.attributes
                0x0000000000000651       0x31 build/py/objbool.o
 .ARM.attributes
                0x0000000000000682       0x31 build/py/objboundmeth.o
 .ARM.attributes
                0x00000000000006b3       0x31 build/py/objcell.o
 .ARM.attributes
                0x00000000000006e4       0x31 build/py/objclosure.o
 .ARM.attributes
                0x0000000000000715       0x31 build/py/objcomplex.o
 .ARM.attributes
                0x0000000000000746       0x31 build/py/objdeque.o
 .ARM.attributes
                0x0000000000000777       0x31 build/py/objdict.o
 .ARM.attributes
                0x00000000000007a8       0x31 build/py/objenumerate.o
 .ARM.attributes
                0x00000000000007d9       0x31 build/py/objexcept.o
 .ARM.attributes
                0x000000000000080a       0x31 build/py/objfilter.o
 .ARM.attributes
                0x000000000000083b       0x31 build/py/objfloat.o
 .ARM.attributes
                0x000000000000086c       0x31 build/py/objfun.o
 .ARM.attributes
                0x000000000000089d       0x31 build/py/objgenerator.o
 .ARM.attributes
                0x00000000000008ce       0x31 build/py/objgetitemiter.o
 .ARM.attributes
                0x00000000000008ff       0x31 build/py/objint.o
 .ARM.attributes
                0x0000000000000930       0x31 build/py/objint_mpz.o
 .ARM.attributes
                0x0000000000000961       0x31 build/py/objlist.o
 .ARM.attributes
                0x0000000000000992       0x31 build/py/objmap.o
 .ARM.attributes
                0x00000000000009c3       0x31 build/py/objmodule.o
 .ARM.attributes
                0x00000000000009f4       0x31 build/py/objobject.o
 .ARM.attributes
                0x0000000000000a25       0x31 build/py/objpolyiter.o
 .ARM.attributes
                0x0000000000000a56       0x31 build/py/objproperty.o
 .ARM.attributes
                0x0000000000000a87       0x31 build/py/objnone.o
 .ARM.attributes
                0x0000000000000ab8       0x31 build/py/objnamedtuple.o
 .ARM.attributes
                0x0000000000000ae9       0x31 build/py/objrange.o
 .ARM.attributes
                0x0000000000000b1a       0x31 build/py/objreversed.o
 .ARM.attributes
                0x0000000000000b4b       0x31 build/py/objset.o
 .ARM.attributes
                0x0000000000000b7c       0x31 build/py/objsingleton.o
 .ARM.attributes
                0x0000000000000bad       0x31 build/py/objslice.o
 .ARM.attributes
                0x0000000000000bde       0x31 build/py/objstr.o
 .ARM.attributes
                0x0000000000000c0f       0x31 build/py/objstrunicode.o
 .ARM.attributes
                0x0000000000000c40       0x31 build/py/objstringio.o
 .ARM.attributes
                0x0000000000000c71       0x31 build/py/objtuple.o
 .ARM.attributes
                0x0000000000000ca2       0x31 build/py/objtype.o
 .ARM.attributes
                0x0000000000000cd3       0x31 build/py/objzip.o
 .ARM.attributes
                0x0000000000000d04       0x31 build/py/opmethods.o
 .ARM.attributes
                0x0000000000000d35       0x31 build/py/sequence.o
 .ARM.attributes
                0x0000000000000d66       0x31 build/py/stream.o
 .ARM.attributes
                0x0000000000000d97       0x31 build/py/binary.o
 .ARM.attributes
                0x0000000000000dc8       0x31 build/py/builtinimport.o
 .ARM.attributes
                0x0000000000000df9       0x31 build/py/builtinevex.o
 .ARM.attributes
                0x0000000000000e2a       0x31 build/py/builtinhelp.o
 .ARM.attributes
                0x0000000000000e5b       0x31 build/py/modarray.o
 .ARM.attributes
                0x0000000000000e8c       0x31 build/py/modbuiltins.o
 .ARM.attributes
                0x0000000000000ebd       0x31 build/py/modcollections.o
 .ARM.attributes
                0x0000000000000eee       0x31 build/py/modgc.o
 .ARM.attributes
                0x0000000000000f1f       0x31 build/py/modio.o
 .ARM.attributes
                0x0000000000000f50       0x31 build/py/modmath.o
 .ARM.attributes
                0x0000000000000f81       0x31 build/py/modcmath.o
 .ARM.attributes
                0x0000000000000fb2       0x31 build/py/modmicropython.o
 .ARM.attributes
                0x0000000000000fe3       0x31 build/py/modstruct.o
 .ARM.attributes
                0x0000000000001014       0x31 build/py/modsys.o
 .ARM.attributes
                0x0000000000001045       0x31 build/py/moduerrno.o
 .ARM.attributes
                0x0000000000001076       0x31 build/py/vm.o
 .ARM.attributes
                0x00000000000010a7       0x31 build/py/bc.o
 .ARM.attributes
                0x00000000000010d8       0x31 build/py/repl.o
 .ARM.attributes
                0x0000000000001109       0x31 build/py/smallint.o
 .ARM.attributes
                0x000000000000113a       0x31 build/py/frozenmod.o
 .ARM.attributes
                0x000000000000116b       0x31 build/extmod/moductypes.o
 .ARM.attributes
                0x000000000000119c       0x31 build/extmod/modujson.o
 .ARM.attributes
                0x00000000000011cd       0x31 build/extmod/modure.o
 .ARM.attributes
                0x00000000000011fe       0x31 build/extmod/moduzlib.o
 .ARM.attributes
                0x000000000000122f       0x31 build/extmod/moduheapq.o
 .ARM.attributes
                0x0000000000001260       0x31 build/extmod/modutimeq.o
 .ARM.attributes
                0x0000000000001291       0x31 build/extmod/moduhashlib.o
 .ARM.attributes
                0x00000000000012c2       0x31 build/extmod/modubinascii.o
 .ARM.attributes
                0x00000000000012f3       0x31 build/extmod/modurandom.o
 .ARM.attributes
                0x0000000000001324       0x31 build/extmod/vfs.o
 .ARM.attributes
                0x0000000000001355       0x31 build/extmod/vfs_reader.o
 .ARM.attributes
                0x0000000000001386       0x31 build/extmod/utime_mphal.o
 .ARM.attributes
                0x00000000000013b7       0x31 build/lib/utils/printf.o
 .ARM.attributes
                0x00000000000013e8       0x31 build/build/frozen.o
 .ARM.attributes
                0x0000000000001419       0x31 build/build/frozen_mpy.o
 .ARM.attributes
                0x000000000000144a       0x31 build/main.o
 .ARM.attributes
                0x000000000000147b       0x31 build/help.o
 .ARM.attributes
                0x00000000000014ac       0x31 build/machine.o
 .ARM.attributes
                0x00000000000014dd       0x31 build/mphalport.o
 .ARM.attributes
                0x000000000000150e       0x31 build/modmachine.o
 .ARM.attributes
                0x000000000000153f       0x31 build/moducode.o
 .ARM.attributes
                0x0000000000001570       0x31 build/moducomponent.o
 .ARM.attributes
                0x00000000000015a1       0x31 build/moducomputer.o
 .ARM.attributes
                0x00000000000015d2       0x31 build/moduos.o
 .ARM.attributes
                0x0000000000001603       0x31 build/moduimp.o
 .ARM.attributes
                0x0000000000001634       0x31 build/modutime.o
 .ARM.attributes
                0x0000000000001665       0x31 build/modumsgpack.o
 .ARM.attributes
                0x0000000000001696       0x31 build/moduvalue.o
 .ARM.attributes
                0x00000000000016c7       0x31 build/gccollect.o
 .ARM.attributes
                0x00000000000016f8       0x31 build/openpython_vfs.o
 .ARM.attributes
                0x0000000000001729       0x31 build/msgpack.o
 .ARM.attributes
                0x000000000000175a       0x31 build/syscall.o
 .ARM.attributes
                0x000000000000178b       0x21 build/gchelper_m0.o
 .ARM.attributes
                0x00000000000017ac       0x31 build/lib/mpack/mpack-common.o
 .ARM.attributes
                0x00000000000017dd       0x31 build/lib/mpack/mpack-platform.o
 .ARM.attributes
                0x000000000000180e       0x31 build/lib/mpack/mpack-reader.o
 .ARM.attributes
                0x000000000000183f       0x31 build/lib/mpack/mpack-writer.o
 .ARM.attributes
                0x0000000000001870       0x31 build/lib/utils/sys_stdio_mphal.o
 .ARM.attributes
                0x00000000000018a1       0x31 build/lib/utils/interrupt_char.o
 .ARM.attributes
                0x00000000000018d2       0x31 build/lib/utils/pyexec.o
 .ARM.attributes
                0x0000000000001903       0x31 build/lib/libc/string0.o
 .ARM.attributes
                0x0000000000001934       0x31 build/lib/mp-readline/readline.o
 .ARM.attributes
                0x0000000000001965       0x31 build/lib/libm/math.o
 .ARM.attributes
                0x0000000000001996       0x31 build/lib/libm/acoshf.o
 .ARM.attributes
                0x00000000000019c7       0x31 build/lib/libm/asinfacosf.o
 .ARM.attributes
                0x00000000000019f8       0x31 build/lib/libm/asinhf.o
 .ARM.attributes
                0x0000000000001a29       0x31 build/lib/libm/atan2f.o
 .ARM.attributes
                0x0000000000001a5a       0x31 build/lib/libm/atanf.o
 .ARM.attributes
                0x0000000000001a8b       0x31 build/lib/libm/atanhf.o
 .ARM.attributes
                0x0000000000001abc       0x31 build/lib/libm/ef_rem_pio2.o
 .ARM.attributes
                0x0000000000001aed       0x31 build/lib/libm/ef_sqrt.o
 .ARM.attributes
                0x0000000000001b1e       0x31 build/lib/libm/erf_lgamma.o
 .ARM.attributes
                0x0000000000001b4f       0x31 build/lib/libm/fmodf.o
 .ARM.attributes
                0x0000000000001b80       0x31 build/lib/libm/kf_cos.o
 .ARM.attributes
                0x0000000000001bb1       0x31 build/lib/libm/kf_rem_pio2.o
 .ARM.attributes
                0x0000000000001be2       0x31 build/lib/libm/kf_sin.o
 .ARM.attributes
                0x0000000000001c13       0x31 build/lib/libm/kf_tan.o
 .ARM.attributes
                0x0000000000001c44       0x31 build/lib/libm/log1pf.o
 .ARM.attributes
                0x0000000000001c75       0x31 build/lib/libm/nearbyintf.o
 .ARM.attributes
                0x0000000000001ca6       0x31 build/lib/libm/sf_cos.o
 .ARM.attributes
                0x0000000000001cd7       0x31 build/lib/libm/sf_erf.o
 .ARM.attributes
                0x0000000000001d08       0x31 build/lib/libm/sf_frexp.o
 .ARM.attributes
                0x0000000000001d39       0x31 build/lib/libm/sf_ldexp.o
 .ARM.attributes
                0x0000000000001d6a       0x31 build/lib/libm/sf_modf.o
 .ARM.attributes
                0x0000000000001d9b       0x31 build/lib/libm/sf_sin.o
 .ARM.attributes
                0x0000000000001dcc       0x31 build/lib/libm/sf_tan.o
 .ARM.attributes
                0x0000000000001dfd       0x31 build/lib/libm/wf_lgamma.o
 .ARM.attributes
                0x0000000000001e2e       0x31 build/lib/libm/wf_tgamma.o
 .ARM.attributes
                0x0000000000001e5f       0x1e /usr/bin/../lib/gcc/arm-none-eabi/7.3.1/thumb/v6-m/libgcc.a(_udivsi3.o)
 .ARM.attributes
                0x0000000000001e7d       0x1e /usr/bin/../lib/gcc/arm-none-eabi/7.3.1/thumb/v6-m/libgcc.a(_divsi3.o)
 .ARM.attributes
                0x0000000000001e9b       0x1e /usr/bin/../lib/gcc/arm-none-eabi/7.3.1/thumb/v6-m/libgcc.a(_dvmd_tls.o)
 .ARM.attributes
                0x0000000000001eb9       0x1e /usr/bin/../lib/gcc/arm-none-eabi/7.3.1/thumb/v6-m/libgcc.a(_arm_cmpsf2.o)
 .ARM.attributes
                0x0000000000001ed7       0x2c /usr/bin/../lib/gcc/arm-none-eabi/7.3.1/thumb/v6-m/libgcc.a(_fixunssfsi.o)
 .ARM.attributes
                0x0000000000001f03       0x2c /usr/bin/../lib/gcc/arm-none-eabi/7.3.1/thumb/v6-m/libgcc.a(addsf3.o)
 .ARM.attributes
                0x0000000000001f2f       0x2c /usr/bin/../lib/gcc/arm-none-eabi/7.3.1/thumb/v6-m/libgcc.a(divsf3.o)
 .ARM.attributes
                0x0000000000001f5b       0x2c /usr/bin/../lib/gcc/arm-none-eabi/7.3.1/thumb/v6-m/libgcc.a(eqsf2.o)
 .ARM.attributes
                0x0000000000001f87       0x2c /usr/bin/../lib/gcc/arm-none-eabi/7.3.1/thumb/v6-m/libgcc.a(gesf2.o)
 .ARM.attributes
                0x0000000000001fb3       0x2c /usr/bin/../lib/gcc/arm-none-eabi/7.3.1/thumb/v6-m/libgcc.a(lesf2.o)
 .ARM.attributes
                0x0000000000001fdf       0x2c /usr/bin/../lib/gcc/arm-none-eabi/7.3.1/thumb/v6-m/libgcc.a(mulsf3.o)
 .ARM.attributes
                0x000000000000200b       0x2c /usr/bin/../lib/gcc/arm-none-eabi/7.3.1/thumb/v6-m/libgcc.a(subsf3.o)
 .ARM.attributes
                0x0000000000002037       0x2c /usr/bin/../lib/gcc/arm-none-eabi/7.3.1/thumb/v6-m/libgcc.a(unordsf2.o)
 .ARM.attributes
                0x0000000000002063       0x2c /usr/bin/../lib/gcc/arm-none-eabi/7.3.1/thumb/v6-m/libgcc.a(fixsfsi.o)
 .ARM.attributes
                0x000000000000208f       0x2c /usr/bin/../lib/gcc/arm-none-eabi/7.3.1/thumb/v6-m/libgcc.a(floatsisf.o)
 .ARM.attributes
                0x00000000000020bb       0x2c /usr/bin/../lib/gcc/arm-none-eabi/7.3.1/thumb/v6-m/libgcc.a(floatunsisf.o)
 .ARM.attributes
                0x00000000000020e7       0x2c /usr/bin/../lib/gcc/arm-none-eabi/7.3.1/thumb/v6-m/libgcc.a(floatsidf.o)
 .ARM.attributes
                0x0000000000002113       0x2c /usr/bin/../lib/gcc/arm-none-eabi/7.3.1/thumb/v6-m/libgcc.a(extendsfdf2.o)
 .ARM.attributes
                0x000000000000213f       0x2c /usr/bin/../lib/gcc/arm-none-eabi/7.3.1/thumb/v6-m/libgcc.a(truncdfsf2.o)
 .ARM.attributes
                0x000000000000216b       0x1e /usr/bin/../lib/gcc/arm-none-eabi/7.3.1/thumb/v6-m/libgcc.a(_clzsi2.o)
LOAD build/py/mpstate.o
LOAD build/py/nlr.o
LOAD build/py/nlrx86.o
LOAD build/py/nlrx64.o
LOAD build/py/nlrthumb.o
LOAD build/py/nlrxtensa.o
LOAD build/py/nlrsetjmp.o
LOAD build/py/malloc.o
LOAD build/py/gc.o
LOAD build/py/pystack.o
LOAD build/py/qstr.o
LOAD build/py/vstr.o
LOAD build/py/mpprint.o
LOAD build/py/unicode.o
LOAD build/py/mpz.o
LOAD build/py/reader.o
LOAD build/py/lexer.o
LOAD build/py/parse.o
LOAD build/py/scope.o
LOAD build/py/compile.o
LOAD build/py/emitcommon.o
LOAD build/py/emitbc.o
LOAD build/py/asmbase.o
LOAD build/py/asmx64.o
LOAD build/py/emitnx64.o
LOAD build/py/asmx86.o
LOAD build/py/emitnx86.o
LOAD build/py/asmthumb.o
LOAD build/py/emitnthumb.o
LOAD build/py/emitinlinethumb.o
LOAD build/py/asmarm.o
LOAD build/py/emitnarm.o
LOAD build/py/asmxtensa.o
LOAD build/py/emitnxtensa.o
LOAD build/py/emitinlinextensa.o
LOAD build/py/formatfloat.o
LOAD build/py/parsenumbase.o
LOAD build/py/parsenum.o
LOAD build/py/emitglue.o
LOAD build/py/persistentcode.o
LOAD build/py/runtime.o
LOAD build/py/runtime_utils.o
LOAD build/py/scheduler.o
LOAD build/py/nativeglue.o
LOAD build/py/stackctrl.o
LOAD build/py/argcheck.o
LOAD build/py/warning.o
LOAD build/py/map.o
LOAD build/py/obj.o
LOAD build/py/objarray.o
LOAD build/py/objattrtuple.o
LOAD build/py/objbool.o
LOAD build/py/objboundmeth.o
LOAD build/py/objcell.o
LOAD build/py/objclosure.o
LOAD build/py/objcomplex.o
LOAD build/py/objdeque.o
LOAD build/py/objdict.o
LOAD build/py/objenumerate.o
LOAD build/py/objexcept.o
LOAD build/py/objfilter.o
LOAD build/py/objfloat.o
LOAD build/py/objfun.o
LOAD build/py/objgenerator.o
LOAD build/py/objgetitemiter.o
LOAD build/py/objint.o
LOAD build/py/objint_longlong.o
LOAD build/py/objint_mpz.o
LOAD build/py/objlist.o
LOAD build/py/objmap.o
LOAD build/py/objmodule.o
LOAD build/py/objobject.o
LOAD build/py/objpolyiter.o
LOAD build/py/objproperty.o
LOAD build/py/objnone.o
LOAD build/py/objnamedtuple.o
LOAD build/py/objrange.o
LOAD build/py/objreversed.o
LOAD build/py/objset.o
LOAD build/py/objsingleton.o
LOAD build/py/objslice.o
LOAD build/py/objstr.o
LOAD build/py/objstrunicode.o
LOAD build/py/objstringio.o
LOAD build/py/objtuple.o
LOAD build/py/objtype.o
LOAD build/py/objzip.o
LOAD build/py/opmethods.o
LOAD build/py/sequence.o
LOAD build/py/stream.o
LOAD build/py/binary.o
LOAD build/py/builtinimport.o
LOAD build/py/builtinevex.o
LOAD build/py/builtinhelp.o
LOAD build/py/modarray.o
LOAD build/py/modbuiltins.o
LOAD build/py/modcollections.o
LOAD build/py/modgc.o
LOAD build/py/modio.o
LOAD build/py/modmath.o
LOAD build/py/modcmath.o
LOAD build/py/modmicropython.o
LOAD build/py/modstruct.o
LOAD build/py/modsys.o
LOAD build/py/moduerrno.o
LOAD build/py/modthread.o
LOAD build/py/vm.o
LOAD build/py/bc.o
LOAD build/py/showbc.o
LOAD build/py/repl.o
LOAD build/py/smallint.o
LOAD build/py/frozenmod.o
LOAD build/extmod/moductypes.o
LOAD build/extmod/modujson.o
LOAD build/extmod/modure.o
LOAD build/extmod/moduzlib.o
LOAD build/extmod/moduheapq.o
LOAD build/extmod/modutimeq.o
LOAD build/extmod/moduhashlib.o
LOAD build/extmod/moducryptolib.o
LOAD build/extmod/modubinascii.o
LOAD build/extmod/virtpin.o
LOAD build/extmod/machine_mem.o
LOAD build/extmod/machine_pinbase.o
LOAD build/extmod/machine_signal.o
LOAD build/extmod/machine_pulse.o
LOAD build/extmod/machine_i2c.o
LOAD build/extmod/machine_spi.o
LOAD build/extmod/modussl_axtls.o
LOAD build/extmod/modussl_mbedtls.o
LOAD build/extmod/modurandom.o
LOAD build/extmod/moduselect.o
LOAD build/extmod/modwebsocket.o
LOAD build/extmod/modwebrepl.o
LOAD build/extmod/modframebuf.o
LOAD build/extmod/vfs.o
LOAD build/extmod/vfs_reader.o
LOAD build/extmod/vfs_posix.o
LOAD build/extmod/vfs_posix_file.o
LOAD build/extmod/vfs_fat.o
LOAD build/extmod/vfs_fat_diskio.o
LOAD build/extmod/vfs_fat_file.o
LOAD build/extmod/utime_mphal.o
LOAD build/extmod/uos_dupterm.o
LOAD build/lib/embed/abort_.o
LOAD build/lib/utils/printf.o
LOAD build/build/frozen.o
LOAD build/build/frozen_mpy.o
LOAD build/main.o
LOAD build/help.o
LOAD build/machine.o
LOAD build/mphalport.o
LOAD build/modmachine.o
LOAD build/moducode.o
LOAD build/moducomponent.o
LOAD build/moducomputer.o
LOAD build/moduos.o
LOAD build/moduimp.o
LOAD build/modutime.o
LOAD build/modumsgpack.o
LOAD build/moduvalue.o
LOAD build/gccollect.o
LOAD build/openpython_vfs.o
LOAD build/msgpack.o
LOAD build/syscall.o
LOAD build/gchelper_m0.o
LOAD build/lib/mpack/mpack-common.o
LOAD build/lib/mpack/mpack-expect.o
LOAD build/lib/mpack/mpack-node.o
LOAD build/lib/mpack/mpack-platform.o
LOAD build/lib/mpack/mpack-reader.o
LOAD build/lib/mpack/mpack-writer.o
LOAD build/lib/utils/sys_stdio_mphal.o
LOAD build/lib/utils/interrupt_char.o
LOAD build/lib/utils/pyexec.o
LOAD build/lib/libc/string0.o
LOAD build/lib/mp-readline/readline.o
LOAD build/lib/libm/math.o
LOAD build/lib/libm/acoshf.o
LOAD build/lib/libm/asinfacosf.o
LOAD build/lib/libm/asinhf.o
LOAD build/lib/libm/atan2f.o
LOAD build/lib/libm/atanf.o
LOAD build/lib/libm/atanhf.o
LOAD build/lib/libm/ef_rem_pio2.o
LOAD build/lib/libm/ef_sqrt.o
LOAD build/lib/libm/erf_lgamma.o
LOAD build/lib/libm/fmodf.o
LOAD build/lib/libm/kf_cos.o
LOAD build/lib/libm/kf_rem_pio2.o
LOAD build/lib/libm/kf_sin.o
LOAD build/lib/libm/kf_tan.o
LOAD build/lib/libm/log1pf.o
LOAD build/lib/libm/nearbyintf.o
LOAD build/lib/libm/sf_cos.o
LOAD build/lib/libm/sf_erf.o
LOAD build/lib/libm/sf_frexp.o
LOAD build/lib/libm/sf_ldexp.o
LOAD build/lib/libm/sf_modf.o
LOAD build/lib/libm/sf_sin.o
LOAD build/lib/libm/sf_tan.o
LOAD build/lib/libm/wf_lgamma.o
LOAD build/lib/libm/wf_tgamma.o
LOAD /usr/bin/../lib/gcc/arm-none-eabi/7.3.1/thumb/v6-m/libgcc.a
OUTPUT(build/firmware.elf elf32-littlearm)

.comment        0x0000000000000000       0x7f
 .comment       0x0000000000000000       0x7f build/py/mpstate.o
                                         0x80 (size before relaxing)
 .comment       0x000000000000007f       0x80 build/py/nlr.o
 .comment       0x000000000000007f       0x80 build/py/nlrthumb.o
 .comment       0x000000000000007f       0x80 build/py/malloc.o
 .comment       0x000000000000007f       0x80 build/py/gc.o
 .comment       0x000000000000007f       0x80 build/py/pystack.o
 .comment       0x000000000000007f       0x80 build/py/qstr.o
 .comment       0x000000000000007f       0x80 build/py/vstr.o
 .comment       0x000000000000007f       0x80 build/py/mpprint.o
 .comment       0x000000000000007f       0x80 build/py/unicode.o
 .comment       0x000000000000007f       0x80 build/py/mpz.o
 .comment       0x000000000000007f       0x80 build/py/reader.o
 .comment       0x000000000000007f       0x80 build/py/lexer.o
 .comment       0x000000000000007f       0x80 build/py/parse.o
 .comment       0x000000000000007f       0x80 build/py/scope.o
 .comment       0x000000000000007f       0x80 build/py/compile.o
 .comment       0x000000000000007f       0x80 build/py/emitcommon.o
 .comment       0x000000000000007f       0x80 build/py/emitbc.o
 .comment       0x000000000000007f       0x80 build/py/formatfloat.o
 .comment       0x000000000000007f       0x80 build/py/parsenumbase.o
 .comment       0x000000000000007f       0x80 build/py/parsenum.o
 .comment       0x000000000000007f       0x80 build/py/emitglue.o
 .comment       0x000000000000007f       0x80 build/py/persistentcode.o
 .comment       0x000000000000007f       0x80 build/py/runtime.o
 .comment       0x000000000000007f       0x80 build/py/runtime_utils.o
 .comment       0x000000000000007f       0x80 build/py/scheduler.o
 .comment       0x000000000000007f       0x80 build/py/stackctrl.o
 .comment       0x000000000000007f       0x80 build/py/argcheck.o
 .comment       0x000000000000007f       0x80 build/py/warning.o
 .comment       0x000000000000007f       0x80 build/py/map.o
 .comment       0x000000000000007f       0x80 build/py/obj.o
 .comment       0x000000000000007f       0x80 build/py/objarray.o
 .comment       0x000000000000007f       0x80 build/py/objattrtuple.o
 .comment       0x000000000000007f       0x80 build/py/objbool.o
 .comment       0x000000000000007f       0x80 build/py/objboundmeth.o
 .comment       0x000000000000007f       0x80 build/py/objcell.o
 .comment       0x000000000000007f       0x80 build/py/objclosure.o
 .comment       0x000000000000007f       0x80 build/py/objcomplex.o
 .comment       0x000000000000007f       0x80 build/py/objdeque.o
 .comment       0x000000000000007f       0x80 build/py/objdict.o
 .comment       0x000000000000007f       0x80 build/py/objenumerate.o
 .comment       0x000000000000007f       0x80 build/py/objexcept.o
 .comment       0x000000000000007f       0x80 build/py/objfilter.o
 .comment       0x000000000000007f       0x80 build/py/objfloat.o
 .comment       0x000000000000007f       0x80 build/py/objfun.o
 .comment       0x000000000000007f       0x80 build/py/objgenerator.o
 .comment       0x000000000000007f       0x80 build/py/objgetitemiter.o
 .comment       0x000000000000007f       0x80 build/py/objint.o
 .comment       0x000000000000007f       0x80 build/py/objint_mpz.o
 .comment       0x000000000000007f       0x80 build/py/objlist.o
 .comment       0x000000000000007f       0x80 build/py/objmap.o
 .comment       0x000000000000007f       0x80 build/py/objmodule.o
 .comment       0x000000000000007f       0x80 build/py/objobject.o
 .comment       0x000000000000007f       0x80 build/py/objpolyiter.o
 .comment       0x000000000000007f       0x80 build/py/objproperty.o
 .comment       0x000000000000007f       0x80 build/py/objnone.o
 .comment       0x000000000000007f       0x80 build/py/objnamedtuple.o
 .comment       0x000000000000007f       0x80 build/py/objrange.o
 .comment       0x000000000000007f       0x80 build/py/objreversed.o
 .comment       0x000000000000007f       0x80 build/py/objset.o
 .comment       0x000000000000007f       0x80 build/py/objsingleton.o
 .comment       0x000000000000007f       0x80 build/py/objslice.o
 .comment       0x000000000000007f       0x80 build/py/objstr.o
 .comment       0x000000000000007f       0x80 build/py/objstrunicode.o
 .comment       0x000000000000007f       0x80 build/py/objstringio.o
 .comment       0x000000000000007f       0x80 build/py/objtuple.o
 .comment       0x000000000000007f       0x80 build/py/objtype.o
 .comment       0x000000000000007f       0x80 build/py/objzip.o
 .comment       0x000000000000007f       0x80 build/py/opmethods.o
 .comment       0x000000000000007f       0x80 build/py/sequence.o
 .comment       0x000000000000007f       0x80 build/py/stream.o
 .comment       0x000000000000007f       0x80 build/py/binary.o
 .comment       0x000000000000007f       0x80 build/py/builtinimport.o
 .comment       0x000000000000007f       0x80 build/py/builtinevex.o
 .comment       0x000000000000007f       0x80 build/py/builtinhelp.o
 .comment       0x000000000000007f       0x80 build/py/modarray.o
 .comment       0x000000000000007f       0x80 build/py/modbuiltins.o
 .comment       0x000000000000007f       0x80 build/py/modcollections.o
 .comment       0x000000000000007f       0x80 build/py/modgc.o
 .comment       0x000000000000007f       0x80 build/py/modio.o
 .comment       0x000000000000007f       0x80 build/py/modmath.o
 .comment       0x000000000000007f       0x80 build/py/modcmath.o
 .comment       0x000000000000007f       0x80 build/py/modmicropython.o
 .comment       0x000000000000007f       0x80 build/py/modstruct.o
 .comment       0x000000000000007f       0x80 build/py/modsys.o
 .comment       0x000000000000007f       0x80 build/py/moduerrno.o
 .comment       0x000000000000007f       0x80 build/py/vm.o
 .comment       0x000000000000007f       0x80 build/py/bc.o
 .comment       0x000000000000007f       0x80 build/py/repl.o
 .comment       0x000000000000007f       0x80 build/py/smallint.o
 .comment       0x000000000000007f       0x80 build/py/frozenmod.o
 .comment       0x000000000000007f       0x80 build/extmod/moductypes.o
 .comment       0x000000000000007f       0x80 build/extmod/modujson.o
 .comment       0x000000000000007f       0x80 build/extmod/modure.o
 .comment       0x000000000000007f       0x80 build/extmod/moduzlib.o
 .comment       0x000000000000007f       0x80 build/extmod/moduheapq.o
 .comment       0x000000000000007f       0x80 build/extmod/modutimeq.o
 .comment       0x000000000000007f       0x80 build/extmod/moduhashlib.o
 .comment       0x000000000000007f       0x80 build/extmod/modubinascii.o
 .comment       0x000000000000007f       0x80 build/extmod/modurandom.o
 .comment       0x000000000000007f       0x80 build/extmod/vfs.o
 .comment       0x000000000000007f       0x80 build/extmod/vfs_reader.o
 .comment       0x000000000000007f       0x80 build/extmod/utime_mphal.o
 .comment       0x000000000000007f       0x80 build/lib/utils/printf.o
 .comment       0x000000000000007f       0x80 build/build/frozen.o
 .comment       0x000000000000007f       0x80 build/build/frozen_mpy.o
 .comment       0x000000000000007f       0x80 build/main.o
 .comment       0x000000000000007f       0x80 build/help.o
 .comment       0x000000000000007f       0x80 build/machine.o
 .comment       0x000000000000007f       0x80 build/mphalport.o
 .comment       0x000000000000007f       0x80 build/modmachine.o
 .comment       0x000000000000007f       0x80 build/moducode.o
 .comment       0x000000000000007f       0x80 build/moducomponent.o
 .comment       0x000000000000007f       0x80 build/moducomputer.o
 .comment       0x000000000000007f       0x80 build/moduos.o
 .comment       0x000000000000007f       0x80 build/moduimp.o
 .comment       0x000000000000007f       0x80 build/modutime.o
 .comment       0x000000000000007f       0x80 build/modumsgpack.o
 .comment       0x000000000000007f       0x80 build/moduvalue.o
 .comment       0x000000000000007f       0x80 build/gccollect.o
 .comment       0x000000000000007f       0x80 build/openpython_vfs.o
 .comment       0x000000000000007f       0x80 build/msgpack.o
 .comment       0x000000000000007f       0x80 build/syscall.o
 .comment       0x000000000000007f       0x80 build/lib/mpack/mpack-common.o
 .comment       0x000000000000007f       0x80 build/lib/mpack/mpack-platform.o
 .comment       0x000000000000007f       0x80 build/lib/mpack/mpack-reader.o
 .comment       0x000000000000007f       0x80 build/lib/mpack/mpack-writer.o
 .comment       0x000000000000007f       0x80 build/lib/utils/sys_stdio_mphal.o
 .comment       0x000000000000007f       0x80 build/lib/utils/interrupt_char.o
 .comment       0x000000000000007f       0x80 build/lib/utils/pyexec.o
 .comment       0x000000000000007f       0x80 build/lib/libc/string0.o
 .comment       0x000000000000007f       0x80 build/lib/mp-readline/readline.o
 .comment       0x000000000000007f       0x80 build/lib/libm/math.o
 .comment       0x000000000000007f       0x80 build/lib/libm/acoshf.o
 .comment       0x000000000000007f       0x80 build/lib/libm/asinfacosf.o
 .comment       0x000000000000007f       0x80 build/lib/libm/asinhf.o
 .comment       0x000000000000007f       0x80 build/lib/libm/atan2f.o
 .comment       0x000000000000007f       0x80 build/lib/libm/atanf.o
 .comment       0x000000000000007f       0x80 build/lib/libm/atanhf.o
 .comment       0x000000000000007f       0x80 build/lib/libm/ef_rem_pio2.o
 .comment       0x000000000000007f       0x80 build/lib/libm/ef_sqrt.o
 .comment       0x000000000000007f       0x80 build/lib/libm/erf_lgamma.o
 .comment       0x000000000000007f       0x80 build/lib/libm/fmodf.o
 .comment       0x000000000000007f       0x80 build/lib/libm/kf_cos.o
 .comment       0x000000000000007f       0x80 build/lib/libm/kf_rem_pio2.o
 .comment       0x000000000000007f       0x80 build/lib/libm/kf_sin.o
 .comment       0x000000000000007f       0x80 build/lib/libm/kf_tan.o
 .comment       0x000000000000007f       0x80 build/lib/libm/log1pf.o
 .comment       0x000000000000007f       0x80 build/lib/libm/nearbyintf.o
 .comment       0x000000000000007f       0x80 build/lib/libm/sf_cos.o
 .comment       0x000000000000007f       0x80 build/lib/libm/sf_erf.o
 .comment       0x000000000000007f       0x80 build/lib/libm/sf_frexp.o
 .comment       0x000000000000007f       0x80 build/lib/libm/sf_ldexp.o
 .comment       0x000000000000007f       0x80 build/lib/libm/sf_modf.o
 .comment       0x000000000000007f       0x80 build/lib/libm/sf_sin.o
 .comment       0x000000000000007f       0x80 build/lib/libm/sf_tan.o
 .comment       0x000000000000007f       0x80 build/lib/libm/wf_lgamma.o
 .comment       0x000000000000007f       0x80 build/lib/libm/wf_tgamma.o

.debug_frame    0x0000000000000000      0x2f4
 .debug_frame   0x0000000000000000       0x20 /usr/bin/../lib/gcc/arm-none-eabi/7.3.1/thumb/v6-m/libgcc.a(_udivsi3.o)
 .debug_frame   0x0000000000000020       0x20 /usr/bin/../lib/gcc/arm-none-eabi/7.3.1/thumb/v6-m/libgcc.a(_divsi3.o)
 .debug_frame   0x0000000000000040       0x28 /usr/bin/../lib/gcc/arm-none-eabi/7.3.1/thumb/v6-m/libgcc.a(_fixunssfsi.o)
 .debug_frame   0x0000000000000068       0x38 /usr/bin/../lib/gcc/arm-none-eabi/7.3.1/thumb/v6-m/libgcc.a(addsf3.o)
 .debug_frame   0x00000000000000a0       0x3c /usr/bin/../lib/gcc/arm-none-eabi/7.3.1/thumb/v6-m/libgcc.a(divsf3.o)
 .debug_frame   0x00000000000000dc       0x2c /usr/bin/../lib/gcc/arm-none-eabi/7.3.1/thumb/v6-m/libgcc.a(eqsf2.o)
 .debug_frame   0x0000000000000108       0x2c /usr/bin/../lib/gcc/arm-none-eabi/7.3.1/thumb/v6-m/libgcc.a(gesf2.o)
 .debug_frame   0x0000000000000134       0x2c /usr/bin/../lib/gcc/arm-none-eabi/7.3.1/thumb/v6-m/libgcc.a(lesf2.o)
 .debug_frame   0x0000000000000160       0x3c /usr/bin/../lib/gcc/arm-none-eabi/7.3.1/thumb/v6-m/libgcc.a(mulsf3.o)
 .debug_frame   0x000000000000019c       0x38 /usr/bin/../lib/gcc/arm-none-eabi/7.3.1/thumb/v6-m/libgcc.a(subsf3.o)
 .debug_frame   0x00000000000001d4       0x20 /usr/bin/../lib/gcc/arm-none-eabi/7.3.1/thumb/v6-m/libgcc.a(unordsf2.o)
 .debug_frame   0x00000000000001f4       0x20 /usr/bin/../lib/gcc/arm-none-eabi/7.3.1/thumb/v6-m/libgcc.a(fixsfsi.o)
 .debug_frame   0x0000000000000214       0x2c /usr/bin/../lib/gcc/arm-none-eabi/7.3.1/thumb/v6-m/libgcc.a(floatsisf.o)
 .debug_frame   0x0000000000000240       0x2c /usr/bin/../lib/gcc/arm-none-eabi/7.3.1/thumb/v6-m/libgcc.a(floatunsisf.o)
 .debug_frame   0x000000000000026c       0x2c /usr/bin/../lib/gcc/arm-none-eabi/7.3.1/thumb/v6-m/libgcc.a(floatsidf.o)
 .debug_frame   0x0000000000000298       0x2c /usr/bin/../lib/gcc/arm-none-eabi/7.3.1/thumb/v6-m/libgcc.a(extendsfdf2.o)
 .debug_frame   0x00000000000002c4       0x30 /usr/bin/../lib/gcc/arm-none-eabi/7.3.1/thumb/v6-m/libgcc.a(truncdfsf2.o)

Cross Reference Table

Symbol                                            File
Call_Handler                                      build/machine.o
Reset_Handler                                     build/machine.o
__GI_vsnprintf                                    build/lib/utils/printf.o
__aeabi_cdcmpeq                                   /usr/bin/../lib/gcc/arm-none-eabi/7.3.1/thumb/v6-m/libgcc.a(_arm_cmpdf2.o)
__aeabi_cdcmple                                   /usr/bin/../lib/gcc/arm-none-eabi/7.3.1/thumb/v6-m/libgcc.a(_arm_cmpdf2.o)
__aeabi_cdrcmple                                  /usr/bin/../lib/gcc/arm-none-eabi/7.3.1/thumb/v6-m/libgcc.a(_arm_cmpdf2.o)
__aeabi_cfcmpeq                                   /usr/bin/../lib/gcc/arm-none-eabi/7.3.1/thumb/v6-m/libgcc.a(_arm_cmpsf2.o)
__aeabi_cfcmple                                   /usr/bin/../lib/gcc/arm-none-eabi/7.3.1/thumb/v6-m/libgcc.a(_arm_cmpsf2.o)
__aeabi_cfrcmple                                  /usr/bin/../lib/gcc/arm-none-eabi/7.3.1/thumb/v6-m/libgcc.a(_arm_cmpsf2.o)
__aeabi_d2f                                       /usr/bin/../lib/gcc/arm-none-eabi/7.3.1/thumb/v6-m/libgcc.a(truncdfsf2.o)
                                                  /usr/bin/../lib/gcc/arm-none-eabi/7.3.1/thumb/v6-m/libgcc.a(_floatundisf.o)
                                                  /usr/bin/../lib/gcc/arm-none-eabi/7.3.1/thumb/v6-m/libgcc.a(_floatdisf.o)
                                                  build/lib/mpack/mpack-node.o
                                                  build/lib/mpack/mpack-expect.o
                                                  build/msgpack.o
                                                  build/extmod/moductypes.o
                                                  build/py/binary.o
                                                  build/py/mpprint.o
__aeabi_dadd                                      /usr/bin/../lib/gcc/arm-none-eabi/7.3.1/thumb/v6-m/libgcc.a(adddf3.o)
                                                  /usr/bin/../lib/gcc/arm-none-eabi/7.3.1/thumb/v6-m/libgcc.a(_floatundidf.o)
                                                  /usr/bin/../lib/gcc/arm-none-eabi/7.3.1/thumb/v6-m/libgcc.a(_floatundisf.o)
                                                  /usr/bin/../lib/gcc/arm-none-eabi/7.3.1/thumb/v6-m/libgcc.a(_floatdidf.o)
                                                  /usr/bin/../lib/gcc/arm-none-eabi/7.3.1/thumb/v6-m/libgcc.a(_floatdisf.o)
__aeabi_dcmpeq                                    /usr/bin/../lib/gcc/arm-none-eabi/7.3.1/thumb/v6-m/libgcc.a(_arm_cmpdf2.o)
__aeabi_dcmpge                                    /usr/bin/../lib/gcc/arm-none-eabi/7.3.1/thumb/v6-m/libgcc.a(_arm_cmpdf2.o)
__aeabi_dcmpgt                                    /usr/bin/../lib/gcc/arm-none-eabi/7.3.1/thumb/v6-m/libgcc.a(_arm_cmpdf2.o)
                                                  build/lib/mpack/mpack-expect.o
__aeabi_dcmple                                    /usr/bin/../lib/gcc/arm-none-eabi/7.3.1/thumb/v6-m/libgcc.a(_arm_cmpdf2.o)
__aeabi_dcmplt                                    /usr/bin/../lib/gcc/arm-none-eabi/7.3.1/thumb/v6-m/libgcc.a(_arm_cmpdf2.o)
                                                  build/lib/mpack/mpack-expect.o
__aeabi_dmul                                      /usr/bin/../lib/gcc/arm-none-eabi/7.3.1/thumb/v6-m/libgcc.a(muldf3.o)
                                                  /usr/bin/../lib/gcc/arm-none-eabi/7.3.1/thumb/v6-m/libgcc.a(_floatundidf.o)
                                                  /usr/bin/../lib/gcc/arm-none-eabi/7.3.1/thumb/v6-m/libgcc.a(_floatundisf.o)
                                                  /usr/bin/../lib/gcc/arm-none-eabi/7.3.1/thumb/v6-m/libgcc.a(_floatdidf.o)
                                                  /usr/bin/../lib/gcc/arm-none-eabi/7.3.1/thumb/v6-m/libgcc.a(_floatdisf.o)
__aeabi_f2d                                       /usr/bin/../lib/gcc/arm-none-eabi/7.3.1/thumb/v6-m/libgcc.a(extendsfdf2.o)
                                                  build/lib/mpack/mpack-node.o
                                                  build/lib/mpack/mpack-expect.o
                                                  build/extmod/moductypes.o
                                                  build/py/binary.o
__aeabi_f2iz                                      /usr/bin/../lib/gcc/arm-none-eabi/7.3.1/thumb/v6-m/libgcc.a(fixsfsi.o)
                                                  /usr/bin/../lib/gcc/arm-none-eabi/7.3.1/thumb/v6-m/libgcc.a(_fixunssfsi.o)
                                                  build/lib/libm/kf_tan.o
                                                  build/lib/libm/kf_sin.o
                                                  build/lib/libm/kf_rem_pio2.o
                                                  build/lib/libm/kf_cos.o
                                                  build/lib/libm/erf_lgamma.o
                                                  build/lib/libm/ef_rem_pio2.o
                                                  build/lib/libm/math.o
                                                  build/py/objint.o
                                                  build/py/formatfloat.o
__aeabi_f2uiz                                     /usr/bin/../lib/gcc/arm-none-eabi/7.3.1/thumb/v6-m/libgcc.a(_fixunssfsi.o)
                                                  build/extmod/utime_mphal.o
__aeabi_fadd                                      /usr/bin/../lib/gcc/arm-none-eabi/7.3.1/thumb/v6-m/libgcc.a(addsf3.o)
                                                  build/lib/libm/wf_tgamma.o
                                                  build/lib/libm/sf_erf.o
                                                  build/lib/libm/nearbyintf.o
                                                  build/lib/libm/log1pf.o
                                                  build/lib/libm/kf_tan.o
                                                  build/lib/libm/kf_sin.o
                                                  build/lib/libm/kf_rem_pio2.o
                                                  build/lib/libm/kf_cos.o
                                                  build/lib/libm/erf_lgamma.o
                                                  build/lib/libm/ef_sqrt.o
                                                  build/lib/libm/ef_rem_pio2.o
                                                  build/lib/libm/atanhf.o
                                                  build/lib/libm/atanf.o
                                                  build/lib/libm/atan2f.o
                                                  build/lib/libm/asinhf.o
                                                  build/lib/libm/asinfacosf.o
                                                  build/lib/libm/acoshf.o
                                                  build/lib/libm/math.o
                                                  build/extmod/modurandom.o
                                                  build/py/modcmath.o
                                                  build/py/objfloat.o
                                                  build/py/objcomplex.o
                                                  build/py/parsenum.o
                                                  build/py/mpz.o
__aeabi_fcmpeq                                    /usr/bin/../lib/gcc/arm-none-eabi/7.3.1/thumb/v6-m/libgcc.a(_arm_cmpsf2.o)
                                                  build/lib/libm/sf_ldexp.o
                                                  build/lib/libm/nearbyintf.o
                                                  build/lib/libm/log1pf.o
                                                  build/lib/libm/kf_rem_pio2.o
                                                  build/lib/libm/erf_lgamma.o
                                                  build/lib/libm/ef_rem_pio2.o
                                                  build/py/modmath.o
                                                  build/py/objfloat.o
                                                  build/py/objcomplex.o
__aeabi_fcmpge                                    /usr/bin/../lib/gcc/arm-none-eabi/7.3.1/thumb/v6-m/libgcc.a(_arm_cmpsf2.o)
                                                  /usr/bin/../lib/gcc/arm-none-eabi/7.3.1/thumb/v6-m/libgcc.a(_fixunssfsi.o)
                                                  build/lib/libm/kf_rem_pio2.o
                                                  build/lib/libm/math.o
                                                  build/py/objfloat.o
                                                  build/py/objcomplex.o
                                                  build/py/formatfloat.o
__aeabi_fcmpgt                                    /usr/bin/../lib/gcc/arm-none-eabi/7.3.1/thumb/v6-m/libgcc.a(_arm_cmpsf2.o)
                                                  build/lib/libm/wf_tgamma.o
                                                  build/lib/libm/sf_ldexp.o
                                                  build/lib/libm/math.o
                                                  build/lib/mpack/mpack-expect.o
                                                  build/py/modmath.o
                                                  build/py/objint.o
                                                  build/py/objfloat.o
                                                  build/py/formatfloat.o
__aeabi_fcmple                                    /usr/bin/../lib/gcc/arm-none-eabi/7.3.1/thumb/v6-m/libgcc.a(_arm_cmpsf2.o)
                                                  build/py/modmath.o
                                                  build/py/objfloat.o
                                                  build/py/formatfloat.o
__aeabi_fcmplt                                    /usr/bin/../lib/gcc/arm-none-eabi/7.3.1/thumb/v6-m/libgcc.a(_arm_cmpsf2.o)
                                                  build/lib/libm/erf_lgamma.o
                                                  build/lib/libm/math.o
                                                  build/lib/mpack/mpack-expect.o
                                                  build/py/objfloat.o
                                                  build/py/parsenum.o
__aeabi_fcmpun                                    /usr/bin/../lib/gcc/arm-none-eabi/7.3.1/thumb/v6-m/libgcc.a(unordsf2.o)
                                                  build/lib/libm/wf_tgamma.o
                                                  build/lib/libm/sf_ldexp.o
                                                  build/lib/libm/fmodf.o
                                                  build/lib/libm/atanf.o
                                                  build/lib/libm/atan2f.o
                                                  build/py/modmath.o
                                                  build/py/objint.o
                                                  build/py/objfloat.o
                                                  build/py/objcomplex.o
                                                  build/py/formatfloat.o
__aeabi_fdiv                                      /usr/bin/../lib/gcc/arm-none-eabi/7.3.1/thumb/v6-m/libgcc.a(divsf3.o)
                                                  build/lib/libm/sf_erf.o
                                                  build/lib/libm/log1pf.o
                                                  build/lib/libm/kf_tan.o
                                                  build/lib/libm/fmodf.o
                                                  build/lib/libm/erf_lgamma.o
                                                  build/lib/libm/ef_sqrt.o
                                                  build/lib/libm/atanhf.o
                                                  build/lib/libm/atanf.o
                                                  build/lib/libm/atan2f.o
                                                  build/lib/libm/asinhf.o
                                                  build/lib/libm/asinfacosf.o
                                                  build/lib/libm/acoshf.o
                                                  build/lib/libm/math.o
                                                  build/py/modmath.o
                                                  build/py/modbuiltins.o
                                                  build/py/objint_mpz.o
                                                  build/py/objfloat.o
                                                  build/py/objcomplex.o
                                                  build/py/runtime.o
                                                  build/py/parsenum.o
__aeabi_fmul                                      /usr/bin/../lib/gcc/arm-none-eabi/7.3.1/thumb/v6-m/libgcc.a(mulsf3.o)
                                                  build/lib/libm/sf_frexp.o
                                                  build/lib/libm/sf_erf.o
                                                  build/lib/libm/log1pf.o
                                                  build/lib/libm/kf_tan.o
                                                  build/lib/libm/kf_sin.o
                                                  build/lib/libm/kf_rem_pio2.o
                                                  build/lib/libm/kf_cos.o
                                                  build/lib/libm/fmodf.o
                                                  build/lib/libm/erf_lgamma.o
                                                  build/lib/libm/ef_sqrt.o
                                                  build/lib/libm/ef_rem_pio2.o
                                                  build/lib/libm/atanhf.o
                                                  build/lib/libm/atanf.o
                                                  build/lib/libm/asinhf.o
                                                  build/lib/libm/asinfacosf.o
                                                  build/lib/libm/acoshf.o
                                                  build/lib/libm/math.o
                                                  build/extmod/utime_mphal.o
                                                  build/extmod/modurandom.o
                                                  build/py/modcmath.o
                                                  build/py/modmath.o
                                                  build/py/modbuiltins.o
                                                  build/py/objstr.o
                                                  build/py/objfloat.o
                                                  build/py/objcomplex.o
                                                  build/py/parsenum.o
                                                  build/py/formatfloat.o
                                                  build/py/mpz.o
__aeabi_fsub                                      /usr/bin/../lib/gcc/arm-none-eabi/7.3.1/thumb/v6-m/libgcc.a(subsf3.o)
                                                  /usr/bin/../lib/gcc/arm-none-eabi/7.3.1/thumb/v6-m/libgcc.a(_fixunssfsi.o)
                                                  build/lib/libm/sf_tan.o
                                                  build/lib/libm/sf_sin.o
                                                  build/lib/libm/sf_modf.o
                                                  build/lib/libm/sf_erf.o
                                                  build/lib/libm/sf_cos.o
                                                  build/lib/libm/nearbyintf.o
                                                  build/lib/libm/log1pf.o
                                                  build/lib/libm/kf_tan.o
                                                  build/lib/libm/kf_sin.o
                                                  build/lib/libm/kf_rem_pio2.o
                                                  build/lib/libm/kf_cos.o
                                                  build/lib/libm/erf_lgamma.o
                                                  build/lib/libm/ef_sqrt.o
                                                  build/lib/libm/ef_rem_pio2.o
                                                  build/lib/libm/atanhf.o
                                                  build/lib/libm/atanf.o
                                                  build/lib/libm/atan2f.o
                                                  build/lib/libm/asinfacosf.o
                                                  build/lib/libm/acoshf.o
                                                  build/lib/libm/math.o
                                                  build/extmod/modurandom.o
                                                  build/py/objfloat.o
                                                  build/py/objcomplex.o
                                                  build/py/formatfloat.o
__aeabi_i2d                                       /usr/bin/../lib/gcc/arm-none-eabi/7.3.1/thumb/v6-m/libgcc.a(floatsidf.o)
                                                  /usr/bin/../lib/gcc/arm-none-eabi/7.3.1/thumb/v6-m/libgcc.a(_floatdidf.o)
                                                  /usr/bin/../lib/gcc/arm-none-eabi/7.3.1/thumb/v6-m/libgcc.a(_floatdisf.o)
                                                  build/py/binary.o
__aeabi_i2f                                       /usr/bin/../lib/gcc/arm-none-eabi/7.3.1/thumb/v6-m/libgcc.a(floatsisf.o)
                                                  build/lib/libm/sf_erf.o
                                                  build/lib/libm/log1pf.o
                                                  build/lib/libm/kf_tan.o
                                                  build/lib/libm/kf_rem_pio2.o
                                                  build/lib/libm/erf_lgamma.o
                                                  build/lib/libm/ef_rem_pio2.o
                                                  build/lib/libm/math.o
                                                  build/py/modbuiltins.o
                                                  build/py/binary.o
                                                  build/py/obj.o
                                                  build/py/runtime.o
                                                  build/py/parsenum.o
                                                  build/py/formatfloat.o
                                                  build/py/mpz.o
__aeabi_idiv                                      /usr/bin/../lib/gcc/arm-none-eabi/7.3.1/thumb/v6-m/libgcc.a(_divsi3.o)
                                                  build/extmod/modurandom.o
                                                  build/py/smallint.o
                                                  build/py/objrange.o
                                                  build/py/formatfloat.o
__aeabi_idiv0                                     /usr/bin/../lib/gcc/arm-none-eabi/7.3.1/thumb/v6-m/libgcc.a(_dvmd_tls.o)
                                                  /usr/bin/../lib/gcc/arm-none-eabi/7.3.1/thumb/v6-m/libgcc.a(_divsi3.o)
                                                  /usr/bin/../lib/gcc/arm-none-eabi/7.3.1/thumb/v6-m/libgcc.a(_udivsi3.o)
__aeabi_idivmod                                   /usr/bin/../lib/gcc/arm-none-eabi/7.3.1/thumb/v6-m/libgcc.a(_divsi3.o)
                                                  build/extmod/moduzlib.o
                                                  build/py/smallint.o
                                                  build/py/formatfloat.o
__aeabi_l2d                                       /usr/bin/../lib/gcc/arm-none-eabi/7.3.1/thumb/v6-m/libgcc.a(_floatdidf.o)
                                                  build/lib/mpack/mpack-node.o
                                                  build/lib/mpack/mpack-expect.o
__aeabi_l2f                                       /usr/bin/../lib/gcc/arm-none-eabi/7.3.1/thumb/v6-m/libgcc.a(_floatdisf.o)
                                                  build/lib/mpack/mpack-node.o
                                                  build/lib/mpack/mpack-expect.o
__aeabi_ldiv0                                     /usr/bin/../lib/gcc/arm-none-eabi/7.3.1/thumb/v6-m/libgcc.a(_dvmd_tls.o)
__aeabi_ui2d                                      /usr/bin/../lib/gcc/arm-none-eabi/7.3.1/thumb/v6-m/libgcc.a(floatunsidf.o)
                                                  /usr/bin/../lib/gcc/arm-none-eabi/7.3.1/thumb/v6-m/libgcc.a(_floatundidf.o)
                                                  /usr/bin/../lib/gcc/arm-none-eabi/7.3.1/thumb/v6-m/libgcc.a(_floatundisf.o)
                                                  /usr/bin/../lib/gcc/arm-none-eabi/7.3.1/thumb/v6-m/libgcc.a(_floatdidf.o)
                                                  /usr/bin/../lib/gcc/arm-none-eabi/7.3.1/thumb/v6-m/libgcc.a(_floatdisf.o)
__aeabi_ui2f                                      /usr/bin/../lib/gcc/arm-none-eabi/7.3.1/thumb/v6-m/libgcc.a(floatunsisf.o)
                                                  build/lib/libm/sf_erf.o
                                                  build/py/parsenum.o
__aeabi_uidiv                                     /usr/bin/../lib/gcc/arm-none-eabi/7.3.1/thumb/v6-m/libgcc.a(_udivsi3.o)
                                                  build/mphalport.o
                                                  build/extmod/modubinascii.o
                                                  build/py/objint.o
                                                  build/py/objarray.o
                                                  build/py/mpz.o
                                                  build/py/gc.o
__aeabi_uidivmod                                  /usr/bin/../lib/gcc/arm-none-eabi/7.3.1/thumb/v6-m/libgcc.a(_udivsi3.o)
                                                  build/extmod/moduzlib.o
                                                  build/py/objint.o
                                                  build/py/map.o
                                                  build/py/mpz.o
                                                  build/py/mpprint.o
__aeabi_ul2d                                      /usr/bin/../lib/gcc/arm-none-eabi/7.3.1/thumb/v6-m/libgcc.a(_floatundidf.o)
                                                  build/lib/mpack/mpack-node.o
                                                  build/lib/mpack/mpack-expect.o
__aeabi_ul2f                                      /usr/bin/../lib/gcc/arm-none-eabi/7.3.1/thumb/v6-m/libgcc.a(_floatundisf.o)
                                                  build/lib/mpack/mpack-node.o
                                                  build/lib/mpack/mpack-expect.o
__clzsi2                                          /usr/bin/../lib/gcc/arm-none-eabi/7.3.1/thumb/v6-m/libgcc.a(_clzsi2.o)
                                                  /usr/bin/../lib/gcc/arm-none-eabi/7.3.1/thumb/v6-m/libgcc.a(extendsfdf2.o)
                                                  /usr/bin/../lib/gcc/arm-none-eabi/7.3.1/thumb/v6-m/libgcc.a(floatunsidf.o)
                                                  /usr/bin/../lib/gcc/arm-none-eabi/7.3.1/thumb/v6-m/libgcc.a(floatsidf.o)
                                                  /usr/bin/../lib/gcc/arm-none-eabi/7.3.1/thumb/v6-m/libgcc.a(muldf3.o)
                                                  /usr/bin/../lib/gcc/arm-none-eabi/7.3.1/thumb/v6-m/libgcc.a(adddf3.o)
                                                  /usr/bin/../lib/gcc/arm-none-eabi/7.3.1/thumb/v6-m/libgcc.a(floatunsisf.o)
                                                  /usr/bin/../lib/gcc/arm-none-eabi/7.3.1/thumb/v6-m/libgcc.a(floatsisf.o)
                                                  /usr/bin/../lib/gcc/arm-none-eabi/7.3.1/thumb/v6-m/libgcc.a(subsf3.o)
                                                  /usr/bin/../lib/gcc/arm-none-eabi/7.3.1/thumb/v6-m/libgcc.a(mulsf3.o)
                                                  /usr/bin/../lib/gcc/arm-none-eabi/7.3.1/thumb/v6-m/libgcc.a(divsf3.o)
                                                  /usr/bin/../lib/gcc/arm-none-eabi/7.3.1/thumb/v6-m/libgcc.a(addsf3.o)
__divsi3                                          /usr/bin/../lib/gcc/arm-none-eabi/7.3.1/thumb/v6-m/libgcc.a(_divsi3.o)
__eqdf2                                           /usr/bin/../lib/gcc/arm-none-eabi/7.3.1/thumb/v6-m/libgcc.a(eqdf2.o)
                                                  /usr/bin/../lib/gcc/arm-none-eabi/7.3.1/thumb/v6-m/libgcc.a(_arm_cmpdf2.o)
__eqsf2                                           /usr/bin/../lib/gcc/arm-none-eabi/7.3.1/thumb/v6-m/libgcc.a(eqsf2.o)
                                                  /usr/bin/../lib/gcc/arm-none-eabi/7.3.1/thumb/v6-m/libgcc.a(_arm_cmpsf2.o)
__expo2f                                          build/lib/libm/math.o
__fatal_error                                     build/machine.o
                                                  build/moducomputer.o
                                                  build/mphalport.o
                                                  build/main.o
__fixunssfsi                                      /usr/bin/../lib/gcc/arm-none-eabi/7.3.1/thumb/v6-m/libgcc.a(_fixunssfsi.o)
__floatdidf                                       /usr/bin/../lib/gcc/arm-none-eabi/7.3.1/thumb/v6-m/libgcc.a(_floatdidf.o)
__floatdisf                                       /usr/bin/../lib/gcc/arm-none-eabi/7.3.1/thumb/v6-m/libgcc.a(_floatdisf.o)
__floatundidf                                     /usr/bin/../lib/gcc/arm-none-eabi/7.3.1/thumb/v6-m/libgcc.a(_floatundidf.o)
__floatundisf                                     /usr/bin/../lib/gcc/arm-none-eabi/7.3.1/thumb/v6-m/libgcc.a(_floatundisf.o)
__fpclassifyf                                     build/lib/libm/math.o
__gedf2                                           /usr/bin/../lib/gcc/arm-none-eabi/7.3.1/thumb/v6-m/libgcc.a(gedf2.o)
                                                  /usr/bin/../lib/gcc/arm-none-eabi/7.3.1/thumb/v6-m/libgcc.a(_arm_cmpdf2.o)
__gesf2                                           /usr/bin/../lib/gcc/arm-none-eabi/7.3.1/thumb/v6-m/libgcc.a(gesf2.o)
                                                  /usr/bin/../lib/gcc/arm-none-eabi/7.3.1/thumb/v6-m/libgcc.a(_arm_cmpsf2.o)
__gtdf2                                           /usr/bin/../lib/gcc/arm-none-eabi/7.3.1/thumb/v6-m/libgcc.a(gedf2.o)
__gtsf2                                           /usr/bin/../lib/gcc/arm-none-eabi/7.3.1/thumb/v6-m/libgcc.a(gesf2.o)
__ieee754_lgammaf_r                               build/lib/libm/erf_lgamma.o
                                                  build/lib/libm/wf_tgamma.o
                                                  build/lib/libm/wf_lgamma.o
__ieee754_rem_pio2f                               build/lib/libm/ef_rem_pio2.o
                                                  build/lib/libm/sf_tan.o
                                                  build/lib/libm/sf_sin.o
                                                  build/lib/libm/sf_cos.o
__kernel_cosf                                     build/lib/libm/kf_cos.o
                                                  build/lib/libm/sf_sin.o
                                                  build/lib/libm/sf_cos.o
                                                  build/lib/libm/erf_lgamma.o
__kernel_rem_pio2f                                build/lib/libm/kf_rem_pio2.o
                                                  build/lib/libm/ef_rem_pio2.o
__kernel_sinf                                     build/lib/libm/kf_sin.o
                                                  build/lib/libm/sf_sin.o
                                                  build/lib/libm/sf_cos.o
                                                  build/lib/libm/erf_lgamma.o
__kernel_tanf                                     build/lib/libm/kf_tan.o
                                                  build/lib/libm/sf_tan.o
__ledf2                                           /usr/bin/../lib/gcc/arm-none-eabi/7.3.1/thumb/v6-m/libgcc.a(ledf2.o)
                                                  /usr/bin/../lib/gcc/arm-none-eabi/7.3.1/thumb/v6-m/libgcc.a(_arm_cmpdf2.o)
__lesf2                                           /usr/bin/../lib/gcc/arm-none-eabi/7.3.1/thumb/v6-m/libgcc.a(lesf2.o)
                                                  /usr/bin/../lib/gcc/arm-none-eabi/7.3.1/thumb/v6-m/libgcc.a(_arm_cmpsf2.o)
__ltdf2                                           /usr/bin/../lib/gcc/arm-none-eabi/7.3.1/thumb/v6-m/libgcc.a(ledf2.o)
__ltsf2                                           /usr/bin/../lib/gcc/arm-none-eabi/7.3.1/thumb/v6-m/libgcc.a(lesf2.o)
__nedf2                                           /usr/bin/../lib/gcc/arm-none-eabi/7.3.1/thumb/v6-m/libgcc.a(eqdf2.o)
__nesf2                                           /usr/bin/../lib/gcc/arm-none-eabi/7.3.1/thumb/v6-m/libgcc.a(eqsf2.o)
__signbitf                                        build/lib/libm/math.o
__udivsi3                                         /usr/bin/../lib/gcc/arm-none-eabi/7.3.1/thumb/v6-m/libgcc.a(_udivsi3.o)
_ebss                                             build/machine.o
                                                  build/main.o
_edata                                            build/machine.o
_estack                                           build/gccollect.o
                                                  build/machine.o
                                                  build/main.o
_exit                                             build/machine.o
_ram_start                                        build/main.o
_re1_5_classmatch                                 build/extmod/modure.o
_re1_5_namedclassmatch                            build/extmod/modure.o
_sbss                                             build/machine.o
_sdata                                            build/machine.o
_sidata                                           build/machine.o
_start                                            build/machine.o
_svec                                             build/machine.o
abort_                                            build/lib/embed/abort_.o
acosf                                             build/lib/libm/asinfacosf.o
                                                  build/py/modmath.o
acoshf                                            build/lib/libm/acoshf.o
                                                  build/py/modmath.o
asinf                                             build/lib/libm/asinfacosf.o
                                                  build/py/modmath.o
asinhf                                            build/lib/libm/asinhf.o
                                                  build/py/modmath.o
atan2f                                            build/lib/libm/atan2f.o
                                                  build/py/modcmath.o
                                                  build/py/modmath.o
                                                  build/py/objcomplex.o
atanf                                             build/lib/libm/atanf.o
                                                  build/lib/libm/atan2f.o
                                                  build/py/modmath.o
atanhf                                            build/lib/libm/atanhf.o
                                                  build/py/modmath.o
bytes_decode_obj                                  build/py/objstr.o
ceilf                                             build/lib/libm/math.o
                                                  build/py/modmath.o
clcidx                                            build/extmod/moduzlib.o
closure_type                                      build/py/objclosure.o
cosf                                              build/lib/libm/sf_cos.o
                                                  build/py/modcmath.o
                                                  build/py/modmath.o
                                                  build/py/objcomplex.o
coshf                                             build/lib/libm/math.o
                                                  build/py/modcmath.o
                                                  build/py/modmath.o
debug_print                                       build/main.o
debug_printer                                     build/main.o
dist_base                                         build/extmod/moduzlib.o
dist_bits                                         build/extmod/moduzlib.o
do_frozen                                         build/main.o
do_str                                            build/main.o
emit_bc_free                                      build/py/emitbc.o
                                                  build/py/compile.o
emit_bc_new                                       build/py/emitbc.o
                                                  build/py/compile.o
emit_bc_set_max_num_labels                        build/py/emitbc.o
                                                  build/py/compile.o
erfcf                                             build/lib/libm/sf_erf.o
                                                  build/py/modmath.o
erff                                              build/lib/libm/sf_erf.o
                                                  build/py/modmath.o
expf                                              build/lib/libm/math.o
                                                  build/lib/libm/wf_tgamma.o
                                                  build/lib/libm/sf_erf.o
                                                  build/py/modcmath.o
                                                  build/py/modmath.o
                                                  build/py/objcomplex.o
expm1f                                            build/lib/libm/math.o
                                                  build/py/modmath.o
find_subbytes                                     build/py/objstr.o
                                                  build/py/objarray.o
floorf                                            build/lib/libm/math.o
                                                  build/lib/libm/kf_rem_pio2.o
                                                  build/lib/libm/erf_lgamma.o
                                                  build/py/modmath.o
                                                  build/py/objfloat.o
fmodf                                             build/lib/libm/fmodf.o
                                                  build/py/modmath.o
                                                  build/py/objfloat.o
frexpf                                            build/lib/libm/sf_frexp.o
                                                  build/py/modmath.o
gc_alloc                                          build/py/gc.o
                                                  build/lib/mpack/mpack-writer.o
                                                  build/lib/mpack/mpack-reader.o
                                                  build/lib/mpack/mpack-node.o
                                                  build/lib/mpack/mpack-expect.o
                                                  build/msgpack.o
                                                  build/py/malloc.o
gc_collect                                        build/gccollect.o
                                                  build/lib/utils/pyexec.o
                                                  build/py/modgc.o
                                                  build/py/gc.o
gc_collect_end                                    build/py/gc.o
                                                  build/gccollect.o
gc_collect_obj                                    build/py/modgc.o
gc_collect_root                                   build/py/gc.o
                                                  build/gccollect.o
gc_collect_start                                  build/py/gc.o
                                                  build/gccollect.o
gc_disable_obj                                    build/py/modgc.o
gc_dump_alloc_table                               build/py/gc.o
                                                  build/py/modmicropython.o
gc_dump_info                                      build/py/gc.o
                                                  build/lib/utils/pyexec.o
                                                  build/py/modmicropython.o
gc_enable_obj                                     build/py/modgc.o
gc_free                                           build/py/gc.o
                                                  build/lib/mpack/mpack-writer.o
                                                  build/lib/mpack/mpack-reader.o
                                                  build/lib/mpack/mpack-node.o
                                                  build/lib/mpack/mpack-expect.o
                                                  build/py/malloc.o
gc_helper_get_regs_and_sp                         build/gchelper_m0.o
                                                  build/gccollect.o
gc_info                                           build/py/gc.o
                                                  build/py/modgc.o
gc_init                                           build/py/gc.o
                                                  build/main.o
gc_is_locked                                      build/py/gc.o
                                                  build/py/runtime.o
gc_isenabled_obj                                  build/py/modgc.o
gc_lock                                           build/py/gc.o
                                                  build/py/modmicropython.o
gc_mem_alloc_obj                                  build/py/modgc.o
gc_mem_free_obj                                   build/py/modgc.o
gc_nbytes                                         build/py/gc.o
                                                  build/py/qstr.o
gc_realloc                                        build/py/gc.o
                                                  build/lib/mpack/mpack-writer.o
                                                  build/lib/mpack/mpack-platform.o
                                                  build/lib/mpack/mpack-node.o
                                                  build/py/malloc.o
gc_sweep_all                                      build/py/gc.o
gc_threshold_obj                                  build/py/modgc.o
gc_unlock                                         build/py/gc.o
                                                  build/py/modmicropython.o
ldexpf                                            build/lib/libm/sf_ldexp.o
                                                  build/py/modmath.o
length_base                                       build/extmod/moduzlib.o
length_bits                                       build/extmod/moduzlib.o
lgammaf                                           build/lib/libm/wf_lgamma.o
                                                  build/py/modmath.o
log10f                                            build/lib/libm/math.o
                                                  build/py/modcmath.o
                                                  build/py/modmath.o
log1pf                                            build/lib/libm/log1pf.o
                                                  build/lib/libm/atanhf.o
                                                  build/lib/libm/asinhf.o
                                                  build/lib/libm/acoshf.o
log2f                                             build/py/modmath.o
logf                                              build/lib/libm/math.o
                                                  build/lib/libm/erf_lgamma.o
                                                  build/lib/libm/asinhf.o
                                                  build/lib/libm/acoshf.o
                                                  build/py/modcmath.o
                                                  build/py/modmath.o
                                                  build/py/objcomplex.o
m_free                                            build/py/malloc.o
                                                  build/extmod/vfs_reader.o
                                                  build/extmod/moduzlib.o
                                                  build/extmod/modure.o
                                                  build/py/objtype.o
                                                  build/py/objtuple.o
                                                  build/py/objset.o
                                                  build/py/objmap.o
                                                  build/py/objint.o
                                                  build/py/objclosure.o
                                                  build/py/map.o
                                                  build/py/persistentcode.o
                                                  build/py/emitbc.o
                                                  build/py/scope.o
                                                  build/py/parse.o
                                                  build/py/lexer.o
                                                  build/py/reader.o
                                                  build/py/mpz.o
                                                  build/py/mpprint.o
                                                  build/py/vstr.o
m_get_current_bytes_allocated                     build/py/malloc.o
                                                  build/py/modmicropython.o
m_get_peak_bytes_allocated                        build/py/malloc.o
                                                  build/py/modmicropython.o
m_get_total_bytes_allocated                       build/py/malloc.o
                                                  build/py/modmicropython.o
m_malloc                                          build/py/malloc.o
                                                  build/openpython_vfs.o
                                                  build/moduvalue.o
                                                  build/extmod/vfs_reader.o
                                                  build/extmod/vfs.o
                                                  build/extmod/machine_signal.o
                                                  build/extmod/moduhashlib.o
                                                  build/extmod/modutimeq.o
                                                  build/extmod/moduzlib.o
                                                  build/extmod/modure.o
                                                  build/extmod/moductypes.o
                                                  build/py/modio.o
                                                  build/py/builtinevex.o
                                                  build/py/objzip.o
                                                  build/py/objtype.o
                                                  build/py/objtuple.o
                                                  build/py/objstringio.o
                                                  build/py/objstr.o
                                                  build/py/objslice.o
                                                  build/py/objset.o
                                                  build/py/objreversed.o
                                                  build/py/objrange.o
                                                  build/py/objnamedtuple.o
                                                  build/py/objproperty.o
                                                  build/py/objobject.o
                                                  build/py/objmodule.o
                                                  build/py/objmap.o
                                                  build/py/objlist.o
                                                  build/py/objint_mpz.o
                                                  build/py/objint.o
                                                  build/py/objgenerator.o
                                                  build/py/objfun.o
                                                  build/py/objfloat.o
                                                  build/py/objfilter.o
                                                  build/py/objenumerate.o
                                                  build/py/objdict.o
                                                  build/py/objdeque.o
                                                  build/py/objcomplex.o
                                                  build/py/objclosure.o
                                                  build/py/objcell.o
                                                  build/py/objboundmeth.o
                                                  build/py/objattrtuple.o
                                                  build/py/objarray.o
                                                  build/py/runtime.o
                                                  build/py/persistentcode.o
                                                  build/py/emitbc.o
                                                  build/py/scope.o
                                                  build/py/parse.o
                                                  build/py/lexer.o
                                                  build/py/reader.o
                                                  build/py/mpz.o
                                                  build/py/vstr.o
m_malloc0                                         build/py/malloc.o
                                                  build/py/objtype.o
                                                  build/py/objdeque.o
                                                  build/py/map.o
                                                  build/py/emitglue.o
                                                  build/py/emitbc.o
                                                  build/py/scope.o
m_malloc_fail                                     build/py/runtime.o
                                                  build/py/qstr.o
                                                  build/py/malloc.o
m_malloc_maybe                                    build/py/malloc.o
                                                  build/lib/mp-readline/readline.o
                                                  build/py/objexcept.o
                                                  build/py/qstr.o
m_malloc_with_finaliser                           build/py/malloc.o
m_realloc                                         build/py/malloc.o
                                                  build/extmod/moduzlib.o
                                                  build/py/objtuple.o
                                                  build/py/objstr.o
                                                  build/py/objlist.o
                                                  build/py/objarray.o
                                                  build/py/map.o
                                                  build/py/scope.o
                                                  build/py/parse.o
                                                  build/py/lexer.o
                                                  build/py/mpz.o
                                                  build/py/vstr.o
m_realloc_maybe                                   build/py/malloc.o
                                                  build/py/objexcept.o
                                                  build/py/parse.o
                                                  build/py/qstr.o
machine_debug                                     build/modmachine.o
machine_debug_obj                                 build/modmachine.o
machine_hook_signal_obj                           build/modmachine.o
machine_hook_stderr_obj                           build/modmachine.o
machine_hook_stdin_obj                            build/modmachine.o
machine_hook_stdout_obj                           build/modmachine.o
machine_mem16_obj                                 build/extmod/machine_mem.o
machine_mem32_obj                                 build/extmod/machine_mem.o
machine_mem8_obj                                  build/extmod/machine_mem.o
machine_mem_type                                  build/extmod/machine_mem.o
machine_pinbase_type                              build/extmod/machine_pinbase.o
machine_signal_type                               build/extmod/machine_signal.o
main                                              build/main.o
                                                  build/machine.o
match_end_obj                                     build/extmod/modure.o
match_group_obj                                   build/extmod/modure.o
match_groups_obj                                  build/extmod/modure.o
match_span_obj                                    build/extmod/modure.o
match_start_obj                                   build/extmod/modure.o
memchr                                            build/lib/libc/string0.o
memcmp                                            build/lib/libc/string0.o
                                                  build/lib/mpack/mpack-node.o
                                                  build/lib/mpack/mpack-expect.o
                                                  build/lib/mpack/mpack-common.o
                                                  build/extmod/vfs.o
                                                  build/py/frozenmod.o
                                                  build/py/repl.o
                                                  build/py/sequence.o
                                                  build/py/objstr.o
                                                  build/py/qstr.o
memcpy                                            build/lib/libc/string0.o
                                                  build/lib/mp-readline/readline.o
                                                  build/lib/mpack/mpack-writer.o
                                                  build/lib/mpack/mpack-reader.o
                                                  build/lib/mpack/mpack-platform.o
                                                  build/lib/mpack/mpack-node.o
                                                  build/lib/mpack/mpack-expect.o
                                                  build/lib/utils/printf.o
                                                  build/extmod/vfs.o
                                                  build/py/modstruct.o
                                                  build/py/builtinimport.o
                                                  build/py/binary.o
                                                  build/py/sequence.o
                                                  build/py/objtype.o
                                                  build/py/objtuple.o
                                                  build/py/objstringio.o
                                                  build/py/objstr.o
                                                  build/py/objset.o
                                                  build/py/objnamedtuple.o
                                                  build/py/objlist.o
                                                  build/py/objfun.o
                                                  build/py/objexcept.o
                                                  build/py/objdict.o
                                                  build/py/objclosure.o
                                                  build/py/objboundmeth.o
                                                  build/py/objarray.o
                                                  build/py/runtime.o
                                                  build/py/compile.o
                                                  build/py/mpz.o
                                                  build/py/qstr.o
                                                  build/py/gc.o
memmove                                           build/lib/libc/string0.o
                                                  build/extmod/modure.o
                                                  build/py/objstr.o
                                                  build/py/objlist.o
                                                  build/py/objarray.o
                                                  build/py/map.o
                                                  build/py/vstr.o
memset                                            build/lib/libc/string0.o
                                                  build/lib/mp-readline/readline.o
                                                  build/lib/mpack/mpack-reader.o
                                                  build/lib/mpack/mpack-node.o
                                                  build/extmod/moduhashlib.o
                                                  build/extmod/modutimeq.o
                                                  build/extmod/moduzlib.o
                                                  build/extmod/modure.o
                                                  build/py/bc.o
                                                  build/py/modstruct.o
                                                  build/py/binary.o
                                                  build/py/objtype.o
                                                  build/py/objstringio.o
                                                  build/py/objstr.o
                                                  build/py/objnamedtuple.o
                                                  build/py/objlist.o
                                                  build/py/objint_mpz.o
                                                  build/py/objint.o
                                                  build/py/objarray.o
                                                  build/py/map.o
                                                  build/py/compile.o
                                                  build/py/mpz.o
                                                  build/py/gc.o
mod_binascii_a2b_base64                           build/extmod/modubinascii.o
mod_binascii_a2b_base64_obj                       build/extmod/modubinascii.o
mod_binascii_b2a_base64                           build/extmod/modubinascii.o
mod_binascii_b2a_base64_obj                       build/extmod/modubinascii.o
mod_binascii_crc32                                build/extmod/modubinascii.o
mod_binascii_crc32_obj                            build/extmod/modubinascii.o
mod_binascii_hexlify                              build/extmod/modubinascii.o
mod_binascii_hexlify_obj                          build/extmod/modubinascii.o
mod_binascii_unhexlify                            build/extmod/modubinascii.o
mod_binascii_unhexlify_obj                        build/extmod/modubinascii.o
mod_re_compile_obj                                build/extmod/modure.o
mod_re_match_obj                                  build/extmod/modure.o
mod_re_search_obj                                 build/extmod/modure.o
mod_re_sub_obj                                    build/extmod/modure.o
modff                                             build/lib/libm/sf_modf.o
                                                  build/py/modmath.o
mp_arg_check_num_sig                              build/py/argcheck.o
                                                  build/extmod/machine_signal.o
                                                  build/extmod/moduhashlib.o
                                                  build/extmod/modutimeq.o
                                                  build/extmod/moduzlib.o
                                                  build/extmod/moductypes.o
                                                  build/py/objzip.o
                                                  build/py/objtype.o
                                                  build/py/objtuple.o
                                                  build/py/objstr.o
                                                  build/py/objset.o
                                                  build/py/objreversed.o
                                                  build/py/objrange.o
                                                  build/py/objobject.o
                                                  build/py/objmap.o
                                                  build/py/objlist.o
                                                  build/py/objint.o
                                                  build/py/objfun.o
                                                  build/py/objfloat.o
                                                  build/py/objfilter.o
                                                  build/py/objexcept.o
                                                  build/py/objdict.o
                                                  build/py/objdeque.o
                                                  build/py/objcomplex.o
                                                  build/py/objbool.o
                                                  build/py/objarray.o
mp_arg_error_terse_mismatch                       build/py/argcheck.o
mp_arg_error_unimpl_kw                            build/py/argcheck.o
                                                  build/py/objstr.o
mp_arg_parse_all                                  build/py/argcheck.o
                                                  build/extmod/vfs.o
                                                  build/py/modbuiltins.o
                                                  build/py/objstr.o
                                                  build/py/objlist.o
mp_arg_parse_all_kw_array                         build/py/argcheck.o
                                                  build/openpython_vfs.o
                                                  build/py/objproperty.o
                                                  build/py/objenumerate.o
mp_binary_get_int                                 build/py/binary.o
                                                  build/extmod/moductypes.o
mp_binary_get_size                                build/py/binary.o
                                                  build/py/modstruct.o
                                                  build/py/objarray.o
mp_binary_get_val                                 build/py/binary.o
                                                  build/extmod/moductypes.o
                                                  build/py/modstruct.o
mp_binary_get_val_array                           build/py/binary.o
                                                  build/py/objarray.o
mp_binary_op                                      build/py/runtime.o
                                                  build/extmod/moduheapq.o
                                                  build/py/vm.o
                                                  build/py/modbuiltins.o
                                                  build/py/sequence.o
                                                  build/py/objtype.o
                                                  build/py/objlist.o
                                                  build/py/objint.o
                                                  build/py/objbool.o
                                                  build/py/parse.o
mp_binary_op_method_name                          build/py/objtype.o
                                                  build/py/runtime.o
mp_binary_set_int                                 build/py/binary.o
                                                  build/extmod/moductypes.o
                                                  build/py/objint.o
mp_binary_set_val                                 build/py/binary.o
                                                  build/extmod/moductypes.o
                                                  build/py/modstruct.o
mp_binary_set_val_array                           build/py/binary.o
                                                  build/py/objarray.o
mp_binary_set_val_array_from_int                  build/py/binary.o
mp_builtin___build_class___obj                    build/py/modbuiltins.o
                                                  build/py/runtime.o
mp_builtin___import__                             build/py/builtinimport.o
                                                  build/py/modio.o
                                                  build/py/runtime.o
mp_builtin___import___obj                         build/py/builtinimport.o
                                                  build/py/modbuiltins.o
mp_builtin___repl_print___obj                     build/py/modbuiltins.o
mp_builtin_abs_obj                                build/py/modbuiltins.o
mp_builtin_all_obj                                build/py/modbuiltins.o
mp_builtin_any_obj                                build/py/modbuiltins.o
mp_builtin_bin_obj                                build/py/modbuiltins.o
mp_builtin_callable_obj                           build/py/modbuiltins.o
mp_builtin_chr_obj                                build/py/modbuiltins.o
mp_builtin_compile_obj                            build/py/builtinevex.o
                                                  build/py/modbuiltins.o
mp_builtin_delattr_obj                            build/py/modbuiltins.o
mp_builtin_dir_obj                                build/py/modbuiltins.o
mp_builtin_divmod_obj                             build/py/modbuiltins.o
mp_builtin_eval_obj                               build/py/builtinevex.o
                                                  build/py/modbuiltins.o
mp_builtin_exec_obj                               build/py/builtinevex.o
                                                  build/py/modbuiltins.o
mp_builtin_execfile_obj                           build/py/builtinevex.o
                                                  build/py/modbuiltins.o
mp_builtin_getattr_obj                            build/py/modbuiltins.o
mp_builtin_globals_obj                            build/py/modbuiltins.o
mp_builtin_hasattr_obj                            build/py/modbuiltins.o
mp_builtin_hash_obj                               build/py/modbuiltins.o
mp_builtin_help_obj                               build/py/builtinhelp.o
                                                  build/py/modbuiltins.o
mp_builtin_hex_obj                                build/py/modbuiltins.o
mp_builtin_id_obj                                 build/py/modbuiltins.o
mp_builtin_isinstance_obj                         build/py/objtype.o
                                                  build/py/modbuiltins.o
mp_builtin_issubclass_obj                         build/py/objtype.o
                                                  build/py/modbuiltins.o
mp_builtin_iter_obj                               build/py/modbuiltins.o
mp_builtin_len_obj                                build/py/modbuiltins.o
mp_builtin_locals_obj                             build/py/modbuiltins.o
mp_builtin_max_obj                                build/py/modbuiltins.o
mp_builtin_min_obj                                build/py/modbuiltins.o
mp_builtin_module_map                             build/py/objmodule.o
                                                  build/py/builtinhelp.o
mp_builtin_module_weak_links_map                  build/py/objmodule.o
                                                  build/py/builtinhelp.o
                                                  build/py/builtinimport.o
mp_builtin_next_obj                               build/py/modbuiltins.o
                                                  build/py/runtime.o
mp_builtin_oct_obj                                build/py/modbuiltins.o
mp_builtin_ord_obj                                build/py/modbuiltins.o
mp_builtin_pow_obj                                build/py/modbuiltins.o
mp_builtin_print_obj                              build/py/modbuiltins.o
mp_builtin_repr_obj                               build/py/modbuiltins.o
mp_builtin_round_obj                              build/py/modbuiltins.o
mp_builtin_setattr_obj                            build/py/modbuiltins.o
mp_builtin_sorted_obj                             build/py/modbuiltins.o
mp_builtin_sum_obj                                build/py/modbuiltins.o
mp_call_function_0                                build/py/runtime.o
                                                  build/lib/utils/pyexec.o
                                                  build/moducode.o
                                                  build/mphalport.o
                                                  build/main.o
                                                  build/py/modbuiltins.o
                                                  build/py/builtinevex.o
                                                  build/py/builtinimport.o
mp_call_function_1                                build/py/runtime.o
                                                  build/moduvalue.o
                                                  build/mphalport.o
                                                  build/extmod/modure.o
                                                  build/py/modbuiltins.o
                                                  build/py/objtype.o
                                                  build/py/objlist.o
                                                  build/py/runtime_utils.o
mp_call_function_1_protected                      build/py/runtime_utils.o
                                                  build/py/scheduler.o
                                                  build/py/gc.o
mp_call_function_2                                build/py/runtime.o
                                                  build/py/runtime_utils.o
mp_call_function_2_protected                      build/py/runtime_utils.o
mp_call_function_n_kw                             build/py/runtime.o
                                                  build/py/vm.o
                                                  build/py/modbuiltins.o
                                                  build/py/objtype.o
                                                  build/py/objmap.o
                                                  build/py/objfilter.o
                                                  build/py/objclosure.o
                                                  build/py/objboundmeth.o
mp_call_method_n_kw                               build/py/runtime.o
                                                  build/extmod/vfs.o
                                                  build/extmod/machine_pinbase.o
                                                  build/py/vm.o
                                                  build/py/modbuiltins.o
                                                  build/py/objtype.o
                                                  build/py/objreversed.o
                                                  build/py/objmodule.o
                                                  build/py/objgetitemiter.o
mp_call_method_n_kw_var                           build/py/runtime.o
                                                  build/py/vm.o
mp_call_method_self_n_kw                          build/py/objboundmeth.o
                                                  build/py/objtype.o
mp_call_prepare_args_n_kw_var                     build/py/runtime.o
                                                  build/py/vm.o
mp_compile                                        build/py/compile.o
                                                  build/lib/utils/pyexec.o
                                                  build/moducode.o
                                                  build/main.o
                                                  build/py/runtime.o
mp_const_GeneratorExit_obj                        build/py/objexcept.o
                                                  build/py/vm.o
                                                  build/py/objgenerator.o
mp_const_ellipsis_obj                             build/py/objsingleton.o
                                                  build/py/modbuiltins.o
                                                  build/py/persistentcode.o
                                                  build/py/emitbc.o
mp_const_empty_bytes_obj                          build/py/objstr.o
                                                  build/extmod/modubinascii.o
mp_const_empty_map                                build/py/map.o
                                                  build/extmod/vfs_reader.o
                                                  build/py/modio.o
                                                  build/py/builtinhelp.o
mp_const_empty_tuple_obj                          build/py/objtuple.o
                                                  build/extmod/modure.o
                                                  build/py/bc.o
                                                  build/py/objexcept.o
                                                  build/py/objdeque.o
                                                  build/py/runtime.o
mp_const_false_obj                                build/py/objbool.o
                                                  build/msgpack.o
                                                  build/extmod/vfs.o
                                                  build/extmod/machine_pinbase.o
                                                  build/extmod/modutimeq.o
                                                  build/extmod/moduheapq.o
                                                  build/extmod/modujson.o
                                                  build/py/vm.o
                                                  build/py/modmath.o
                                                  build/py/modgc.o
                                                  build/py/modbuiltins.o
                                                  build/py/builtinimport.o
                                                  build/py/objtype.o
                                                  build/py/objtuple.o
                                                  build/py/objstrunicode.o
                                                  build/py/objstr.o
                                                  build/py/objset.o
                                                  build/py/objrange.o
                                                  build/py/objlist.o
                                                  build/py/objint_mpz.o
                                                  build/py/objint.o
                                                  build/py/objfloat.o
                                                  build/py/objdict.o
                                                  build/py/objdeque.o
                                                  build/py/objcomplex.o
                                                  build/py/objarray.o
                                                  build/py/obj.o
                                                  build/py/runtime.o
mp_const_float_e_obj                              build/py/objfloat.o
                                                  build/py/modcmath.o
                                                  build/py/modmath.o
mp_const_float_pi_obj                             build/py/objfloat.o
                                                  build/py/modcmath.o
                                                  build/py/modmath.o
mp_const_none_obj                                 build/py/objnone.o
                                                  build/lib/utils/pyexec.o
                                                  build/lib/utils/sys_stdio_mphal.o
                                                  build/syscall.o
                                                  build/msgpack.o
                                                  build/openpython_vfs.o
                                                  build/moduvalue.o
                                                  build/moducomputer.o
                                                  build/moducomponent.o
                                                  build/moducode.o
                                                  build/modmachine.o
                                                  build/mphalport.o
                                                  build/main.o
                                                  build/extmod/utime_mphal.o
                                                  build/extmod/vfs.o
                                                  build/extmod/modurandom.o
                                                  build/extmod/machine_signal.o
                                                  build/extmod/machine_mem.o
                                                  build/extmod/moduhashlib.o
                                                  build/extmod/modutimeq.o
                                                  build/extmod/moduheapq.o
                                                  build/extmod/modure.o
                                                  build/extmod/modujson.o
                                                  build/py/vm.o
                                                  build/py/modsys.o
                                                  build/py/modstruct.o
                                                  build/py/modmicropython.o
                                                  build/py/modio.o
                                                  build/py/modgc.o
                                                  build/py/modbuiltins.o
                                                  build/py/builtinhelp.o
                                                  build/py/builtinevex.o
                                                  build/py/builtinimport.o
                                                  build/py/stream.o
                                                  build/py/sequence.o
                                                  build/py/objtype.o
                                                  build/py/objstrunicode.o
                                                  build/py/objstr.o
                                                  build/py/objset.o
                                                  build/py/objproperty.o
                                                  build/py/objobject.o
                                                  build/py/objlist.o
                                                  build/py/objgenerator.o
                                                  build/py/objfilter.o
                                                  build/py/objexcept.o
                                                  build/py/objdict.o
                                                  build/py/objdeque.o
                                                  build/py/objarray.o
                                                  build/py/obj.o
                                                  build/py/runtime.o
                                                  build/py/compile.o
mp_const_notimplemented_obj                       build/py/objsingleton.o
                                                  build/py/modbuiltins.o
                                                  build/py/objtype.o
mp_const_true_obj                                 build/py/objbool.o
                                                  build/msgpack.o
                                                  build/extmod/machine_pinbase.o
                                                  build/extmod/modutimeq.o
                                                  build/extmod/moduheapq.o
                                                  build/extmod/modujson.o
                                                  build/py/vm.o
                                                  build/py/modmath.o
                                                  build/py/modio.o
                                                  build/py/modgc.o
                                                  build/py/modbuiltins.o
                                                  build/py/sequence.o
                                                  build/py/objtype.o
                                                  build/py/objtuple.o
                                                  build/py/objstrunicode.o
                                                  build/py/objstr.o
                                                  build/py/objset.o
                                                  build/py/objrange.o
                                                  build/py/objlist.o
                                                  build/py/objint_mpz.o
                                                  build/py/objint.o
                                                  build/py/objfloat.o
                                                  build/py/objdict.o
                                                  build/py/objdeque.o
                                                  build/py/objcomplex.o
                                                  build/py/objarray.o
                                                  build/py/obj.o
                                                  build/py/runtime.o
mp_convert_member_lookup                          build/py/runtime.o
                                                  build/moduvalue.o
                                                  build/py/objtype.o
mp_decode_uint                                    build/py/bc.o
                                                  build/py/persistentcode.o
mp_decode_uint_skip                               build/py/bc.o
                                                  build/py/vm.o
                                                  build/py/objgenerator.o
                                                  build/py/objfun.o
mp_decode_uint_value                              build/py/bc.o
                                                  build/py/vm.o
                                                  build/py/objgenerator.o
                                                  build/py/objfun.o
mp_deinit                                         build/py/runtime.o
mp_delete_global                                  build/py/runtime.o
                                                  build/py/vm.o
mp_delete_name                                    build/py/runtime.o
                                                  build/py/vm.o
mp_emit_bc_adjust_stack_size                      build/py/emitbc.o
                                                  build/py/compile.o
mp_emit_bc_attr                                   build/py/emitbc.o
                                                  build/py/compile.o
mp_emit_bc_binary_op                              build/py/emitbc.o
                                                  build/py/compile.o
mp_emit_bc_build                                  build/py/emitbc.o
                                                  build/py/compile.o
mp_emit_bc_call_function                          build/py/emitbc.o
                                                  build/py/compile.o
mp_emit_bc_call_method                            build/py/emitbc.o
                                                  build/py/compile.o
mp_emit_bc_delete_global                          build/py/emitbc.o
mp_emit_bc_delete_local                           build/py/emitbc.o
mp_emit_bc_dup_top                                build/py/emitbc.o
                                                  build/py/compile.o
mp_emit_bc_dup_top_two                            build/py/emitbc.o
                                                  build/py/compile.o
mp_emit_bc_end_except_handler                     build/py/emitbc.o
                                                  build/py/compile.o
mp_emit_bc_end_finally                            build/py/emitbc.o
                                                  build/py/compile.o
mp_emit_bc_end_pass                               build/py/emitbc.o
                                                  build/py/compile.o
mp_emit_bc_for_iter                               build/py/emitbc.o
                                                  build/py/compile.o
mp_emit_bc_for_iter_end                           build/py/emitbc.o
                                                  build/py/compile.o
mp_emit_bc_get_iter                               build/py/emitbc.o
                                                  build/py/compile.o
mp_emit_bc_import                                 build/py/emitbc.o
                                                  build/py/compile.o
mp_emit_bc_jump                                   build/py/emitbc.o
                                                  build/py/compile.o
mp_emit_bc_jump_if_or_pop                         build/py/emitbc.o
                                                  build/py/compile.o
mp_emit_bc_label_assign                           build/py/emitbc.o
                                                  build/py/compile.o
mp_emit_bc_last_emit_was_return_value             build/py/emitbc.o
                                                  build/py/compile.o
mp_emit_bc_load_build_class                       build/py/emitbc.o
                                                  build/py/compile.o
mp_emit_bc_load_const_obj                         build/py/emitbc.o
                                                  build/py/compile.o
mp_emit_bc_load_const_small_int                   build/py/emitbc.o
                                                  build/py/compile.o
mp_emit_bc_load_const_str                         build/py/emitbc.o
                                                  build/py/compile.o
mp_emit_bc_load_const_tok                         build/py/emitbc.o
                                                  build/py/compile.o
mp_emit_bc_load_global                            build/py/emitbc.o
                                                  build/py/compile.o
mp_emit_bc_load_local                             build/py/emitbc.o
                                                  build/py/compile.o
mp_emit_bc_load_method                            build/py/emitbc.o
                                                  build/py/compile.o
mp_emit_bc_load_null                              build/py/emitbc.o
                                                  build/py/compile.o
mp_emit_bc_make_closure                           build/py/emitbc.o
                                                  build/py/compile.o
mp_emit_bc_make_function                          build/py/emitbc.o
                                                  build/py/compile.o
mp_emit_bc_method_table_delete_id_ops             build/py/emitbc.o
                                                  build/py/compile.o
mp_emit_bc_method_table_load_id_ops               build/py/emitbc.o
                                                  build/py/compile.o
mp_emit_bc_method_table_store_id_ops              build/py/emitbc.o
                                                  build/py/compile.o
mp_emit_bc_pop_block                              build/py/emitbc.o
                                                  build/py/compile.o
mp_emit_bc_pop_except                             build/py/emitbc.o
                                                  build/py/compile.o
mp_emit_bc_pop_jump_if                            build/py/emitbc.o
                                                  build/py/compile.o
mp_emit_bc_pop_top                                build/py/emitbc.o
                                                  build/py/compile.o
mp_emit_bc_raise_varargs                          build/py/emitbc.o
                                                  build/py/compile.o
mp_emit_bc_return_value                           build/py/emitbc.o
                                                  build/py/compile.o
mp_emit_bc_rot_three                              build/py/emitbc.o
                                                  build/py/compile.o
mp_emit_bc_rot_two                                build/py/emitbc.o
                                                  build/py/compile.o
mp_emit_bc_set_source_line                        build/py/emitbc.o
                                                  build/py/compile.o
mp_emit_bc_setup_block                            build/py/emitbc.o
                                                  build/py/compile.o
mp_emit_bc_start_except_handler                   build/py/emitbc.o
                                                  build/py/compile.o
mp_emit_bc_start_pass                             build/py/emitbc.o
                                                  build/py/compile.o
mp_emit_bc_store_comp                             build/py/emitbc.o
                                                  build/py/compile.o
mp_emit_bc_store_global                           build/py/emitbc.o
mp_emit_bc_store_local                            build/py/emitbc.o
mp_emit_bc_store_map                              build/py/emitbc.o
                                                  build/py/compile.o
mp_emit_bc_subscr                                 build/py/emitbc.o
                                                  build/py/compile.o
mp_emit_bc_unary_op                               build/py/emitbc.o
                                                  build/py/compile.o
mp_emit_bc_unpack_ex                              build/py/emitbc.o
                                                  build/py/compile.o
mp_emit_bc_unpack_sequence                        build/py/emitbc.o
                                                  build/py/compile.o
mp_emit_bc_unwind_jump                            build/py/emitbc.o
                                                  build/py/compile.o
mp_emit_bc_with_cleanup                           build/py/emitbc.o
                                                  build/py/compile.o
mp_emit_bc_yield                                  build/py/emitbc.o
                                                  build/py/compile.o
mp_emit_common_get_id_for_load                    build/py/emitcommon.o
                                                  build/py/compile.o
mp_emit_common_get_id_for_modification            build/py/emitcommon.o
                                                  build/py/compile.o
mp_emit_common_id_op                              build/py/emitcommon.o
                                                  build/py/compile.o
mp_emit_glue_assign_bytecode                      build/py/emitglue.o
                                                  build/py/persistentcode.o
                                                  build/py/emitbc.o
mp_emit_glue_new_raw_code                         build/py/emitglue.o
                                                  build/py/persistentcode.o
                                                  build/py/scope.o
mp_emitter_warning                                build/py/warning.o
mp_errno_to_str                                   build/py/moduerrno.o
                                                  build/py/objexcept.o
mp_execute_bytecode                               build/py/vm.o
                                                  build/py/objgenerator.o
                                                  build/py/objfun.o
mp_find_frozen_module                             build/py/frozenmod.o
                                                  build/lib/utils/pyexec.o
                                                  build/main.o
                                                  build/py/builtinimport.o
mp_find_frozen_str                                build/py/frozenmod.o
                                                  build/py/modio.o
mp_float_hash                                     build/py/objfloat.o
                                                  build/py/objcomplex.o
mp_format_float                                   build/py/formatfloat.o
                                                  build/py/objfloat.o
                                                  build/py/objcomplex.o
                                                  build/py/mpprint.o
mp_frozen_mpy_content                             build/build/frozen_mpy.o
                                                  build/py/frozenmod.o
mp_frozen_mpy_names                               build/build/frozen_mpy.o
                                                  build/py/frozenmod.o
                                                  build/py/builtinhelp.o
mp_frozen_stat                                    build/py/frozenmod.o
                                                  build/py/builtinimport.o
mp_frozen_str_content                             build/build/frozen.o
                                                  build/py/frozenmod.o
mp_frozen_str_names                               build/build/frozen.o
                                                  build/py/frozenmod.o
                                                  build/py/builtinhelp.o
mp_frozen_str_sizes                               build/build/frozen.o
                                                  build/py/frozenmod.o
mp_generic_unary_op                               build/py/obj.o
                                                  build/py/objtype.o
                                                  build/py/objnone.o
                                                  build/py/objgenerator.o
                                                  build/py/objfun.o
mp_get_buffer                                     build/py/obj.o
                                                  build/py/stream.o
                                                  build/py/objstr.o
                                                  build/py/objfloat.o
                                                  build/py/objarray.o
mp_get_buffer_raise                               build/py/obj.o
                                                  build/extmod/modubinascii.o
                                                  build/extmod/moduhashlib.o
                                                  build/extmod/moduzlib.o
                                                  build/extmod/moductypes.o
                                                  build/py/modstruct.o
                                                  build/py/stream.o
                                                  build/py/objstringio.o
                                                  build/py/objstr.o
                                                  build/py/objint.o
                                                  build/py/objarray.o
mp_get_index                                      build/py/obj.o
                                                  build/py/sequence.o
                                                  build/py/objtuple.o
                                                  build/py/objstrunicode.o
                                                  build/py/objstr.o
                                                  build/py/objrange.o
                                                  build/py/objlist.o
                                                  build/py/objarray.o
mp_get_stream_raise                               build/py/stream.o
                                                  build/extmod/moduzlib.o
                                                  build/extmod/modujson.o
                                                  build/py/modsys.o
                                                  build/py/modbuiltins.o
mp_getiter                                        build/py/runtime.o
                                                  build/py/vm.o
                                                  build/py/modbuiltins.o
                                                  build/py/objzip.o
                                                  build/py/objtuple.o
                                                  build/py/objstr.o
                                                  build/py/objset.o
                                                  build/py/objmap.o
                                                  build/py/objlist.o
                                                  build/py/objfilter.o
                                                  build/py/objenumerate.o
                                                  build/py/objdict.o
                                                  build/py/objarray.o
mp_hal_delay_ms                                   build/mphalport.o
                                                  build/extmod/utime_mphal.o
mp_hal_delay_us                                   build/mphalport.o
                                                  build/extmod/utime_mphal.o
mp_hal_set_interrupt_char                         build/lib/utils/interrupt_char.o
                                                  build/lib/utils/pyexec.o
                                                  build/py/modmicropython.o
mp_hal_stdin_rx_chr                               build/mphalport.o
                                                  build/lib/mp-readline/readline.o
                                                  build/lib/utils/pyexec.o
                                                  build/lib/utils/sys_stdio_mphal.o
mp_hal_stdio_tx_strn                              build/mphalport.o
mp_hal_stdout_tx_str                              build/mphalport.o
                                                  build/lib/mp-readline/readline.o
                                                  build/lib/utils/pyexec.o
                                                  build/moducode.o
mp_hal_stdout_tx_strn                             build/mphalport.o
                                                  build/lib/mp-readline/readline.o
                                                  build/lib/utils/pyexec.o
                                                  build/lib/utils/sys_stdio_mphal.o
mp_hal_stdout_tx_strn_cooked                      build/mphalport.o
                                                  build/lib/utils/sys_stdio_mphal.o
                                                  build/lib/utils/printf.o
                                                  build/py/mpprint.o
mp_hal_ticks_cpu                                  build/mphalport.o
                                                  build/extmod/utime_mphal.o
mp_hal_ticks_ms                                   build/mphalport.o
                                                  build/lib/utils/pyexec.o
                                                  build/extmod/utime_mphal.o
mp_hal_ticks_us                                   build/mphalport.o
                                                  build/extmod/utime_mphal.o
mp_handle_pending                                 build/py/scheduler.o
                                                  build/mphalport.o
mp_handle_pending_tail                            build/py/scheduler.o
                                                  build/py/vm.o
mp_help_default_text                              build/py/builtinhelp.o
mp_identity                                       build/py/obj.o
mp_identity_getiter                               build/py/obj.o
                                                  build/lib/utils/sys_stdio_mphal.o
                                                  build/openpython_vfs.o
                                                  build/py/objzip.o
                                                  build/py/objstringio.o
                                                  build/py/objreversed.o
                                                  build/py/objrange.o
                                                  build/py/objpolyiter.o
                                                  build/py/objmap.o
                                                  build/py/objgetitemiter.o
                                                  build/py/objgenerator.o
                                                  build/py/objfilter.o
                                                  build/py/objenumerate.o
                                                  build/py/objdict.o
                                                  build/py/objarray.o
                                                  build/py/runtime.o
mp_identity_obj                                   build/py/obj.o
                                                  build/lib/utils/sys_stdio_mphal.o
                                                  build/openpython_vfs.o
                                                  build/py/modmicropython.o
                                                  build/py/objstringio.o
mp_import_all                                     build/py/runtime.o
                                                  build/py/vm.o
mp_import_from                                    build/py/runtime.o
                                                  build/py/vm.o
mp_import_name                                    build/py/runtime.o
                                                  build/py/vm.o
mp_init                                           build/py/runtime.o
                                                  build/main.o
mp_init_emergency_exception_buf                   build/py/objexcept.o
                                                  build/py/runtime.o
mp_init_port                                      build/main.o
mp_instance_cast_to_native_base                   build/py/objtype.o
                                                  build/py/objtuple.o
mp_int_format_size                                build/py/objint.o
                                                  build/py/objint_mpz.o
mp_interrupt_char                                 build/lib/utils/interrupt_char.o
mp_iternext                                       build/py/runtime.o
                                                  build/extmod/vfs.o
                                                  build/py/modbuiltins.o
                                                  build/py/objzip.o
                                                  build/py/objtuple.o
                                                  build/py/objstr.o
                                                  build/py/objset.o
                                                  build/py/objmap.o
                                                  build/py/objlist.o
                                                  build/py/objfilter.o
                                                  build/py/objenumerate.o
                                                  build/py/objdict.o
                                                  build/py/objarray.o
mp_iternext_allow_raise                           build/py/runtime.o
                                                  build/py/vm.o
                                                  build/py/modbuiltins.o
mp_keyboard_interrupt                             build/lib/utils/interrupt_char.o
mp_lexer_free                                     build/py/lexer.o
                                                  build/py/parse.o
mp_lexer_new                                      build/py/lexer.o
mp_lexer_new_from_fd                              build/py/lexer.o
mp_lexer_new_from_file                            build/py/lexer.o
                                                  build/lib/utils/pyexec.o
                                                  build/py/builtinevex.o
                                                  build/py/builtinimport.o
mp_lexer_new_from_str_len                         build/py/lexer.o
                                                  build/lib/utils/pyexec.o
                                                  build/moducode.o
                                                  build/main.o
                                                  build/py/frozenmod.o
                                                  build/py/builtinevex.o
mp_lexer_to_next                                  build/py/lexer.o
                                                  build/py/parse.o
mp_load_attr                                      build/py/runtime.o
                                                  build/py/vm.o
mp_load_build_class                               build/py/runtime.o
                                                  build/py/vm.o
mp_load_global                                    build/py/runtime.o
                                                  build/py/vm.o
mp_load_method                                    build/py/runtime.o
                                                  build/extmod/vfs.o
                                                  build/extmod/machine_pinbase.o
                                                  build/py/vm.o
                                                  build/py/modbuiltins.o
                                                  build/py/objtype.o
mp_load_method_maybe                              build/py/runtime.o
                                                  build/extmod/vfs.o
                                                  build/py/modio.o
                                                  build/py/modbuiltins.o
                                                  build/py/builtinimport.o
                                                  build/py/objtype.o
                                                  build/py/objreversed.o
                                                  build/py/objmodule.o
                                                  build/py/parse.o
                                                  build/py/gc.o
mp_load_method_protected                          build/py/runtime.o
                                                  build/py/repl.o
                                                  build/py/modbuiltins.o
                                                  build/py/objtype.o
mp_load_name                                      build/py/runtime.o
                                                  build/py/vm.o
mp_load_super_method                              build/py/objtype.o
                                                  build/py/vm.o
mp_make_closure_from_raw_code                     build/py/emitglue.o
                                                  build/py/vm.o
mp_make_function_from_raw_code                    build/py/emitglue.o
                                                  build/lib/utils/pyexec.o
                                                  build/main.o
                                                  build/py/vm.o
                                                  build/py/builtinimport.o
                                                  build/py/compile.o
mp_make_raise_obj                                 build/py/runtime.o
                                                  build/py/vm.o
mp_map_clear                                      build/py/map.o
                                                  build/py/objdict.o
mp_map_deinit                                     build/py/map.o
                                                  build/py/parse.o
mp_map_init                                       build/py/map.o
                                                  build/py/objtype.o
                                                  build/py/objdict.o
                                                  build/py/parse.o
mp_map_init_fixed_table                           build/py/map.o
                                                  build/py/objfun.o
                                                  build/py/objdict.o
                                                  build/py/argcheck.o
mp_map_lookup                                     build/py/map.o
                                                  build/py/bc.o
                                                  build/py/vm.o
                                                  build/py/moduerrno.o
                                                  build/py/modbuiltins.o
                                                  build/py/builtinimport.o
                                                  build/py/objtype.o
                                                  build/py/objstr.o
                                                  build/py/objmodule.o
                                                  build/py/objdict.o
                                                  build/py/argcheck.o
                                                  build/py/runtime.o
                                                  build/py/parse.o
mp_maxsize_obj                                    build/py/objint_mpz.o
                                                  build/py/modsys.o
mp_micropython_mem_info                           build/py/modmicropython.o
mp_module___main__                                build/py/runtime.o
                                                  build/py/repl.o
                                                  build/py/objmodule.o
mp_module_array                                   build/py/modarray.o
                                                  build/py/objmodule.o
mp_module_builtins                                build/py/modbuiltins.o
                                                  build/py/objmodule.o
mp_module_builtins_globals                        build/py/modbuiltins.o
                                                  build/py/objmodule.o
                                                  build/py/runtime.o
mp_module_call_init                               build/py/objmodule.o
                                                  build/py/builtinimport.o
mp_module_cmath                                   build/py/modcmath.o
                                                  build/py/objmodule.o
mp_module_collections                             build/py/modcollections.o
                                                  build/py/objmodule.o
mp_module_gc                                      build/py/modgc.o
                                                  build/py/objmodule.o
mp_module_get                                     build/py/objmodule.o
                                                  build/py/builtinimport.o
mp_module_io                                      build/py/modio.o
                                                  build/py/objmodule.o
mp_module_machine                                 build/modmachine.o
                                                  build/py/objmodule.o
mp_module_math                                    build/py/modmath.o
                                                  build/py/objmodule.o
mp_module_micropython                             build/py/modmicropython.o
                                                  build/py/objmodule.o
mp_module_register                                build/py/objmodule.o
mp_module_sys                                     build/py/modsys.o
                                                  build/py/objmodule.o
mp_module_ubinascii                               build/extmod/modubinascii.o
                                                  build/py/objmodule.o
mp_module_ucode                                   build/moducode.o
                                                  build/py/objmodule.o
mp_module_ucomponent                              build/moducomponent.o
                                                  build/py/objmodule.o
mp_module_ucomputer                               build/moducomputer.o
                                                  build/py/objmodule.o
mp_module_uctypes                                 build/extmod/moductypes.o
                                                  build/py/objmodule.o
                                                  build/py/parse.o
mp_module_uerrno                                  build/py/moduerrno.o
                                                  build/py/objmodule.o
                                                  build/py/parse.o
mp_module_uhashlib                                build/extmod/moduhashlib.o
                                                  build/py/objmodule.o
mp_module_uheapq                                  build/extmod/moduheapq.o
                                                  build/py/objmodule.o
mp_module_uimp                                    build/moduimp.o
                                                  build/py/objmodule.o
mp_module_ujson                                   build/extmod/modujson.o
                                                  build/py/objmodule.o
mp_module_umsgpack                                build/modumsgpack.o
                                                  build/py/objmodule.o
mp_module_uos                                     build/moduos.o
                                                  build/py/objmodule.o
mp_module_urandom                                 build/extmod/modurandom.o
                                                  build/py/objmodule.o
mp_module_ure                                     build/extmod/modure.o
                                                  build/py/objmodule.o
mp_module_ustruct                                 build/py/modstruct.o
                                                  build/py/objmodule.o
mp_module_utime                                   build/modutime.o
                                                  build/py/objmodule.o
mp_module_utimeq                                  build/extmod/modutimeq.o
                                                  build/py/objmodule.o
mp_module_uvalue                                  build/moduvalue.o
                                                  build/py/objmodule.o
mp_module_uzlib                                   build/extmod/moduzlib.o
                                                  build/py/objmodule.o
mp_namedtuple_obj                                 build/py/objnamedtuple.o
                                                  build/py/modcollections.o
mp_obj_attrtuple_print_helper                     build/py/objattrtuple.o
                                                  build/py/objnamedtuple.o
mp_obj_cell_get                                   build/py/objcell.o
                                                  build/py/vm.o
mp_obj_cell_set                                   build/py/objcell.o
                                                  build/py/vm.o
                                                  build/py/modbuiltins.o
mp_obj_code_get_name                              build/py/objfun.o
mp_obj_complex_binary_op                          build/py/objcomplex.o
                                                  build/py/objint_mpz.o
                                                  build/py/objfloat.o
                                                  build/py/runtime.o
mp_obj_complex_get                                build/py/objcomplex.o
                                                  build/py/obj.o
mp_obj_dict_delete                                build/py/objdict.o
                                                  build/py/objmodule.o
                                                  build/py/runtime.o
mp_obj_dict_get                                   build/py/objdict.o
                                                  build/extmod/moductypes.o
                                                  build/py/builtinimport.o
                                                  build/py/objstr.o
mp_obj_dict_init                                  build/py/objdict.o
                                                  build/py/runtime.o
mp_obj_dict_len                                   build/py/objdict.o
                                                  build/py/runtime.o
mp_obj_dict_store                                 build/py/objdict.o
                                                  build/msgpack.o
                                                  build/extmod/modujson.o
                                                  build/py/bc.o
                                                  build/py/vm.o
                                                  build/py/builtinimport.o
                                                  build/py/objtype.o
                                                  build/py/objnamedtuple.o
                                                  build/py/objmodule.o
                                                  build/py/runtime.o
mp_obj_equal                                      build/py/obj.o
                                                  build/py/sequence.o
                                                  build/py/objdict.o
                                                  build/py/map.o
                                                  build/py/runtime.o
mp_obj_exception_add_traceback                    build/py/objexcept.o
                                                  build/syscall.o
                                                  build/py/vm.o
                                                  build/py/parsenum.o
                                                  build/py/compile.o
                                                  build/py/parse.o
mp_obj_exception_attr                             build/py/objexcept.o
                                                  build/machine.o
mp_obj_exception_clear_traceback                  build/py/objexcept.o
                                                  build/lib/utils/interrupt_char.o
mp_obj_exception_get_traceback                    build/py/objexcept.o
                                                  build/py/obj.o
mp_obj_exception_get_value                        build/py/objexcept.o
                                                  build/py/vm.o
mp_obj_exception_make_new                         build/py/objexcept.o
                                                  build/machine.o
                                                  build/py/objtype.o
mp_obj_exception_match                            build/py/objexcept.o
                                                  build/py/vm.o
                                                  build/py/runtime.o
mp_obj_exception_print                            build/py/objexcept.o
                                                  build/machine.o
mp_obj_float_binary_op                            build/py/objfloat.o
                                                  build/py/objint_mpz.o
                                                  build/py/runtime.o
mp_obj_float_get                                  build/py/objfloat.o
                                                  build/msgpack.o
                                                  build/py/objstr.o
                                                  build/py/objint.o
                                                  build/py/obj.o
mp_obj_fun_bc_attr                                build/py/objfun.o
                                                  build/py/objgenerator.o
mp_obj_fun_bc_prepare_codestate                   build/py/objfun.o
                                                  build/py/vm.o
mp_obj_fun_get_name                               build/py/objfun.o
                                                  build/py/bc.o
                                                  build/py/objgenerator.o
                                                  build/py/objboundmeth.o
mp_obj_gen_resume                                 build/py/objgenerator.o
                                                  build/py/runtime.o
mp_obj_get_array                                  build/py/obj.o
                                                  build/syscall.o
                                                  build/msgpack.o
                                                  build/moduvalue.o
                                                  build/moducomponent.o
                                                  build/py/objstr.o
                                                  build/py/objnamedtuple.o
                                                  build/py/objlist.o
                                                  build/py/runtime.o
mp_obj_get_array_fixed_n                          build/py/obj.o
                                                  build/extmod/vfs.o
mp_obj_get_complex                                build/py/obj.o
                                                  build/py/modcmath.o
                                                  build/py/objcomplex.o
mp_obj_get_float                                  build/py/obj.o
                                                  build/extmod/utime_mphal.o
                                                  build/extmod/modurandom.o
                                                  build/extmod/moductypes.o
                                                  build/py/modcmath.o
                                                  build/py/modmath.o
                                                  build/py/modbuiltins.o
                                                  build/py/binary.o
                                                  build/py/objstr.o
                                                  build/py/objfloat.o
                                                  build/py/objcomplex.o
mp_obj_get_float_maybe                            build/py/obj.o
                                                  build/py/objfloat.o
mp_obj_get_int                                    build/py/obj.o
                                                  build/lib/utils/pyexec.o
                                                  build/moducomputer.o
                                                  build/mphalport.o
                                                  build/extmod/utime_mphal.o
                                                  build/extmod/vfs.o
                                                  build/extmod/modurandom.o
                                                  build/extmod/machine_pinbase.o
                                                  build/extmod/modutimeq.o
                                                  build/extmod/moduzlib.o
                                                  build/extmod/modure.o
                                                  build/extmod/moductypes.o
                                                  build/py/modstruct.o
                                                  build/py/modmicropython.o
                                                  build/py/modmath.o
                                                  build/py/modgc.o
                                                  build/py/modbuiltins.o
                                                  build/py/binary.o
                                                  build/py/stream.o
                                                  build/py/sequence.o
                                                  build/py/objstringio.o
                                                  build/py/objstr.o
                                                  build/py/objreversed.o
                                                  build/py/objrange.o
                                                  build/py/objint.o
                                                  build/py/objdeque.o
                                                  build/py/objarray.o
                                                  build/py/argcheck.o
                                                  build/py/mpprint.o
mp_obj_get_int_maybe                              build/py/obj.o
                                                  build/py/objtuple.o
                                                  build/py/objstrunicode.o
                                                  build/py/objstr.o
                                                  build/py/objlist.o
mp_obj_get_int_truncated                          build/py/obj.o
                                                  build/msgpack.o
                                                  build/extmod/modurandom.o
                                                  build/extmod/machine_mem.o
                                                  build/extmod/modubinascii.o
                                                  build/extmod/moductypes.o
                                                  build/py/stream.o
                                                  build/py/objtype.o
mp_obj_get_type                                   build/py/obj.o
                                                  build/extmod/vfs.o
                                                  build/extmod/modure.o
                                                  build/extmod/modujson.o
                                                  build/py/vm.o
                                                  build/py/modsys.o
                                                  build/py/modbuiltins.o
                                                  build/py/builtinhelp.o
                                                  build/py/stream.o
                                                  build/py/sequence.o
                                                  build/py/opmethods.o
                                                  build/py/objtype.o
                                                  build/py/objtuple.o
                                                  build/py/objstrunicode.o
                                                  build/py/objstr.o
                                                  build/py/objgenerator.o
                                                  build/py/objexcept.o
                                                  build/py/runtime.o
mp_obj_get_type_str                               build/py/obj.o
                                                  build/openpython_vfs.o
                                                  build/py/objtype.o
                                                  build/py/objstrunicode.o
                                                  build/py/objstr.o
                                                  build/py/runtime.o
mp_obj_id                                         build/py/obj.o
                                                  build/py/modbuiltins.o
mp_obj_instance_call                              build/py/objtype.o
                                                  build/py/obj.o
mp_obj_instance_is_callable                       build/py/objtype.o
                                                  build/py/obj.o
mp_obj_instance_make_new                          build/py/objtype.o
                                                  build/py/vm.o
                                                  build/py/objobject.o
mp_obj_int_as_float_impl                          build/py/objint_mpz.o
                                                  build/py/obj.o
mp_obj_int_binary_op                              build/py/objint_mpz.o
                                                  build/py/objint.o
mp_obj_int_binary_op_extra_cases                  build/py/objint.o
                                                  build/py/objint_mpz.o
mp_obj_int_formatted                              build/py/objint.o
                                                  build/py/mpprint.o
mp_obj_int_formatted_impl                         build/py/objint_mpz.o
                                                  build/py/objint.o
mp_obj_int_from_bytes_impl                        build/py/objint_mpz.o
                                                  build/py/objint.o
mp_obj_int_get_checked                            build/py/objint_mpz.o
                                                  build/py/obj.o
mp_obj_int_get_truncated                          build/py/objint_mpz.o
                                                  build/extmod/machine_mem.o
                                                  build/extmod/moductypes.o
                                                  build/py/obj.o
mp_obj_int_new_mpz                                build/py/objint_mpz.o
                                                  build/py/objint.o
mp_obj_int_pow3                                   build/py/objint_mpz.o
                                                  build/py/modbuiltins.o
mp_obj_int_print                                  build/py/objint.o
mp_obj_int_sign                                   build/py/objint_mpz.o
                                                  build/py/parse.o
                                                  build/py/mpprint.o
mp_obj_int_to_bytes_impl                          build/py/objint_mpz.o
                                                  build/py/binary.o
                                                  build/py/objint.o
mp_obj_int_unary_op                               build/py/objint_mpz.o
                                                  build/py/objint.o
mp_obj_is_callable                                build/py/obj.o
                                                  build/extmod/modure.o
                                                  build/py/modbuiltins.o
mp_obj_is_exception_instance                      build/py/objexcept.o
                                                  build/py/obj.o
                                                  build/py/runtime.o
mp_obj_is_exception_type                          build/py/objexcept.o
                                                  build/py/runtime.o
mp_obj_is_package                                 build/py/builtinimport.o
                                                  build/py/runtime.o
mp_obj_is_subclass_fast                           build/py/objtype.o
                                                  build/lib/utils/pyexec.o
                                                  build/py/vm.o
                                                  build/py/objtuple.o
                                                  build/py/objgenerator.o
                                                  build/py/objexcept.o
                                                  build/py/runtime.o
mp_obj_is_true                                    build/py/obj.o
                                                  build/extmod/machine_signal.o
                                                  build/py/vm.o
                                                  build/py/modbuiltins.o
                                                  build/py/stream.o
                                                  build/py/objfilter.o
                                                  build/py/objbool.o
                                                  build/py/argcheck.o
                                                  build/py/runtime.o
mp_obj_len                                        build/py/obj.o
                                                  build/extmod/modurandom.o
                                                  build/extmod/moductypes.o
                                                  build/py/modbuiltins.o
                                                  build/py/objreversed.o
mp_obj_len_maybe                                  build/py/obj.o
                                                  build/py/objstr.o
                                                  build/py/objdict.o
                                                  build/py/objarray.o
mp_obj_list_append                                build/py/objlist.o
                                                  build/main.o
                                                  build/extmod/vfs.o
                                                  build/extmod/moduheapq.o
                                                  build/extmod/modure.o
                                                  build/extmod/modujson.o
                                                  build/py/vm.o
                                                  build/py/modbuiltins.o
                                                  build/py/builtinhelp.o
                                                  build/py/stream.o
                                                  build/py/sequence.o
                                                  build/py/objstr.o
                                                  build/py/runtime.o
mp_obj_list_get                                   build/py/objlist.o
                                                  build/py/builtinhelp.o
                                                  build/py/builtinimport.o
                                                  build/py/obj.o
mp_obj_list_init                                  build/py/objlist.o
                                                  build/main.o
                                                  build/extmod/modujson.o
mp_obj_list_remove                                build/py/objlist.o
mp_obj_list_set_len                               build/py/objlist.o
                                                  build/py/runtime.o
mp_obj_list_sort                                  build/py/objlist.o
                                                  build/py/modbuiltins.o
                                                  build/py/builtinhelp.o
mp_obj_list_store                                 build/py/objlist.o
mp_obj_namedtuple_find_field                      build/py/objnamedtuple.o
mp_obj_new_attrtuple                              build/py/objattrtuple.o
mp_obj_new_bound_meth                             build/py/objboundmeth.o
                                                  build/py/modbuiltins.o
                                                  build/py/runtime.o
mp_obj_new_bytearray                              build/py/objarray.o
mp_obj_new_bytearray_by_ref                       build/py/objarray.o
                                                  build/extmod/moduzlib.o
                                                  build/extmod/moductypes.o
mp_obj_new_bytes                                  build/py/objstr.o
                                                  build/msgpack.o
                                                  build/modumsgpack.o
                                                  build/extmod/moductypes.o
                                                  build/py/modstruct.o
                                                  build/py/compile.o
mp_obj_new_cell                                   build/py/objcell.o
                                                  build/py/bc.o
mp_obj_new_closure                                build/py/objclosure.o
                                                  build/py/emitglue.o
mp_obj_new_complex                                build/py/objcomplex.o
                                                  build/py/modcmath.o
                                                  build/py/parsenum.o
mp_obj_new_dict                                   build/py/objdict.o
                                                  build/msgpack.o
                                                  build/extmod/modujson.o
                                                  build/py/bc.o
                                                  build/py/vm.o
                                                  build/py/modbuiltins.o
                                                  build/py/objtype.o
                                                  build/py/objnamedtuple.o
                                                  build/py/objmodule.o
mp_obj_new_exception                              build/py/objexcept.o
                                                  build/extmod/modurandom.o
                                                  build/extmod/moduzlib.o
                                                  build/py/modsys.o
                                                  build/py/modbuiltins.o
                                                  build/py/objgenerator.o
                                                  build/py/runtime.o
mp_obj_new_exception_arg1                         build/py/objexcept.o
                                                  build/syscall.o
                                                  build/extmod/moduzlib.o
                                                  build/extmod/modure.o
                                                  build/py/modsys.o
                                                  build/py/objstr.o
                                                  build/py/objset.o
                                                  build/py/objdict.o
                                                  build/py/runtime.o
                                                  build/py/parsenum.o
                                                  build/py/pystack.o
mp_obj_new_exception_args                         build/py/objexcept.o
                                                  build/syscall.o
                                                  build/py/objgenerator.o
mp_obj_new_exception_msg                          build/py/objexcept.o
                                                  build/openpython_vfs.o
                                                  build/extmod/modutimeq.o
                                                  build/extmod/moduheapq.o
                                                  build/extmod/moductypes.o
                                                  build/py/vm.o
                                                  build/py/objint.o
                                                  build/py/objgenerator.o
                                                  build/py/runtime.o
                                                  build/py/parsenum.o
                                                  build/py/compile.o
                                                  build/py/parse.o
mp_obj_new_exception_msg_varg                     build/py/objexcept.o
                                                  build/extmod/machine_mem.o
                                                  build/py/bc.o
                                                  build/py/modbuiltins.o
                                                  build/py/builtinimport.o
                                                  build/py/objtype.o
                                                  build/py/objstrunicode.o
                                                  build/py/objstr.o
                                                  build/py/objnamedtuple.o
                                                  build/py/obj.o
                                                  build/py/argcheck.o
                                                  build/py/runtime.o
mp_obj_new_float                                  build/py/objfloat.o
                                                  build/msgpack.o
                                                  build/extmod/modurandom.o
                                                  build/extmod/moductypes.o
                                                  build/py/modcmath.o
                                                  build/py/modmath.o
                                                  build/py/modbuiltins.o
                                                  build/py/binary.o
                                                  build/py/objint_mpz.o
                                                  build/py/objcomplex.o
                                                  build/py/runtime.o
                                                  build/py/parsenum.o
mp_obj_new_fun_bc                                 build/py/objfun.o
                                                  build/py/emitglue.o
mp_obj_new_getitem_iter                           build/py/objgetitemiter.o
                                                  build/py/runtime.o
mp_obj_new_instance                               build/py/objtype.o
                                                  build/py/objobject.o
mp_obj_new_int                                    build/py/objint_mpz.o
                                                  build/msgpack.o
                                                  build/openpython_vfs.o
                                                  build/mphalport.o
                                                  build/extmod/modurandom.o
                                                  build/extmod/machine_mem.o
                                                  build/extmod/modure.o
                                                  build/extmod/moductypes.o
                                                  build/py/modmath.o
                                                  build/py/modgc.o
                                                  build/py/modbuiltins.o
                                                  build/py/binary.o
                                                  build/py/stream.o
                                                  build/py/objrange.o
                                                  build/py/obj.o
                                                  build/py/runtime.o
mp_obj_new_int_from_float                         build/py/objint.o
                                                  build/py/modmath.o
                                                  build/py/modbuiltins.o
                                                  build/py/objstr.o
mp_obj_new_int_from_ll                            build/py/objint_mpz.o
                                                  build/msgpack.o
                                                  build/extmod/moductypes.o
                                                  build/py/binary.o
                                                  build/py/runtime.o
mp_obj_new_int_from_str_len                       build/py/objint_mpz.o
                                                  build/py/parsenum.o
mp_obj_new_int_from_uint                          build/py/objint_mpz.o
                                                  build/msgpack.o
                                                  build/extmod/modurandom.o
                                                  build/extmod/modubinascii.o
                                                  build/extmod/moductypes.o
                                                  build/py/binary.o
                                                  build/py/stream.o
                                                  build/py/objint.o
                                                  build/py/obj.o
mp_obj_new_int_from_ull                           build/py/objint_mpz.o
                                                  build/msgpack.o
                                                  build/extmod/moductypes.o
                                                  build/py/binary.o
mp_obj_new_list                                   build/py/objlist.o
                                                  build/extmod/vfs.o
                                                  build/extmod/modure.o
                                                  build/extmod/modujson.o
                                                  build/py/vm.o
                                                  build/py/modbuiltins.o
                                                  build/py/builtinhelp.o
                                                  build/py/stream.o
                                                  build/py/sequence.o
                                                  build/py/objstr.o
                                                  build/py/runtime.o
mp_obj_new_memoryview                             build/py/objarray.o
mp_obj_new_module                                 build/py/objmodule.o
                                                  build/moduimp.o
                                                  build/py/builtinimport.o
mp_obj_new_namedtuple_base                        build/py/objnamedtuple.o
mp_obj_new_set                                    build/py/objset.o
                                                  build/py/vm.o
mp_obj_new_slice                                  build/py/objslice.o
                                                  build/py/vm.o
mp_obj_new_str                                    build/py/objstr.o
                                                  build/msgpack.o
                                                  build/mphalport.o
                                                  build/extmod/vfs_reader.o
                                                  build/extmod/vfs.o
                                                  build/extmod/modujson.o
                                                  build/py/modio.o
                                                  build/py/builtinhelp.o
                                                  build/py/builtinimport.o
                                                  build/py/binary.o
mp_obj_new_str_copy                               build/py/objstr.o
                                                  build/py/parse.o
mp_obj_new_str_from_vstr                          build/py/objstr.o
                                                  build/moducode.o
                                                  build/extmod/vfs.o
                                                  build/extmod/modubinascii.o
                                                  build/extmod/moduhashlib.o
                                                  build/extmod/modure.o
                                                  build/extmod/modujson.o
                                                  build/py/modstruct.o
                                                  build/py/modbuiltins.o
                                                  build/py/stream.o
                                                  build/py/objint.o
                                                  build/py/persistentcode.o
                                                  build/py/parsenum.o
mp_obj_new_str_of_type                            build/py/objstr.o
                                                  build/extmod/vfs.o
                                                  build/extmod/modure.o
                                                  build/py/objstringio.o
                                                  build/py/objstrunicode.o
mp_obj_new_str_via_qstr                           build/py/objstr.o
                                                  build/py/modbuiltins.o
                                                  build/py/objstrunicode.o
mp_obj_new_tuple                                  build/py/objtuple.o
                                                  build/msgpack.o
                                                  build/extmod/vfs.o
                                                  build/extmod/modure.o
                                                  build/py/bc.o
                                                  build/py/vm.o
                                                  build/py/modsys.o
                                                  build/py/modstruct.o
                                                  build/py/modcmath.o
                                                  build/py/modmath.o
                                                  build/py/modbuiltins.o
                                                  build/py/objzip.o
                                                  build/py/objstr.o
                                                  build/py/objnamedtuple.o
                                                  build/py/objint_mpz.o
                                                  build/py/objfloat.o
                                                  build/py/objenumerate.o
                                                  build/py/objdict.o
                                                  build/py/runtime.o
mp_obj_new_type                                   build/py/objtype.o
mp_obj_print                                      build/py/obj.o
                                                  build/py/builtinhelp.o
mp_obj_print_exception                            build/py/obj.o
                                                  build/lib/utils/pyexec.o
                                                  build/main.o
                                                  build/py/modsys.o
                                                  build/py/runtime_utils.o
mp_obj_print_helper                               build/py/obj.o
                                                  build/main.o
                                                  build/extmod/modujson.o
                                                  build/py/modbuiltins.o
                                                  build/py/objtype.o
                                                  build/py/objtuple.o
                                                  build/py/objstr.o
                                                  build/py/objslice.o
                                                  build/py/objset.o
                                                  build/py/objlist.o
                                                  build/py/objexcept.o
                                                  build/py/objdict.o
                                                  build/py/objclosure.o
                                                  build/py/objcell.o
                                                  build/py/objboundmeth.o
                                                  build/py/objattrtuple.o
                                                  build/py/objarray.o
mp_obj_property_get                               build/py/objproperty.o
                                                  build/py/objtype.o
mp_obj_set_store                                  build/py/objset.o
                                                  build/py/vm.o
mp_obj_slice_get                                  build/py/objslice.o
                                                  build/py/sequence.o
                                                  build/py/objstrunicode.o
mp_obj_str_binary_op                              build/py/objstr.o
                                                  build/py/objstringio.o
                                                  build/py/objstrunicode.o
                                                  build/py/objint.o
                                                  build/py/runtime.o
mp_obj_str_equal                                  build/py/objstr.o
                                                  build/py/obj.o
mp_obj_str_format                                 build/py/objstr.o
                                                  build/py/modbuiltins.o
mp_obj_str_get_buffer                             build/py/objstr.o
                                                  build/py/objstrunicode.o
mp_obj_str_get_data                               build/py/objstr.o
                                                  build/msgpack.o
                                                  build/modumsgpack.o
                                                  build/moduimp.o
                                                  build/moducomputer.o
                                                  build/moducomponent.o
                                                  build/moducode.o
                                                  build/modmachine.o
                                                  build/extmod/vfs.o
                                                  build/extmod/modure.o
                                                  build/extmod/modujson.o
                                                  build/py/modio.o
                                                  build/py/modbuiltins.o
                                                  build/py/builtinevex.o
                                                  build/py/builtinimport.o
                                                  build/py/objint.o
                                                  build/py/objcomplex.o
                                                  build/py/runtime.o
mp_obj_str_get_qstr                               build/py/objstr.o
                                                  build/py/modbuiltins.o
                                                  build/py/builtinevex.o
                                                  build/py/builtinimport.o
                                                  build/py/objtype.o
                                                  build/py/objnamedtuple.o
mp_obj_str_get_str                                build/py/objstr.o
                                                  build/openpython_vfs.o
                                                  build/extmod/vfs.o
                                                  build/extmod/modubinascii.o
                                                  build/extmod/modure.o
                                                  build/py/modstruct.o
                                                  build/py/builtinhelp.o
                                                  build/py/objmodule.o
                                                  build/py/objarray.o
mp_obj_str_intern                                 build/py/objstr.o
mp_obj_str_intern_checked                         build/py/objstr.o
                                                  build/py/runtime.o
mp_obj_str_make_new                               build/py/objstr.o
                                                  build/py/objstrunicode.o
mp_obj_str_split                                  build/py/objstr.o
                                                  build/py/objnamedtuple.o
mp_obj_subscr                                     build/py/obj.o
                                                  build/extmod/vfs.o
                                                  build/extmod/modurandom.o
                                                  build/py/vm.o
                                                  build/py/objtype.o
                                                  build/py/objreversed.o
mp_obj_tuple_binary_op                            build/py/objtuple.o
                                                  build/py/objnamedtuple.o
                                                  build/py/objattrtuple.o
mp_obj_tuple_del                                  build/py/objtuple.o
                                                  build/py/objzip.o
mp_obj_tuple_get                                  build/py/objtuple.o
                                                  build/py/objtype.o
                                                  build/py/objstr.o
                                                  build/py/obj.o
mp_obj_tuple_getiter                              build/py/objtuple.o
                                                  build/py/objnamedtuple.o
                                                  build/py/objattrtuple.o
mp_obj_tuple_print                                build/py/objtuple.o
                                                  build/py/objexcept.o
mp_obj_tuple_subscr                               build/py/objtuple.o
                                                  build/py/objnamedtuple.o
                                                  build/py/objattrtuple.o
mp_obj_tuple_unary_op                             build/py/objtuple.o
                                                  build/py/objnamedtuple.o
                                                  build/py/objattrtuple.o
mp_op_contains_obj                                build/py/opmethods.o
                                                  build/py/objset.o
mp_op_delitem_obj                                 build/py/opmethods.o
                                                  build/py/objdict.o
mp_op_getitem_obj                                 build/py/opmethods.o
                                                  build/py/objdict.o
mp_op_setitem_obj                                 build/py/opmethods.o
                                                  build/py/objdict.o
mp_opcode_format                                  build/py/bc.o
                                                  build/py/persistentcode.o
mp_parse                                          build/py/parse.o
                                                  build/lib/utils/pyexec.o
                                                  build/moducode.o
                                                  build/main.o
                                                  build/py/runtime.o
mp_parse_compile_execute                          build/py/runtime.o
                                                  build/py/builtinevex.o
                                                  build/py/builtinimport.o
mp_parse_node_extract_list                        build/py/parse.o
                                                  build/py/compile.o
mp_parse_node_get_int_maybe                       build/py/parse.o
mp_parse_node_is_const_false                      build/py/parse.o
                                                  build/py/compile.o
mp_parse_node_is_const_true                       build/py/parse.o
                                                  build/py/compile.o
mp_parse_num_base                                 build/py/parsenumbase.o
                                                  build/py/parsenum.o
mp_parse_num_decimal                              build/py/parsenum.o
                                                  build/extmod/modujson.o
                                                  build/py/objfloat.o
                                                  build/py/objcomplex.o
                                                  build/py/persistentcode.o
                                                  build/py/parse.o
mp_parse_num_integer                              build/py/parsenum.o
                                                  build/extmod/modujson.o
                                                  build/py/modstruct.o
                                                  build/py/objint.o
                                                  build/py/persistentcode.o
                                                  build/py/parse.o
mp_parse_tree_clear                               build/py/parse.o
                                                  build/py/compile.o
mp_plat_print                                     build/py/mpprint.o
                                                  build/lib/mp-readline/readline.o
                                                  build/lib/utils/pyexec.o
                                                  build/main.o
                                                  build/lib/utils/printf.o
                                                  build/py/modmicropython.o
                                                  build/py/warning.o
                                                  build/py/runtime_utils.o
                                                  build/py/qstr.o
                                                  build/py/gc.o
mp_print_float                                    build/py/mpprint.o
                                                  build/py/objstr.o
mp_print_mp_int                                   build/py/mpprint.o
                                                  build/py/objstr.o
mp_print_str                                      build/py/mpprint.o
                                                  build/py/repl.o
                                                  build/py/modbuiltins.o
                                                  build/py/builtinhelp.o
                                                  build/py/objtype.o
                                                  build/py/objtuple.o
                                                  build/py/objstrunicode.o
                                                  build/py/objstr.o
                                                  build/py/objslice.o
                                                  build/py/objset.o
                                                  build/py/objrange.o
                                                  build/py/objnone.o
                                                  build/py/objlist.o
                                                  build/py/objint.o
                                                  build/py/objfloat.o
                                                  build/py/objexcept.o
                                                  build/py/objdict.o
                                                  build/py/objcomplex.o
                                                  build/py/objclosure.o
                                                  build/py/objcell.o
                                                  build/py/objboundmeth.o
                                                  build/py/objbool.o
                                                  build/py/objattrtuple.o
                                                  build/py/objarray.o
                                                  build/py/obj.o
                                                  build/py/warning.o
                                                  build/py/gc.o
mp_print_strn                                     build/py/mpprint.o
                                                  build/py/objstr.o
mp_printf                                         build/py/mpprint.o
                                                  build/lib/utils/sys_stdio_mphal.o
                                                  build/openpython_vfs.o
                                                  build/moduvalue.o
                                                  build/extmod/machine_mem.o
                                                  build/extmod/modure.o
                                                  build/extmod/moductypes.o
                                                  build/py/repl.o
                                                  build/py/modmicropython.o
                                                  build/py/builtinhelp.o
                                                  build/py/objtype.o
                                                  build/py/objstringio.o
                                                  build/py/objstrunicode.o
                                                  build/py/objstr.o
                                                  build/py/objsingleton.o
                                                  build/py/objrange.o
                                                  build/py/objnamedtuple.o
                                                  build/py/objmodule.o
                                                  build/py/objgenerator.o
                                                  build/py/objfun.o
                                                  build/py/objexcept.o
                                                  build/py/objdict.o
                                                  build/py/objcomplex.o
                                                  build/py/objclosure.o
                                                  build/py/objcell.o
                                                  build/py/objboundmeth.o
                                                  build/py/objattrtuple.o
                                                  build/py/objarray.o
                                                  build/py/obj.o
                                                  build/py/parsenum.o
                                                  build/py/qstr.o
                                                  build/py/gc.o
mp_pystack_alloc                                  build/py/pystack.o
                                                  build/extmod/modure.o
                                                  build/py/builtinimport.o
                                                  build/py/objfun.o
                                                  build/py/objboundmeth.o
                                                  build/py/runtime.o
                                                  build/py/compile.o
mp_pystack_init                                   build/py/pystack.o
                                                  build/main.o
mp_qstr_const_pool                                build/py/qstr.o
                                                  build/build/frozen_mpy.o
mp_qstr_frozen_const_pool                         build/build/frozen_mpy.o
                                                  build/py/qstr.o
mp_raise_NotImplementedError                      build/py/runtime.o
                                                  build/extmod/modure.o
                                                  build/py/modbuiltins.o
                                                  build/py/objtuple.o
                                                  build/py/objstrunicode.o
                                                  build/py/objstr.o
                                                  build/py/objlist.o
                                                  build/py/objarray.o
                                                  build/py/argcheck.o
                                                  build/py/lexer.o
mp_raise_OSError                                  build/py/runtime.o
                                                  build/openpython_vfs.o
                                                  build/extmod/vfs_reader.o
                                                  build/extmod/vfs.o
                                                  build/extmod/moduzlib.o
                                                  build/extmod/modujson.o
                                                  build/py/stream.o
mp_raise_TypeError                                build/py/runtime.o
                                                  build/msgpack.o
                                                  build/extmod/machine_signal.o
                                                  build/extmod/modutimeq.o
                                                  build/extmod/moduheapq.o
                                                  build/extmod/moductypes.o
                                                  build/py/bc.o
                                                  build/py/modio.o
                                                  build/py/modbuiltins.o
                                                  build/py/builtinevex.o
                                                  build/py/objtype.o
                                                  build/py/objstr.o
                                                  build/py/objobject.o
                                                  build/py/objint_mpz.o
                                                  build/py/objgenerator.o
                                                  build/py/objdict.o
                                                  build/py/objcomplex.o
                                                  build/py/obj.o
                                                  build/py/argcheck.o
mp_raise_ValueError                               build/py/runtime.o
                                                  build/msgpack.o
                                                  build/moducode.o
                                                  build/extmod/modurandom.o
                                                  build/extmod/modubinascii.o
                                                  build/extmod/moduzlib.o
                                                  build/extmod/modure.o
                                                  build/extmod/modujson.o
                                                  build/py/modstruct.o
                                                  build/py/modmath.o
                                                  build/py/modbuiltins.o
                                                  build/py/builtinevex.o
                                                  build/py/builtinimport.o
                                                  build/py/binary.o
                                                  build/py/sequence.o
                                                  build/py/objstringio.o
                                                  build/py/objstr.o
                                                  build/py/objrange.o
                                                  build/py/objint_mpz.o
                                                  build/py/objint.o
                                                  build/py/objgenerator.o
                                                  build/py/objdict.o
                                                  build/py/objdeque.o
                                                  build/py/objarray.o
                                                  build/py/persistentcode.o
                                                  build/py/parsenum.o
mp_raise_msg                                      build/py/runtime.o
                                                  build/moduvalue.o
                                                  build/lib/embed/abort_.o
                                                  build/extmod/modutimeq.o
                                                  build/py/modmicropython.o
                                                  build/py/modmath.o
                                                  build/py/stream.o
                                                  build/py/objtype.o
                                                  build/py/objstrunicode.o
                                                  build/py/objstr.o
                                                  build/py/objset.o
                                                  build/py/objnamedtuple.o
                                                  build/py/objlist.o
                                                  build/py/objint_mpz.o
                                                  build/py/objgenerator.o
                                                  build/py/objfloat.o
                                                  build/py/objdict.o
                                                  build/py/objdeque.o
                                                  build/py/objcomplex.o
                                                  build/py/vstr.o
mp_raise_recursion_depth                          build/py/runtime.o
                                                  build/py/stackctrl.o
mp_raw_code_load                                  build/py/persistentcode.o
mp_raw_code_load_file                             build/py/persistentcode.o
                                                  build/py/builtinimport.o
mp_raw_code_load_mem                              build/py/persistentcode.o
mp_reader_new_file                                build/extmod/vfs_reader.o
                                                  build/py/persistentcode.o
                                                  build/py/lexer.o
mp_reader_new_file_from_fd                        build/py/lexer.o
mp_reader_new_mem                                 build/py/reader.o
                                                  build/py/persistentcode.o
                                                  build/py/lexer.o
mp_repl_autocomplete                              build/py/repl.o
                                                  build/lib/mp-readline/readline.o
mp_repl_continue_with_input                       build/py/repl.o
                                                  build/lib/utils/pyexec.o
                                                  build/moducode.o
mp_resume                                         build/py/runtime.o
                                                  build/py/vm.o
mp_sched_lock                                     build/py/scheduler.o
                                                  build/py/gc.o
mp_sched_schedule                                 build/py/scheduler.o
                                                  build/py/modmicropython.o
mp_sched_unlock                                   build/py/scheduler.o
                                                  build/py/gc.o
mp_seq_cmp_bytes                                  build/py/sequence.o
                                                  build/py/objstr.o
                                                  build/py/objarray.o
mp_seq_cmp_objs                                   build/py/sequence.o
                                                  build/py/objtuple.o
                                                  build/py/objlist.o
mp_seq_count_obj                                  build/py/sequence.o
                                                  build/py/objtuple.o
                                                  build/py/objlist.o
mp_seq_extract_slice                              build/py/sequence.o
                                                  build/py/objlist.o
mp_seq_get_fast_slice_indexes                     build/py/sequence.o
                                                  build/py/objtuple.o
                                                  build/py/objstr.o
                                                  build/py/objrange.o
                                                  build/py/objlist.o
                                                  build/py/objarray.o
mp_seq_index_obj                                  build/py/sequence.o
                                                  build/py/objtuple.o
                                                  build/py/objlist.o
mp_seq_multiply                                   build/py/sequence.o
                                                  build/py/objtuple.o
                                                  build/py/objstr.o
                                                  build/py/objlist.o
mp_set_clear                                      build/py/map.o
                                                  build/py/objset.o
mp_set_init                                       build/py/map.o
                                                  build/py/objset.o
mp_set_lookup                                     build/py/map.o
                                                  build/py/objset.o
mp_set_remove_first                               build/py/map.o
                                                  build/py/objset.o
mp_setup_code_state                               build/py/bc.o
                                                  build/py/objgenerator.o
                                                  build/py/objfun.o
mp_small_int_floor_divide                         build/py/smallint.o
                                                  build/py/runtime.o
mp_small_int_modulo                               build/py/smallint.o
                                                  build/py/runtime.o
mp_small_int_mul_overflow                         build/py/smallint.o
                                                  build/py/runtime.o
                                                  build/py/parsenum.o
mp_stack_check                                    build/py/stackctrl.o
                                                  build/extmod/modure.o
                                                  build/py/objstr.o
                                                  build/py/objlist.o
                                                  build/py/objgenerator.o
                                                  build/py/objfun.o
                                                  build/py/obj.o
                                                  build/py/runtime.o
mp_stack_ctrl_init                                build/py/stackctrl.o
mp_stack_set_limit                                build/py/stackctrl.o
                                                  build/main.o
mp_stack_set_top                                  build/py/stackctrl.o
                                                  build/main.o
mp_stack_usage                                    build/py/stackctrl.o
                                                  build/py/modmicropython.o
mp_state_ctx                                      build/py/mpstate.o
                                                  build/lib/mp-readline/readline.o
                                                  build/lib/utils/pyexec.o
                                                  build/lib/utils/interrupt_char.o
                                                  build/moduvalue.o
                                                  build/moducode.o
                                                  build/modmachine.o
                                                  build/mphalport.o
                                                  build/main.o
                                                  build/extmod/vfs.o
                                                  build/extmod/modure.o
                                                  build/py/repl.o
                                                  build/py/vm.o
                                                  build/py/modsys.o
                                                  build/py/modmicropython.o
                                                  build/py/modgc.o
                                                  build/py/modbuiltins.o
                                                  build/py/builtinevex.o
                                                  build/py/builtinimport.o
                                                  build/py/objmodule.o
                                                  build/py/objgenerator.o
                                                  build/py/objfun.o
                                                  build/py/objexcept.o
                                                  build/py/objboundmeth.o
                                                  build/py/stackctrl.o
                                                  build/py/scheduler.o
                                                  build/py/runtime.o
                                                  build/py/emitbc.o
                                                  build/py/compile.o
                                                  build/py/lexer.o
                                                  build/py/qstr.o
                                                  build/py/pystack.o
                                                  build/py/gc.o
                                                  build/py/malloc.o
                                                  build/py/nlrthumb.o
                                                  build/py/nlr.o
mp_store_attr                                     build/py/runtime.o
                                                  build/py/vm.o
                                                  build/py/modbuiltins.o
                                                  build/py/builtinimport.o
mp_store_global                                   build/py/runtime.o
                                                  build/py/vm.o
mp_store_name                                     build/py/runtime.o
                                                  build/py/vm.o
mp_str_print_json                                 build/py/objstr.o
                                                  build/py/objstrunicode.o
mp_str_print_quoted                               build/py/objstr.o
                                                  build/py/objarray.o
                                                  build/py/parsenum.o
mp_stream_close                                   build/py/stream.o
                                                  build/openpython_vfs.o
                                                  build/extmod/vfs_reader.o
                                                  build/py/objstringio.o
mp_stream_close_obj                               build/py/stream.o
                                                  build/openpython_vfs.o
                                                  build/py/objstringio.o
mp_stream_flush_obj                               build/py/stream.o
                                                  build/openpython_vfs.o
                                                  build/py/objstringio.o
mp_stream_ioctl_obj                               build/py/stream.o
mp_stream_read1_obj                               build/py/stream.o
mp_stream_read_obj                                build/py/stream.o
                                                  build/lib/utils/sys_stdio_mphal.o
                                                  build/openpython_vfs.o
                                                  build/extmod/moduzlib.o
                                                  build/py/objstringio.o
mp_stream_readinto_obj                            build/py/stream.o
                                                  build/lib/utils/sys_stdio_mphal.o
                                                  build/openpython_vfs.o
                                                  build/extmod/moduzlib.o
                                                  build/py/objstringio.o
mp_stream_rw                                      build/py/stream.o
                                                  build/extmod/vfs_reader.o
mp_stream_seek_obj                                build/py/stream.o
                                                  build/openpython_vfs.o
                                                  build/py/objstringio.o
mp_stream_tell_obj                                build/py/stream.o
                                                  build/openpython_vfs.o
mp_stream_unbuffered_iter                         build/py/stream.o
                                                  build/lib/utils/sys_stdio_mphal.o
                                                  build/openpython_vfs.o
                                                  build/py/objstringio.o
mp_stream_unbuffered_readline_obj                 build/py/stream.o
                                                  build/lib/utils/sys_stdio_mphal.o
                                                  build/openpython_vfs.o
                                                  build/extmod/moduzlib.o
                                                  build/py/objstringio.o
mp_stream_unbuffered_readlines_obj                build/py/stream.o
                                                  build/lib/utils/sys_stdio_mphal.o
                                                  build/openpython_vfs.o
mp_stream_write                                   build/py/stream.o
mp_stream_write1_obj                              build/py/stream.o
mp_stream_write_adaptor                           build/py/stream.o
                                                  build/extmod/modujson.o
                                                  build/py/modsys.o
                                                  build/py/modbuiltins.o
mp_stream_write_obj                               build/py/stream.o
                                                  build/lib/utils/sys_stdio_mphal.o
                                                  build/openpython_vfs.o
                                                  build/py/objstringio.o
mp_sys_exc_info_obj                               build/py/modsys.o
mp_sys_exit_obj                                   build/py/modsys.o
mp_sys_print_exception_obj                        build/py/modsys.o
mp_sys_stderr_obj                                 build/lib/utils/sys_stdio_mphal.o
                                                  build/py/modsys.o
mp_sys_stdin_obj                                  build/lib/utils/sys_stdio_mphal.o
                                                  build/py/modsys.o
mp_sys_stdout_obj                                 build/lib/utils/sys_stdio_mphal.o
                                                  build/py/modsys.o
                                                  build/py/modbuiltins.o
mp_sys_stdout_print                               build/py/modsys.o
                                                  build/py/modbuiltins.o
                                                  build/py/builtinhelp.o
                                                  build/py/obj.o
mp_type_ArithmeticError                           build/py/objexcept.o
                                                  build/py/modbuiltins.o
mp_type_AssertionError                            build/py/objexcept.o
                                                  build/py/modbuiltins.o
mp_type_AttributeError                            build/py/objexcept.o
                                                  build/moduvalue.o
                                                  build/py/modbuiltins.o
                                                  build/py/objtype.o
                                                  build/py/objnamedtuple.o
                                                  build/py/runtime.o
mp_type_BaseException                             build/py/objexcept.o
                                                  build/py/modbuiltins.o
mp_type_EOFError                                  build/py/objexcept.o
                                                  build/extmod/moduzlib.o
                                                  build/py/modbuiltins.o
mp_type_Exception                                 build/py/objexcept.o
                                                  build/machine.o
                                                  build/py/modbuiltins.o
mp_type_GeneratorExit                             build/py/objexcept.o
                                                  build/py/vm.o
                                                  build/py/modbuiltins.o
                                                  build/py/objgenerator.o
                                                  build/py/runtime.o
mp_type_ImportError                               build/py/objexcept.o
                                                  build/py/modbuiltins.o
                                                  build/py/builtinimport.o
                                                  build/py/runtime.o
mp_type_IndentationError                          build/py/objexcept.o
                                                  build/py/modbuiltins.o
                                                  build/py/parse.o
mp_type_IndexError                                build/py/objexcept.o
                                                  build/extmod/modurandom.o
                                                  build/extmod/modutimeq.o
                                                  build/extmod/moduheapq.o
                                                  build/extmod/modure.o
                                                  build/extmod/moductypes.o
                                                  build/py/modbuiltins.o
                                                  build/py/objstrunicode.o
                                                  build/py/objstr.o
                                                  build/py/objlist.o
                                                  build/py/objgetitemiter.o
                                                  build/py/objdeque.o
                                                  build/py/obj.o
mp_type_KeyError                                  build/py/objexcept.o
                                                  build/py/modbuiltins.o
                                                  build/py/objstr.o
                                                  build/py/objset.o
                                                  build/py/objdict.o
mp_type_KeyboardInterrupt                         build/py/objexcept.o
                                                  build/py/modbuiltins.o
                                                  build/py/runtime.o
mp_type_LookupError                               build/py/objexcept.o
                                                  build/py/modbuiltins.o
mp_type_MemoryError                               build/py/objexcept.o
                                                  build/py/modbuiltins.o
                                                  build/py/runtime.o
mp_type_NameError                                 build/py/objexcept.o
                                                  build/py/vm.o
                                                  build/py/modbuiltins.o
                                                  build/py/runtime.o
mp_type_NoneType                                  build/py/objnone.o
mp_type_NotImplementedError                       build/py/objexcept.o
                                                  build/py/vm.o
                                                  build/py/modbuiltins.o
                                                  build/py/runtime.o
mp_type_OSError                                   build/py/objexcept.o
                                                  build/py/modbuiltins.o
                                                  build/py/stream.o
                                                  build/py/runtime.o
mp_type_OverflowError                             build/py/objexcept.o
                                                  build/py/modbuiltins.o
                                                  build/py/objint_mpz.o
                                                  build/py/objint.o
mp_type_RuntimeError                              build/py/objexcept.o
                                                  build/lib/embed/abort_.o
                                                  build/py/vm.o
                                                  build/py/modmicropython.o
                                                  build/py/modbuiltins.o
                                                  build/py/objgenerator.o
                                                  build/py/runtime.o
                                                  build/py/vstr.o
                                                  build/py/pystack.o
mp_type_StopAsyncIteration                        build/py/objexcept.o
                                                  build/py/modbuiltins.o
mp_type_StopIteration                             build/py/objexcept.o
                                                  build/py/vm.o
                                                  build/py/modbuiltins.o
                                                  build/py/objgetitemiter.o
                                                  build/py/objgenerator.o
                                                  build/py/runtime.o
mp_type_SyntaxError                               build/py/objexcept.o
                                                  build/py/modbuiltins.o
                                                  build/py/parsenum.o
                                                  build/py/compile.o
                                                  build/py/parse.o
mp_type_SystemError                               build/machine.o
                                                  build/syscall.o
                                                  build/py/modbuiltins.o
mp_type_SystemExit                                build/py/objexcept.o
                                                  build/lib/utils/pyexec.o
                                                  build/py/modsys.o
                                                  build/py/modbuiltins.o
mp_type_TimeoutError                              build/py/objexcept.o
mp_type_TypeError                                 build/py/objexcept.o
                                                  build/py/bc.o
                                                  build/py/modbuiltins.o
                                                  build/py/objtype.o
                                                  build/py/objstrunicode.o
                                                  build/py/objstr.o
                                                  build/py/objnamedtuple.o
                                                  build/py/obj.o
                                                  build/py/argcheck.o
                                                  build/py/runtime.o
mp_type_UnicodeError                              build/py/objexcept.o
                                                  build/py/modbuiltins.o
                                                  build/py/objstr.o
mp_type_ValueError                                build/py/objexcept.o
                                                  build/openpython_vfs.o
                                                  build/extmod/machine_mem.o
                                                  build/extmod/moduzlib.o
                                                  build/py/modbuiltins.o
                                                  build/py/objstr.o
                                                  build/py/obj.o
                                                  build/py/runtime.o
                                                  build/py/parsenum.o
mp_type_ZeroDivisionError                         build/py/objexcept.o
                                                  build/py/modmath.o
                                                  build/py/modbuiltins.o
                                                  build/py/objint_mpz.o
                                                  build/py/objfloat.o
                                                  build/py/objcomplex.o
                                                  build/py/runtime.o
mp_type_array                                     build/py/objarray.o
                                                  build/py/modarray.o
                                                  build/py/gc.o
mp_type_attrtuple                                 build/py/objattrtuple.o
                                                  build/py/modsys.o
mp_type_bool                                      build/py/objbool.o
                                                  build/py/modbuiltins.o
                                                  build/py/objstr.o
mp_type_bytearray                                 build/py/objarray.o
                                                  build/extmod/moductypes.o
                                                  build/py/modbuiltins.o
                                                  build/py/gc.o
mp_type_bytes                                     build/py/objstr.o
                                                  build/msgpack.o
                                                  build/build/frozen_mpy.o
                                                  build/extmod/vfs.o
                                                  build/extmod/modubinascii.o
                                                  build/extmod/moduhashlib.o
                                                  build/py/modstruct.o
                                                  build/py/modbuiltins.o
                                                  build/py/stream.o
                                                  build/py/objstringio.o
                                                  build/py/objstrunicode.o
                                                  build/py/objint.o
                                                  build/py/objarray.o
                                                  build/py/obj.o
                                                  build/py/persistentcode.o
                                                  build/py/parse.o
                                                  build/py/gc.o
mp_type_bytesio                                   build/py/objstringio.o
                                                  build/py/modio.o
mp_type_classmethod                               build/py/objtype.o
                                                  build/py/modbuiltins.o
                                                  build/py/objint.o
                                                  build/py/objdict.o
                                                  build/py/runtime.o
mp_type_complex                                   build/py/objcomplex.o
                                                  build/py/modbuiltins.o
                                                  build/py/objint_mpz.o
                                                  build/py/objfloat.o
                                                  build/py/obj.o
                                                  build/py/runtime.o
mp_type_deque                                     build/py/objdeque.o
                                                  build/py/modcollections.o
mp_type_dict                                      build/py/objdict.o
                                                  build/lib/utils/sys_stdio_mphal.o
                                                  build/msgpack.o
                                                  build/openpython_vfs.o
                                                  build/moduvalue.o
                                                  build/modumsgpack.o
                                                  build/modutime.o
                                                  build/moduimp.o
                                                  build/moduos.o
                                                  build/moducomputer.o
                                                  build/moducomponent.o
                                                  build/moducode.o
                                                  build/modmachine.o
                                                  build/extmod/modurandom.o
                                                  build/extmod/machine_signal.o
                                                  build/extmod/modubinascii.o
                                                  build/extmod/moduhashlib.o
                                                  build/extmod/modutimeq.o
                                                  build/extmod/moduheapq.o
                                                  build/extmod/moduzlib.o
                                                  build/extmod/modure.o
                                                  build/extmod/modujson.o
                                                  build/extmod/moductypes.o
                                                  build/py/moduerrno.o
                                                  build/py/modsys.o
                                                  build/py/modstruct.o
                                                  build/py/modmicropython.o
                                                  build/py/modcmath.o
                                                  build/py/modmath.o
                                                  build/py/modio.o
                                                  build/py/modgc.o
                                                  build/py/modcollections.o
                                                  build/py/modbuiltins.o
                                                  build/py/modarray.o
                                                  build/py/builtinevex.o
                                                  build/py/objtype.o
                                                  build/py/objtuple.o
                                                  build/py/objstringio.o
                                                  build/py/objstrunicode.o
                                                  build/py/objstr.o
                                                  build/py/objset.o
                                                  build/py/objproperty.o
                                                  build/py/objobject.o
                                                  build/py/objlist.o
                                                  build/py/objint.o
                                                  build/py/objgenerator.o
                                                  build/py/objdeque.o
                                                  build/py/objarray.o
                                                  build/py/runtime.o
                                                  build/py/gc.o
mp_type_enumerate                                 build/py/objenumerate.o
                                                  build/py/modbuiltins.o
mp_type_filter                                    build/py/objfilter.o
                                                  build/py/modbuiltins.o
mp_type_float                                     build/py/objfloat.o
                                                  build/msgpack.o
                                                  build/py/modbuiltins.o
                                                  build/py/objstr.o
                                                  build/py/objint_mpz.o
                                                  build/py/objint.o
                                                  build/py/objarray.o
                                                  build/py/obj.o
                                                  build/py/runtime.o
                                                  build/py/gc.o
mp_type_frozenset                                 build/py/objset.o
                                                  build/py/modbuiltins.o
mp_type_fun_bc                                    build/py/objfun.o
                                                  build/py/vm.o
                                                  build/py/builtinevex.o
                                                  build/py/gc.o
mp_type_fun_builtin_0                             build/py/objfun.o
                                                  build/modutime.o
                                                  build/moducomputer.o
                                                  build/moducode.o
                                                  build/extmod/utime_mphal.o
                                                  build/extmod/vfs.o
                                                  build/extmod/modurandom.o
                                                  build/py/modsys.o
                                                  build/py/modmicropython.o
                                                  build/py/modgc.o
                                                  build/py/modbuiltins.o
                                                  build/py/runtime.o
mp_type_fun_builtin_1                             build/py/objfun.o
                                                  build/lib/utils/pyexec.o
                                                  build/openpython_vfs.o
                                                  build/moduvalue.o
                                                  build/modumsgpack.o
                                                  build/moduimp.o
                                                  build/moducomputer.o
                                                  build/moducomponent.o
                                                  build/modmachine.o
                                                  build/extmod/utime_mphal.o
                                                  build/extmod/vfs.o
                                                  build/extmod/modurandom.o
                                                  build/extmod/machine_signal.o
                                                  build/extmod/modubinascii.o
                                                  build/extmod/moduhashlib.o
                                                  build/extmod/modutimeq.o
                                                  build/extmod/moduheapq.o
                                                  build/extmod/modure.o
                                                  build/extmod/modujson.o
                                                  build/extmod/moductypes.o
                                                  build/py/modsys.o
                                                  build/py/modstruct.o
                                                  build/py/modmicropython.o
                                                  build/py/modcmath.o
                                                  build/py/modmath.o
                                                  build/py/modbuiltins.o
                                                  build/py/stream.o
                                                  build/py/objstringio.o
                                                  build/py/objstr.o
                                                  build/py/objset.o
                                                  build/py/objnamedtuple.o
                                                  build/py/objobject.o
                                                  build/py/objlist.o
                                                  build/py/objgenerator.o
                                                  build/py/objdict.o
                                                  build/py/objdeque.o
                                                  build/py/obj.o
                                                  build/py/runtime.o
mp_type_fun_builtin_2                             build/py/objfun.o
                                                  build/moducomponent.o
                                                  build/moducode.o
                                                  build/extmod/utime_mphal.o
                                                  build/extmod/vfs.o
                                                  build/extmod/modurandom.o
                                                  build/extmod/moduhashlib.o
                                                  build/extmod/modutimeq.o
                                                  build/extmod/moduheapq.o
                                                  build/extmod/modure.o
                                                  build/extmod/modujson.o
                                                  build/extmod/moductypes.o
                                                  build/py/modmicropython.o
                                                  build/py/modcmath.o
                                                  build/py/modmath.o
                                                  build/py/modio.o
                                                  build/py/modbuiltins.o
                                                  build/py/stream.o
                                                  build/py/opmethods.o
                                                  build/py/objtype.o
                                                  build/py/objtuple.o
                                                  build/py/objstr.o
                                                  build/py/objset.o
                                                  build/py/objnamedtuple.o
                                                  build/py/objproperty.o
                                                  build/py/objlist.o
                                                  build/py/objgenerator.o
                                                  build/py/objdeque.o
                                                  build/py/objarray.o
                                                  build/py/runtime.o
mp_type_fun_builtin_3                             build/py/objfun.o
                                                  build/py/modbuiltins.o
                                                  build/py/opmethods.o
                                                  build/py/objlist.o
                                                  build/py/runtime.o
mp_type_fun_builtin_var                           build/py/objfun.o
                                                  build/lib/utils/sys_stdio_mphal.o
                                                  build/openpython_vfs.o
                                                  build/moduvalue.o
                                                  build/moducomputer.o
                                                  build/moducomponent.o
                                                  build/extmod/vfs.o
                                                  build/extmod/modurandom.o
                                                  build/extmod/machine_signal.o
                                                  build/extmod/modubinascii.o
                                                  build/extmod/modutimeq.o
                                                  build/extmod/moduzlib.o
                                                  build/extmod/modure.o
                                                  build/py/modsys.o
                                                  build/py/modstruct.o
                                                  build/py/modmicropython.o
                                                  build/py/modmath.o
                                                  build/py/modgc.o
                                                  build/py/modbuiltins.o
                                                  build/py/builtinhelp.o
                                                  build/py/builtinevex.o
                                                  build/py/builtinimport.o
                                                  build/py/stream.o
                                                  build/py/objtype.o
                                                  build/py/objtuple.o
                                                  build/py/objstringio.o
                                                  build/py/objstr.o
                                                  build/py/objset.o
                                                  build/py/objlist.o
                                                  build/py/objint.o
                                                  build/py/objgenerator.o
                                                  build/py/objdict.o
                                                  build/py/runtime.o
mp_type_gen_instance                              build/py/objgenerator.o
                                                  build/py/runtime.o
mp_type_gen_wrap                                  build/py/objgenerator.o
                                                  build/py/emitglue.o
mp_type_int                                       build/py/objint.o
                                                  build/msgpack.o
                                                  build/py/modbuiltins.o
                                                  build/py/binary.o
                                                  build/py/objstringio.o
                                                  build/py/objstr.o
                                                  build/py/objint_mpz.o
                                                  build/py/objarray.o
                                                  build/py/obj.o
                                                  build/py/parse.o
                                                  build/py/mpprint.o
mp_type_list                                      build/py/objlist.o
                                                  build/msgpack.o
                                                  build/extmod/modutimeq.o
                                                  build/extmod/moduheapq.o
                                                  build/extmod/modujson.o
                                                  build/py/modbuiltins.o
                                                  build/py/objstr.o
                                                  build/py/objint.o
                                                  build/py/obj.o
                                                  build/py/runtime.o
                                                  build/py/gc.o
mp_type_map                                       build/py/objmap.o
                                                  build/py/modbuiltins.o
mp_type_memoryview                                build/py/objarray.o
                                                  build/py/modbuiltins.o
mp_type_module                                    build/py/objmodule.o
                                                  build/moduvalue.o
                                                  build/modumsgpack.o
                                                  build/modutime.o
                                                  build/moduimp.o
                                                  build/moduos.o
                                                  build/moducomputer.o
                                                  build/moducomponent.o
                                                  build/moducode.o
                                                  build/modmachine.o
                                                  build/extmod/modurandom.o
                                                  build/extmod/modubinascii.o
                                                  build/extmod/moduhashlib.o
                                                  build/extmod/modutimeq.o
                                                  build/extmod/moduheapq.o
                                                  build/extmod/moduzlib.o
                                                  build/extmod/modure.o
                                                  build/extmod/modujson.o
                                                  build/extmod/moductypes.o
                                                  build/py/moduerrno.o
                                                  build/py/modsys.o
                                                  build/py/modstruct.o
                                                  build/py/modmicropython.o
                                                  build/py/modcmath.o
                                                  build/py/modmath.o
                                                  build/py/modio.o
                                                  build/py/modgc.o
                                                  build/py/modcollections.o
                                                  build/py/modbuiltins.o
                                                  build/py/modarray.o
                                                  build/py/builtinhelp.o
                                                  build/py/runtime.o
                                                  build/py/gc.o
mp_type_object                                    build/py/objobject.o
                                                  build/py/modbuiltins.o
                                                  build/py/objtype.o
mp_type_ordereddict                               build/py/objdict.o
                                                  build/extmod/moductypes.o
                                                  build/py/modcollections.o
                                                  build/py/objnamedtuple.o
mp_type_polymorph_iter                            build/py/objpolyiter.o
                                                  build/extmod/vfs.o
                                                  build/py/objtuple.o
                                                  build/py/objstrunicode.o
                                                  build/py/objstr.o
                                                  build/py/objset.o
                                                  build/py/objlist.o
mp_type_property                                  build/py/objproperty.o
                                                  build/py/modbuiltins.o
                                                  build/py/objtype.o
mp_type_range                                     build/py/objrange.o
                                                  build/py/modbuiltins.o
mp_type_reversed                                  build/py/objreversed.o
                                                  build/py/modbuiltins.o
mp_type_set                                       build/py/objset.o
                                                  build/py/modbuiltins.o
mp_type_singleton                                 build/py/objsingleton.o
mp_type_slice                                     build/py/objslice.o
                                                  build/py/modbuiltins.o
                                                  build/py/objtuple.o
                                                  build/py/objstrunicode.o
                                                  build/py/objstr.o
                                                  build/py/objrange.o
                                                  build/py/objlist.o
                                                  build/py/objarray.o
mp_type_staticmethod                              build/py/objtype.o
                                                  build/py/modbuiltins.o
                                                  build/py/objobject.o
                                                  build/py/runtime.o
mp_type_str                                       build/py/objstrunicode.o
                                                  build/msgpack.o
                                                  build/moducode.o
                                                  build/build/frozen_mpy.o
                                                  build/extmod/vfs.o
                                                  build/extmod/modujson.o
                                                  build/py/modsys.o
                                                  build/py/modbuiltins.o
                                                  build/py/stream.o
                                                  build/py/objstringio.o
                                                  build/py/objstr.o
                                                  build/py/objnamedtuple.o
                                                  build/py/objexcept.o
                                                  build/py/objcomplex.o
                                                  build/py/obj.o
                                                  build/py/map.o
                                                  build/py/persistentcode.o
                                                  build/py/parsenum.o
                                                  build/py/compile.o
                                                  build/py/parse.o
                                                  build/py/gc.o
mp_type_stringio                                  build/py/objstringio.o
                                                  build/extmod/modujson.o
                                                  build/py/modio.o
mp_type_super                                     build/py/objtype.o
                                                  build/py/modbuiltins.o
mp_type_tuple                                     build/py/objtuple.o
                                                  build/msgpack.o
                                                  build/extmod/moductypes.o
                                                  build/py/modsys.o
                                                  build/py/modbuiltins.o
                                                  build/py/objtype.o
                                                  build/py/objstr.o
                                                  build/py/objnamedtuple.o
                                                  build/py/objint.o
                                                  build/py/objexcept.o
                                                  build/py/obj.o
                                                  build/py/runtime.o
                                                  build/py/gc.o
mp_type_type                                      build/py/objtype.o
                                                  build/lib/utils/sys_stdio_mphal.o
                                                  build/openpython_vfs.o
                                                  build/moduvalue.o
                                                  build/machine.o
                                                  build/extmod/machine_signal.o
                                                  build/extmod/machine_pinbase.o
                                                  build/extmod/machine_mem.o
                                                  build/extmod/moduhashlib.o
                                                  build/extmod/modutimeq.o
                                                  build/extmod/moduzlib.o
                                                  build/extmod/modure.o
                                                  build/extmod/moductypes.o
                                                  build/py/modbuiltins.o
                                                  build/py/builtinhelp.o
                                                  build/py/builtinevex.o
                                                  build/py/objzip.o
                                                  build/py/objtuple.o
                                                  build/py/objstringio.o
                                                  build/py/objstrunicode.o
                                                  build/py/objstr.o
                                                  build/py/objslice.o
                                                  build/py/objsingleton.o
                                                  build/py/objset.o
                                                  build/py/objreversed.o
                                                  build/py/objrange.o
                                                  build/py/objnamedtuple.o
                                                  build/py/objnone.o
                                                  build/py/objproperty.o
                                                  build/py/objpolyiter.o
                                                  build/py/objobject.o
                                                  build/py/objmodule.o
                                                  build/py/objmap.o
                                                  build/py/objlist.o
                                                  build/py/objint.o
                                                  build/py/objgetitemiter.o
                                                  build/py/objgenerator.o
                                                  build/py/objfun.o
                                                  build/py/objfloat.o
                                                  build/py/objfilter.o
                                                  build/py/objexcept.o
                                                  build/py/objenumerate.o
                                                  build/py/objdict.o
                                                  build/py/objdeque.o
                                                  build/py/objcomplex.o
                                                  build/py/objclosure.o
                                                  build/py/objcell.o
                                                  build/py/objboundmeth.o
                                                  build/py/objbool.o
                                                  build/py/objattrtuple.o
                                                  build/py/objarray.o
                                                  build/py/runtime.o
mp_type_vfs_openpython_fileio                     build/openpython_vfs.o
                                                  build/py/modio.o
mp_type_vfs_openpython_textio                     build/openpython_vfs.o
                                                  build/py/modio.o
mp_type_zip                                       build/py/objzip.o
                                                  build/py/modbuiltins.o
mp_unary_op                                       build/py/runtime.o
                                                  build/py/vm.o
                                                  build/py/modsys.o
                                                  build/py/modbuiltins.o
                                                  build/py/objtype.o
                                                  build/py/objtuple.o
                                                  build/py/objset.o
                                                  build/py/objbool.o
                                                  build/py/map.o
                                                  build/py/parse.o
mp_unary_op_method_name                           build/py/objtype.o
                                                  build/py/runtime.o
mp_unpack_ex                                      build/py/runtime.o
                                                  build/py/vm.o
mp_unpack_sequence                                build/py/runtime.o
                                                  build/py/vm.o
mp_utime_sleep_ms_obj                             build/extmod/utime_mphal.o
                                                  build/modutime.o
mp_utime_sleep_obj                                build/extmod/utime_mphal.o
                                                  build/modutime.o
mp_utime_sleep_us_obj                             build/extmod/utime_mphal.o
                                                  build/modutime.o
mp_utime_ticks_add_obj                            build/extmod/utime_mphal.o
                                                  build/modutime.o
mp_utime_ticks_cpu_obj                            build/extmod/utime_mphal.o
                                                  build/modutime.o
mp_utime_ticks_diff_obj                           build/extmod/utime_mphal.o
                                                  build/modutime.o
mp_utime_ticks_ms_obj                             build/extmod/utime_mphal.o
                                                  build/modutime.o
mp_utime_ticks_us_obj                             build/extmod/utime_mphal.o
                                                  build/modutime.o
mp_vfs_chdir                                      build/extmod/vfs.o
mp_vfs_chdir_obj                                  build/extmod/vfs.o
                                                  build/moduos.o
mp_vfs_getcwd                                     build/extmod/vfs.o
mp_vfs_getcwd_obj                                 build/extmod/vfs.o
                                                  build/moduos.o
mp_vfs_ilistdir                                   build/extmod/vfs.o
mp_vfs_ilistdir_obj                               build/extmod/vfs.o
                                                  build/moduos.o
mp_vfs_import_stat                                build/extmod/vfs.o
                                                  build/py/builtinimport.o
mp_vfs_listdir                                    build/extmod/vfs.o
mp_vfs_listdir_obj                                build/extmod/vfs.o
                                                  build/moduos.o
mp_vfs_lookup_path                                build/extmod/vfs.o
mp_vfs_mkdir                                      build/extmod/vfs.o
mp_vfs_mkdir_obj                                  build/extmod/vfs.o
                                                  build/moduos.o
mp_vfs_mount                                      build/extmod/vfs.o
mp_vfs_mount_obj                                  build/extmod/vfs.o
                                                  build/moduos.o
mp_vfs_open                                       build/extmod/vfs.o
                                                  build/extmod/vfs_reader.o
                                                  build/py/modio.o
mp_vfs_open_obj                                   build/extmod/vfs.o
                                                  build/py/modio.o
                                                  build/py/modbuiltins.o
mp_vfs_openpython_file_open                       build/openpython_vfs.o
mp_vfs_remove                                     build/extmod/vfs.o
mp_vfs_remove_obj                                 build/extmod/vfs.o
                                                  build/moduos.o
mp_vfs_rename                                     build/extmod/vfs.o
mp_vfs_rename_obj                                 build/extmod/vfs.o
                                                  build/moduos.o
mp_vfs_rmdir                                      build/extmod/vfs.o
mp_vfs_rmdir_obj                                  build/extmod/vfs.o
                                                  build/moduos.o
mp_vfs_stat                                       build/extmod/vfs.o
mp_vfs_stat_obj                                   build/extmod/vfs.o
                                                  build/moduos.o
mp_vfs_statvfs                                    build/extmod/vfs.o
mp_vfs_statvfs_obj                                build/extmod/vfs.o
                                                  build/moduos.o
mp_vfs_umount                                     build/extmod/vfs.o
mp_vfs_umount_obj                                 build/extmod/vfs.o
                                                  build/moduos.o
mp_virtual_pin_read                               build/extmod/virtpin.o
                                                  build/extmod/machine_signal.o
mp_virtual_pin_write                              build/extmod/virtpin.o
                                                  build/extmod/machine_signal.o
mp_vprintf                                        build/py/mpprint.o
                                                  build/lib/utils/printf.o
                                                  build/py/objexcept.o
                                                  build/py/warning.o
                                                  build/py/vstr.o
mp_warning                                        build/py/warning.o
                                                  build/py/vm.o
                                                  build/py/obj.o
mpack_discard                                     build/lib/mpack/mpack-reader.o
                                                  build/lib/mpack/mpack-expect.o
mpack_done_array                                  build/lib/mpack/mpack-platform.o
mpack_done_bin                                    build/lib/mpack/mpack-platform.o
mpack_done_ext                                    build/lib/mpack/mpack-platform.o
mpack_done_map                                    build/lib/mpack/mpack-platform.o
mpack_done_str                                    build/lib/mpack/mpack-platform.o
mpack_done_type                                   build/lib/mpack/mpack-platform.o
mpack_error_to_string                             build/lib/mpack/mpack-common.o
mpack_expect_array                                build/lib/mpack/mpack-expect.o
mpack_expect_array_alloc_impl                     build/lib/mpack/mpack-expect.o
mpack_expect_array_match                          build/lib/mpack/mpack-expect.o
mpack_expect_array_max                            build/lib/mpack/mpack-platform.o
mpack_expect_array_max_or_nil                     build/lib/mpack/mpack-expect.o
mpack_expect_array_or_nil                         build/lib/mpack/mpack-expect.o
mpack_expect_array_range                          build/lib/mpack/mpack-expect.o
                                                  build/lib/mpack/mpack-platform.o
mpack_expect_bin                                  build/lib/mpack/mpack-expect.o
                                                  build/lib/mpack/mpack-platform.o
mpack_expect_bin_alloc                            build/lib/mpack/mpack-expect.o
mpack_expect_bin_buf                              build/lib/mpack/mpack-expect.o
mpack_expect_bin_max                              build/lib/mpack/mpack-platform.o
mpack_expect_bin_size                             build/lib/mpack/mpack-platform.o
mpack_expect_bool                                 build/lib/mpack/mpack-expect.o
mpack_expect_cstr                                 build/lib/mpack/mpack-expect.o
mpack_expect_cstr_alloc                           build/lib/mpack/mpack-expect.o
mpack_expect_cstr_match                           build/lib/mpack/mpack-platform.o
mpack_expect_double                               build/lib/mpack/mpack-expect.o
mpack_expect_double_range                         build/lib/mpack/mpack-expect.o
mpack_expect_double_strict                        build/lib/mpack/mpack-expect.o
mpack_expect_enum                                 build/lib/mpack/mpack-expect.o
mpack_expect_enum_optional                        build/lib/mpack/mpack-expect.o
mpack_expect_ext                                  build/lib/mpack/mpack-expect.o
                                                  build/lib/mpack/mpack-platform.o
mpack_expect_ext_alloc                            build/lib/mpack/mpack-expect.o
mpack_expect_ext_buf                              build/lib/mpack/mpack-expect.o
mpack_expect_ext_max                              build/lib/mpack/mpack-platform.o
mpack_expect_ext_size                             build/lib/mpack/mpack-platform.o
mpack_expect_false                                build/lib/mpack/mpack-expect.o
mpack_expect_float                                build/lib/mpack/mpack-expect.o
mpack_expect_float_range                          build/lib/mpack/mpack-expect.o
mpack_expect_float_strict                         build/lib/mpack/mpack-expect.o
mpack_expect_i16                                  build/lib/mpack/mpack-expect.o
mpack_expect_i16_max                              build/lib/mpack/mpack-platform.o
mpack_expect_i16_range                            build/lib/mpack/mpack-expect.o
                                                  build/lib/mpack/mpack-platform.o
mpack_expect_i32                                  build/lib/mpack/mpack-expect.o
                                                  build/lib/mpack/mpack-platform.o
mpack_expect_i32_max                              build/lib/mpack/mpack-platform.o
mpack_expect_i32_range                            build/lib/mpack/mpack-expect.o
                                                  build/lib/mpack/mpack-platform.o
mpack_expect_i64                                  build/lib/mpack/mpack-expect.o
mpack_expect_i64_max                              build/lib/mpack/mpack-platform.o
mpack_expect_i64_range                            build/lib/mpack/mpack-expect.o
                                                  build/lib/mpack/mpack-platform.o
mpack_expect_i8                                   build/lib/mpack/mpack-expect.o
mpack_expect_i8_max                               build/lib/mpack/mpack-platform.o
mpack_expect_i8_range                             build/lib/mpack/mpack-expect.o
                                                  build/lib/mpack/mpack-platform.o
mpack_expect_int                                  build/lib/mpack/mpack-platform.o
mpack_expect_int_match                            build/lib/mpack/mpack-expect.o
mpack_expect_int_max                              build/lib/mpack/mpack-platform.o
mpack_expect_int_range                            build/lib/mpack/mpack-platform.o
mpack_expect_key_cstr                             build/lib/mpack/mpack-expect.o
mpack_expect_key_uint                             build/lib/mpack/mpack-expect.o
mpack_expect_map                                  build/lib/mpack/mpack-expect.o
mpack_expect_map_match                            build/lib/mpack/mpack-expect.o
mpack_expect_map_max                              build/lib/mpack/mpack-platform.o
mpack_expect_map_max_or_nil                       build/lib/mpack/mpack-expect.o
mpack_expect_map_or_nil                           build/lib/mpack/mpack-expect.o
mpack_expect_map_range                            build/lib/mpack/mpack-expect.o
                                                  build/lib/mpack/mpack-platform.o
mpack_expect_nil                                  build/lib/mpack/mpack-expect.o
mpack_expect_str                                  build/lib/mpack/mpack-expect.o
                                                  build/lib/mpack/mpack-platform.o
mpack_expect_str_buf                              build/lib/mpack/mpack-expect.o
mpack_expect_str_length                           build/lib/mpack/mpack-platform.o
mpack_expect_str_match                            build/lib/mpack/mpack-expect.o
                                                  build/lib/mpack/mpack-platform.o
mpack_expect_str_max                              build/lib/mpack/mpack-platform.o
mpack_expect_tag                                  build/lib/mpack/mpack-expect.o
mpack_expect_timestamp                            build/lib/mpack/mpack-expect.o
mpack_expect_timestamp_truncate                   build/lib/mpack/mpack-expect.o
mpack_expect_true                                 build/lib/mpack/mpack-expect.o
mpack_expect_u16                                  build/lib/mpack/mpack-expect.o
mpack_expect_u16_max                              build/lib/mpack/mpack-platform.o
mpack_expect_u16_range                            build/lib/mpack/mpack-expect.o
                                                  build/lib/mpack/mpack-platform.o
mpack_expect_u32                                  build/lib/mpack/mpack-expect.o
                                                  build/lib/mpack/mpack-platform.o
mpack_expect_u32_max                              build/lib/mpack/mpack-platform.o
mpack_expect_u32_range                            build/lib/mpack/mpack-expect.o
                                                  build/lib/mpack/mpack-platform.o
mpack_expect_u64                                  build/lib/mpack/mpack-expect.o
mpack_expect_u64_max                              build/lib/mpack/mpack-platform.o
mpack_expect_u64_range                            build/lib/mpack/mpack-expect.o
                                                  build/lib/mpack/mpack-platform.o
mpack_expect_u8                                   build/lib/mpack/mpack-expect.o
mpack_expect_u8_max                               build/lib/mpack/mpack-platform.o
mpack_expect_u8_range                             build/lib/mpack/mpack-expect.o
                                                  build/lib/mpack/mpack-platform.o
mpack_expect_uint                                 build/lib/mpack/mpack-platform.o
mpack_expect_uint_match                           build/lib/mpack/mpack-expect.o
mpack_expect_uint_max                             build/lib/mpack/mpack-platform.o
mpack_expect_uint_range                           build/lib/mpack/mpack-platform.o
mpack_expect_utf8                                 build/lib/mpack/mpack-expect.o
mpack_expect_utf8_cstr                            build/lib/mpack/mpack-expect.o
mpack_expect_utf8_cstr_alloc                      build/lib/mpack/mpack-expect.o
mpack_finish_array                                build/lib/mpack/mpack-platform.o
mpack_finish_bin                                  build/lib/mpack/mpack-platform.o
mpack_finish_ext                                  build/lib/mpack/mpack-platform.o
mpack_finish_map                                  build/lib/mpack/mpack-platform.o
mpack_finish_str                                  build/lib/mpack/mpack-platform.o
mpack_finish_type                                 build/lib/mpack/mpack-platform.o
mpack_load_double                                 build/lib/mpack/mpack-platform.o
mpack_load_float                                  build/lib/mpack/mpack-platform.o
mpack_load_i16                                    build/lib/mpack/mpack-platform.o
mpack_load_i32                                    build/lib/mpack/mpack-platform.o
mpack_load_i64                                    build/lib/mpack/mpack-platform.o
mpack_load_i8                                     build/lib/mpack/mpack-platform.o
mpack_load_u16                                    build/lib/mpack/mpack-platform.o
mpack_load_u32                                    build/lib/mpack/mpack-platform.o
mpack_load_u64                                    build/lib/mpack/mpack-platform.o
mpack_load_u8                                     build/lib/mpack/mpack-platform.o
mpack_memmove                                     build/lib/mpack/mpack-platform.o
                                                  build/lib/mpack/mpack-reader.o
                                                  build/lib/mpack/mpack-node.o
mpack_node                                        build/lib/mpack/mpack-platform.o
mpack_node_array_at                               build/lib/mpack/mpack-node.o
mpack_node_array_length                           build/lib/mpack/mpack-node.o
mpack_node_bin_data                               build/lib/mpack/mpack-node.o
mpack_node_bin_size                               build/lib/mpack/mpack-node.o
mpack_node_bool                                   build/lib/mpack/mpack-node.o
mpack_node_check_utf8                             build/lib/mpack/mpack-node.o
mpack_node_check_utf8_cstr                        build/lib/mpack/mpack-node.o
mpack_node_child                                  build/lib/mpack/mpack-platform.o
mpack_node_copy_cstr                              build/lib/mpack/mpack-node.o
mpack_node_copy_data                              build/lib/mpack/mpack-node.o
mpack_node_copy_utf8                              build/lib/mpack/mpack-node.o
mpack_node_copy_utf8_cstr                         build/lib/mpack/mpack-node.o
mpack_node_cstr_alloc                             build/lib/mpack/mpack-node.o
mpack_node_data                                   build/lib/mpack/mpack-node.o
mpack_node_data_alloc                             build/lib/mpack/mpack-node.o
mpack_node_data_len                               build/lib/mpack/mpack-node.o
mpack_node_double                                 build/lib/mpack/mpack-node.o
mpack_node_double_strict                          build/lib/mpack/mpack-node.o
mpack_node_enum                                   build/lib/mpack/mpack-node.o
mpack_node_enum_optional                          build/lib/mpack/mpack-node.o
mpack_node_error                                  build/lib/mpack/mpack-platform.o
mpack_node_exttype                                build/lib/mpack/mpack-node.o
mpack_node_false                                  build/lib/mpack/mpack-node.o
mpack_node_flag_error                             build/lib/mpack/mpack-node.o
mpack_node_float                                  build/lib/mpack/mpack-node.o
mpack_node_float_strict                           build/lib/mpack/mpack-node.o
mpack_node_i16                                    build/lib/mpack/mpack-node.o
mpack_node_i32                                    build/lib/mpack/mpack-node.o
mpack_node_i64                                    build/lib/mpack/mpack-node.o
mpack_node_i8                                     build/lib/mpack/mpack-node.o
mpack_node_int                                    build/lib/mpack/mpack-node.o
mpack_node_is_missing                             build/lib/mpack/mpack-node.o
mpack_node_is_nil                                 build/lib/mpack/mpack-node.o
mpack_node_map_contains_cstr                      build/lib/mpack/mpack-node.o
mpack_node_map_contains_int                       build/lib/mpack/mpack-node.o
mpack_node_map_contains_str                       build/lib/mpack/mpack-node.o
mpack_node_map_contains_uint                      build/lib/mpack/mpack-node.o
mpack_node_map_count                              build/lib/mpack/mpack-node.o
mpack_node_map_cstr                               build/lib/mpack/mpack-node.o
mpack_node_map_cstr_optional                      build/lib/mpack/mpack-node.o
mpack_node_map_int                                build/lib/mpack/mpack-node.o
mpack_node_map_int_optional                       build/lib/mpack/mpack-node.o
mpack_node_map_key_at                             build/lib/mpack/mpack-node.o
mpack_node_map_str                                build/lib/mpack/mpack-node.o
mpack_node_map_str_optional                       build/lib/mpack/mpack-node.o
mpack_node_map_uint                               build/lib/mpack/mpack-node.o
mpack_node_map_uint_optional                      build/lib/mpack/mpack-node.o
mpack_node_map_value_at                           build/lib/mpack/mpack-node.o
mpack_node_missing                                build/lib/mpack/mpack-node.o
mpack_node_nil                                    build/lib/mpack/mpack-node.o
mpack_node_str                                    build/lib/mpack/mpack-node.o
mpack_node_strlen                                 build/lib/mpack/mpack-node.o
mpack_node_tag                                    build/lib/mpack/mpack-node.o
mpack_node_timestamp                              build/lib/mpack/mpack-node.o
mpack_node_timestamp_nanoseconds                  build/lib/mpack/mpack-node.o
mpack_node_timestamp_seconds                      build/lib/mpack/mpack-node.o
mpack_node_true                                   build/lib/mpack/mpack-node.o
mpack_node_type                                   build/lib/mpack/mpack-node.o
mpack_node_u16                                    build/lib/mpack/mpack-node.o
mpack_node_u32                                    build/lib/mpack/mpack-node.o
mpack_node_u64                                    build/lib/mpack/mpack-node.o
mpack_node_u8                                     build/lib/mpack/mpack-node.o
mpack_node_uint                                   build/lib/mpack/mpack-node.o
mpack_node_utf8_cstr_alloc                        build/lib/mpack/mpack-node.o
mpack_peek_tag                                    build/lib/mpack/mpack-reader.o
                                                  build/lib/mpack/mpack-expect.o
mpack_read_bytes                                  build/lib/mpack/mpack-reader.o
                                                  build/lib/mpack/mpack-expect.o
mpack_read_bytes_alloc                            build/lib/mpack/mpack-platform.o
mpack_read_bytes_alloc_impl                       build/lib/mpack/mpack-reader.o
                                                  build/lib/mpack/mpack-platform.o
                                                  build/lib/mpack/mpack-expect.o
mpack_read_bytes_inplace                          build/lib/mpack/mpack-reader.o
                                                  build/lib/mpack/mpack-expect.o
                                                  build/msgpack.o
mpack_read_cstr                                   build/lib/mpack/mpack-reader.o
                                                  build/lib/mpack/mpack-expect.o
mpack_read_native                                 build/lib/mpack/mpack-platform.o
mpack_read_native_straddle                        build/lib/mpack/mpack-reader.o
                                                  build/lib/mpack/mpack-platform.o
mpack_read_tag                                    build/lib/mpack/mpack-reader.o
                                                  build/lib/mpack/mpack-expect.o
                                                  build/msgpack.o
mpack_read_timestamp                              build/lib/mpack/mpack-reader.o
                                                  build/lib/mpack/mpack-expect.o
mpack_read_utf8                                   build/lib/mpack/mpack-reader.o
mpack_read_utf8_cstr                              build/lib/mpack/mpack-reader.o
                                                  build/lib/mpack/mpack-expect.o
mpack_read_utf8_inplace                           build/lib/mpack/mpack-reader.o
                                                  build/msgpack.o
mpack_reader_destroy                              build/lib/mpack/mpack-reader.o
mpack_reader_ensure                               build/lib/mpack/mpack-platform.o
mpack_reader_ensure_straddle                      build/lib/mpack/mpack-reader.o
                                                  build/lib/mpack/mpack-platform.o
                                                  build/lib/mpack/mpack-expect.o
mpack_reader_error                                build/lib/mpack/mpack-platform.o
mpack_reader_flag_error                           build/lib/mpack/mpack-reader.o
                                                  build/lib/mpack/mpack-platform.o
                                                  build/lib/mpack/mpack-expect.o
mpack_reader_flag_if_error                        build/lib/mpack/mpack-platform.o
mpack_reader_init                                 build/lib/mpack/mpack-reader.o
mpack_reader_init_data                            build/lib/mpack/mpack-reader.o
                                                  build/msgpack.o
mpack_reader_init_error                           build/lib/mpack/mpack-reader.o
mpack_reader_remaining                            build/lib/mpack/mpack-reader.o
                                                  build/msgpack.o
mpack_reader_set_context                          build/lib/mpack/mpack-platform.o
mpack_reader_set_error_handler                    build/lib/mpack/mpack-platform.o
mpack_reader_set_fill                             build/lib/mpack/mpack-reader.o
mpack_reader_set_skip                             build/lib/mpack/mpack-reader.o
mpack_reader_set_teardown                         build/lib/mpack/mpack-platform.o
mpack_reader_track_bytes                          build/lib/mpack/mpack-platform.o
mpack_reader_track_element                        build/lib/mpack/mpack-platform.o
mpack_reader_track_peek_element                   build/lib/mpack/mpack-platform.o
mpack_reader_track_str_bytes_all                  build/lib/mpack/mpack-platform.o
mpack_realloc                                     build/lib/mpack/mpack-platform.o
mpack_should_read_bytes_inplace                   build/lib/mpack/mpack-platform.o
mpack_skip_bytes                                  build/lib/mpack/mpack-reader.o
mpack_start_array                                 build/lib/mpack/mpack-writer.o
                                                  build/msgpack.o
mpack_start_bin                                   build/lib/mpack/mpack-writer.o
mpack_start_ext                                   build/lib/mpack/mpack-writer.o
mpack_start_map                                   build/lib/mpack/mpack-writer.o
                                                  build/msgpack.o
mpack_start_str                                   build/lib/mpack/mpack-writer.o
mpack_store_double                                build/lib/mpack/mpack-platform.o
mpack_store_float                                 build/lib/mpack/mpack-platform.o
mpack_store_i16                                   build/lib/mpack/mpack-platform.o
mpack_store_i32                                   build/lib/mpack/mpack-platform.o
mpack_store_i64                                   build/lib/mpack/mpack-platform.o
mpack_store_i8                                    build/lib/mpack/mpack-platform.o
mpack_store_u16                                   build/lib/mpack/mpack-platform.o
mpack_store_u32                                   build/lib/mpack/mpack-platform.o
mpack_store_u64                                   build/lib/mpack/mpack-platform.o
mpack_store_u8                                    build/lib/mpack/mpack-platform.o
mpack_str_check_no_null                           build/lib/mpack/mpack-common.o
                                                  build/lib/mpack/mpack-reader.o
                                                  build/lib/mpack/mpack-node.o
                                                  build/lib/mpack/mpack-expect.o
mpack_tag_array                                   build/lib/mpack/mpack-platform.o
mpack_tag_array_count                             build/lib/mpack/mpack-platform.o
mpack_tag_bin                                     build/lib/mpack/mpack-platform.o
mpack_tag_bin_length                              build/lib/mpack/mpack-platform.o
mpack_tag_bool                                    build/lib/mpack/mpack-platform.o
mpack_tag_bool_value                              build/lib/mpack/mpack-platform.o
mpack_tag_bytes                                   build/lib/mpack/mpack-platform.o
mpack_tag_cmp                                     build/lib/mpack/mpack-common.o
                                                  build/lib/mpack/mpack-platform.o
                                                  build/lib/mpack/mpack-expect.o
mpack_tag_double                                  build/lib/mpack/mpack-platform.o
mpack_tag_double_value                            build/lib/mpack/mpack-platform.o
mpack_tag_equal                                   build/lib/mpack/mpack-platform.o
mpack_tag_ext                                     build/lib/mpack/mpack-platform.o
mpack_tag_ext_exttype                             build/lib/mpack/mpack-platform.o
mpack_tag_ext_length                              build/lib/mpack/mpack-platform.o
mpack_tag_false                                   build/lib/mpack/mpack-platform.o
mpack_tag_float                                   build/lib/mpack/mpack-platform.o
mpack_tag_float_value                             build/lib/mpack/mpack-platform.o
mpack_tag_int                                     build/lib/mpack/mpack-platform.o
mpack_tag_int_value                               build/lib/mpack/mpack-platform.o
mpack_tag_make_array                              build/lib/mpack/mpack-platform.o
mpack_tag_make_bin                                build/lib/mpack/mpack-platform.o
mpack_tag_make_bool                               build/lib/mpack/mpack-platform.o
mpack_tag_make_double                             build/lib/mpack/mpack-platform.o
mpack_tag_make_ext                                build/lib/mpack/mpack-platform.o
mpack_tag_make_false                              build/lib/mpack/mpack-platform.o
mpack_tag_make_float                              build/lib/mpack/mpack-platform.o
mpack_tag_make_int                                build/lib/mpack/mpack-platform.o
mpack_tag_make_map                                build/lib/mpack/mpack-platform.o
mpack_tag_make_nil                                build/lib/mpack/mpack-platform.o
mpack_tag_make_str                                build/lib/mpack/mpack-platform.o
mpack_tag_make_true                               build/lib/mpack/mpack-platform.o
mpack_tag_make_uint                               build/lib/mpack/mpack-platform.o
mpack_tag_map                                     build/lib/mpack/mpack-platform.o
mpack_tag_map_count                               build/lib/mpack/mpack-platform.o
mpack_tag_nil                                     build/lib/mpack/mpack-platform.o
mpack_tag_str                                     build/lib/mpack/mpack-platform.o
mpack_tag_str_length                              build/lib/mpack/mpack-platform.o
mpack_tag_true                                    build/lib/mpack/mpack-platform.o
mpack_tag_type                                    build/lib/mpack/mpack-platform.o
mpack_tag_uint                                    build/lib/mpack/mpack-platform.o
mpack_tag_uint_value                              build/lib/mpack/mpack-platform.o
mpack_tree_destroy                                build/lib/mpack/mpack-node.o
mpack_tree_error                                  build/lib/mpack/mpack-platform.o
mpack_tree_flag_error                             build/lib/mpack/mpack-node.o
mpack_tree_init                                   build/lib/mpack/mpack-node.o
mpack_tree_init_error                             build/lib/mpack/mpack-node.o
mpack_tree_init_pool                              build/lib/mpack/mpack-node.o
mpack_tree_init_stream                            build/lib/mpack/mpack-node.o
mpack_tree_missing_node                           build/lib/mpack/mpack-platform.o
mpack_tree_nil_node                               build/lib/mpack/mpack-platform.o
mpack_tree_parse                                  build/lib/mpack/mpack-node.o
mpack_tree_root                                   build/lib/mpack/mpack-node.o
mpack_tree_set_context                            build/lib/mpack/mpack-platform.o
mpack_tree_set_error_handler                      build/lib/mpack/mpack-platform.o
mpack_tree_set_teardown                           build/lib/mpack/mpack-platform.o
mpack_tree_size                                   build/lib/mpack/mpack-platform.o
mpack_tree_try_parse                              build/lib/mpack/mpack-node.o
mpack_type_to_string                              build/lib/mpack/mpack-common.o
mpack_utf8_check                                  build/lib/mpack/mpack-common.o
                                                  build/lib/mpack/mpack-writer.o
                                                  build/lib/mpack/mpack-reader.o
                                                  build/lib/mpack/mpack-node.o
                                                  build/lib/mpack/mpack-expect.o
mpack_utf8_check_no_null                          build/lib/mpack/mpack-common.o
                                                  build/lib/mpack/mpack-reader.o
                                                  build/lib/mpack/mpack-node.o
                                                  build/lib/mpack/mpack-expect.o
mpack_write_bin                                   build/lib/mpack/mpack-writer.o
                                                  build/msgpack.o
mpack_write_bool                                  build/lib/mpack/mpack-writer.o
                                                  build/msgpack.o
mpack_write_bytes                                 build/lib/mpack/mpack-writer.o
mpack_write_cstr                                  build/lib/mpack/mpack-writer.o
mpack_write_cstr_or_nil                           build/lib/mpack/mpack-writer.o
mpack_write_double                                build/lib/mpack/mpack-writer.o
mpack_write_ext                                   build/lib/mpack/mpack-writer.o
                                                  build/msgpack.o
mpack_write_false                                 build/lib/mpack/mpack-writer.o
mpack_write_float                                 build/lib/mpack/mpack-writer.o
                                                  build/msgpack.o
mpack_write_i16                                   build/lib/mpack/mpack-writer.o
mpack_write_i32                                   build/lib/mpack/mpack-writer.o
mpack_write_i64                                   build/lib/mpack/mpack-writer.o
                                                  build/lib/mpack/mpack-platform.o
                                                  build/msgpack.o
mpack_write_i8                                    build/lib/mpack/mpack-writer.o
mpack_write_int                                   build/lib/mpack/mpack-platform.o
mpack_write_nil                                   build/lib/mpack/mpack-writer.o
                                                  build/msgpack.o
mpack_write_object_bytes                          build/lib/mpack/mpack-writer.o
mpack_write_str                                   build/lib/mpack/mpack-writer.o
                                                  build/msgpack.o
mpack_write_tag                                   build/lib/mpack/mpack-writer.o
mpack_write_timestamp                             build/lib/mpack/mpack-writer.o
                                                  build/lib/mpack/mpack-platform.o
mpack_write_timestamp_seconds                     build/lib/mpack/mpack-platform.o
mpack_write_timestamp_struct                      build/lib/mpack/mpack-platform.o
mpack_write_true                                  build/lib/mpack/mpack-writer.o
mpack_write_u16                                   build/lib/mpack/mpack-writer.o
mpack_write_u32                                   build/lib/mpack/mpack-writer.o
mpack_write_u64                                   build/lib/mpack/mpack-writer.o
                                                  build/lib/mpack/mpack-platform.o
mpack_write_u8                                    build/lib/mpack/mpack-writer.o
mpack_write_uint                                  build/lib/mpack/mpack-platform.o
mpack_write_utf8                                  build/lib/mpack/mpack-writer.o
mpack_write_utf8_cstr                             build/lib/mpack/mpack-writer.o
mpack_write_utf8_cstr_or_nil                      build/lib/mpack/mpack-writer.o
mpack_writer_buffer_left                          build/lib/mpack/mpack-platform.o
mpack_writer_buffer_size                          build/lib/mpack/mpack-platform.o
mpack_writer_buffer_used                          build/lib/mpack/mpack-platform.o
mpack_writer_destroy                              build/lib/mpack/mpack-writer.o
                                                  build/msgpack.o
mpack_writer_error                                build/lib/mpack/mpack-platform.o
mpack_writer_flag_error                           build/lib/mpack/mpack-writer.o
mpack_writer_flush_message                        build/lib/mpack/mpack-writer.o
mpack_writer_init                                 build/lib/mpack/mpack-writer.o
mpack_writer_init_error                           build/lib/mpack/mpack-writer.o
mpack_writer_init_growable                        build/lib/mpack/mpack-writer.o
                                                  build/msgpack.o
mpack_writer_set_context                          build/lib/mpack/mpack-platform.o
mpack_writer_set_error_handler                    build/lib/mpack/mpack-platform.o
mpack_writer_set_flush                            build/lib/mpack/mpack-writer.o
mpack_writer_set_teardown                         build/lib/mpack/mpack-platform.o
mpack_writer_track_bytes                          build/lib/mpack/mpack-platform.o
mpack_writer_track_element                        build/lib/mpack/mpack-platform.o
mpack_writer_track_pop                            build/lib/mpack/mpack-platform.o
mpack_writer_track_push                           build/lib/mpack/mpack-platform.o
mpz_abs_inpl                                      build/py/mpz.o
                                                  build/py/objint_mpz.o
mpz_add_inpl                                      build/py/mpz.o
                                                  build/py/objint_mpz.o
mpz_and_inpl                                      build/py/mpz.o
                                                  build/py/objint_mpz.o
mpz_as_bytes                                      build/py/mpz.o
                                                  build/py/objint_mpz.o
mpz_as_float                                      build/py/mpz.o
                                                  build/py/objint_mpz.o
mpz_as_int_checked                                build/py/mpz.o
                                                  build/py/objint_mpz.o
mpz_as_str_inpl                                   build/py/mpz.o
                                                  build/py/objint_mpz.o
mpz_as_uint_checked                               build/py/mpz.o
mpz_cmp                                           build/py/mpz.o
                                                  build/py/objint_mpz.o
mpz_deinit                                        build/py/mpz.o
                                                  build/py/objint_mpz.o
mpz_divmod_inpl                                   build/py/mpz.o
                                                  build/py/objint_mpz.o
mpz_hash                                          build/py/mpz.o
                                                  build/py/objint_mpz.o
mpz_init_fixed_from_int                           build/py/mpz.o
                                                  build/py/objint_mpz.o
mpz_init_from_int                                 build/py/mpz.o
                                                  build/py/objint_mpz.o
mpz_init_zero                                     build/py/mpz.o
                                                  build/py/objint_mpz.o
mpz_mul_inpl                                      build/py/mpz.o
                                                  build/py/objint_mpz.o
mpz_neg_inpl                                      build/py/mpz.o
                                                  build/py/objint_mpz.o
mpz_not_inpl                                      build/py/mpz.o
                                                  build/py/objint_mpz.o
mpz_or_inpl                                       build/py/mpz.o
                                                  build/py/objint_mpz.o
mpz_pow3_inpl                                     build/py/mpz.o
                                                  build/py/objint_mpz.o
mpz_pow_inpl                                      build/py/mpz.o
                                                  build/py/objint_mpz.o
mpz_set                                           build/py/mpz.o
mpz_set_from_bytes                                build/py/mpz.o
                                                  build/py/objint_mpz.o
mpz_set_from_float                                build/py/mpz.o
                                                  build/py/objint.o
mpz_set_from_int                                  build/py/mpz.o
mpz_set_from_ll                                   build/py/mpz.o
                                                  build/py/objint_mpz.o
mpz_set_from_str                                  build/py/mpz.o
                                                  build/py/objint_mpz.o
mpz_shl_inpl                                      build/py/mpz.o
                                                  build/py/objint_mpz.o
mpz_shr_inpl                                      build/py/mpz.o
                                                  build/py/objint_mpz.o
mpz_sub_inpl                                      build/py/mpz.o
                                                  build/py/objint_mpz.o
mpz_xor_inpl                                      build/py/mpz.o
                                                  build/py/objint_mpz.o
msgpack_args_dumps                                build/msgpack.o
                                                  build/moduvalue.o
                                                  build/moducomputer.o
                                                  build/moducomponent.o
msgpack_dump                                      build/msgpack.o
msgpack_dump_close                                build/msgpack.o
msgpack_dump_new                                  build/msgpack.o
msgpack_dumps                                     build/msgpack.o
                                                  build/moduvalue.o
                                                  build/modumsgpack.o
msgpack_load                                      build/msgpack.o
msgpack_load_new                                  build/msgpack.o
msgpack_loads                                     build/msgpack.o
                                                  build/syscall.o
                                                  build/modumsgpack.o
namedtuple_asdict_obj                             build/py/objnamedtuple.o
nearbyintf                                        build/lib/libm/nearbyintf.o
                                                  build/py/modbuiltins.o
nlr_jump                                          build/py/nlrthumb.o
                                                  build/syscall.o
                                                  build/openpython_vfs.o
                                                  build/moducode.o
                                                  build/extmod/modurandom.o
                                                  build/extmod/machine_mem.o
                                                  build/extmod/modutimeq.o
                                                  build/extmod/moduheapq.o
                                                  build/extmod/moduzlib.o
                                                  build/extmod/modure.o
                                                  build/extmod/moductypes.o
                                                  build/py/bc.o
                                                  build/py/modsys.o
                                                  build/py/modbuiltins.o
                                                  build/py/builtinevex.o
                                                  build/py/builtinimport.o
                                                  build/py/objtype.o
                                                  build/py/objstrunicode.o
                                                  build/py/objstr.o
                                                  build/py/objset.o
                                                  build/py/objnamedtuple.o
                                                  build/py/objint.o
                                                  build/py/objgetitemiter.o
                                                  build/py/objgenerator.o
                                                  build/py/objfun.o
                                                  build/py/objdict.o
                                                  build/py/obj.o
                                                  build/py/argcheck.o
                                                  build/py/scheduler.o
                                                  build/py/runtime.o
                                                  build/py/parsenum.o
                                                  build/py/compile.o
                                                  build/py/parse.o
                                                  build/py/pystack.o
nlr_jump_fail                                     build/machine.o
                                                  build/py/nlrthumb.o
nlr_pop                                           build/py/nlr.o
                                                  build/lib/utils/pyexec.o
                                                  build/moducode.o
                                                  build/machine.o
                                                  build/main.o
                                                  build/extmod/vfs.o
                                                  build/py/vm.o
                                                  build/py/builtinevex.o
                                                  build/py/builtinimport.o
                                                  build/py/objgetitemiter.o
                                                  build/py/runtime_utils.o
                                                  build/py/runtime.o
nlr_push                                          build/py/nlrthumb.o
                                                  build/lib/utils/pyexec.o
                                                  build/moducode.o
                                                  build/machine.o
                                                  build/main.o
                                                  build/extmod/vfs.o
                                                  build/py/vm.o
                                                  build/py/builtinevex.o
                                                  build/py/builtinimport.o
                                                  build/py/objgetitemiter.o
                                                  build/py/runtime_utils.o
                                                  build/py/runtime.o
nlr_push_tail                                     build/py/nlr.o
                                                  build/py/nlrthumb.o
oc_create_value                                   build/moduvalue.o
                                                  build/msgpack.o
openpython_help_text                              build/help.o
                                                  build/py/builtinhelp.o
pinbase_ioctl                                     build/extmod/machine_pinbase.o
powf                                              build/lib/libm/math.o
                                                  build/py/modcmath.o
                                                  build/py/modmath.o
                                                  build/py/modbuiltins.o
                                                  build/py/objfloat.o
                                                  build/py/parsenum.o
printf                                            build/lib/utils/printf.o
                                                  build/lib/utils/pyexec.o
                                                  build/extmod/modure.o
putchar                                           build/lib/utils/printf.o
                                                  build/extmod/modure.o
puts                                              build/lib/utils/printf.o
                                                  build/extmod/modure.o
pyb_set_repl_info                                 build/lib/utils/pyexec.o
pyb_set_repl_info_obj                             build/lib/utils/pyexec.o
pyexec_file                                       build/lib/utils/pyexec.o
pyexec_friendly_repl                              build/lib/utils/pyexec.o
                                                  build/main.o
pyexec_frozen_module                              build/lib/utils/pyexec.o
pyexec_mode_kind                                  build/lib/utils/pyexec.o
                                                  build/main.o
pyexec_raw_repl                                   build/lib/utils/pyexec.o
                                                  build/main.o
pyexec_system_exit                                build/lib/utils/pyexec.o
qstr_compute_hash                                 build/py/qstr.o
                                                  build/py/objstr.o
                                                  build/py/objexcept.o
                                                  build/py/runtime.o
qstr_data                                         build/py/qstr.o
                                                  build/py/repl.o
                                                  build/py/objstrunicode.o
                                                  build/py/objstr.o
                                                  build/py/runtime.o
                                                  build/py/compile.o
                                                  build/py/mpprint.o
qstr_dump_data                                    build/py/qstr.o
                                                  build/py/modmicropython.o
qstr_find_strn                                    build/py/qstr.o
                                                  build/py/repl.o
                                                  build/py/objstr.o
                                                  build/py/parse.o
qstr_from_str                                     build/py/qstr.o
                                                  build/py/lexer.o
qstr_from_strn                                    build/py/qstr.o
                                                  build/moduimp.o
                                                  build/py/frozenmod.o
                                                  build/py/builtinimport.o
                                                  build/py/objstr.o
                                                  build/py/runtime.o
                                                  build/py/persistentcode.o
                                                  build/py/compile.o
                                                  build/py/parse.o
qstr_hash                                         build/py/qstr.o
                                                  build/py/objstr.o
                                                  build/py/map.o
                                                  build/py/runtime.o
qstr_init                                         build/py/qstr.o
                                                  build/py/runtime.o
qstr_len                                          build/py/qstr.o
                                                  build/py/objstr.o
                                                  build/py/runtime.o
                                                  build/py/compile.o
qstr_pool_info                                    build/py/qstr.o
                                                  build/lib/utils/pyexec.o
                                                  build/py/modmicropython.o
qstr_str                                          build/py/qstr.o
                                                  build/py/builtinimport.o
                                                  build/py/objtype.o
                                                  build/py/objexcept.o
                                                  build/py/obj.o
                                                  build/py/runtime.o
                                                  build/py/parse.o
raw_code_bios__lt_module_gt_                      build/build/frozen_mpy.o
re1_5_compilecode                                 build/extmod/modure.o
re1_5_dumpcode                                    build/extmod/modure.o
re1_5_recursiveloopprog                           build/extmod/modure.o
re1_5_sizecode                                    build/extmod/modure.o
re_match_obj                                      build/extmod/modure.o
re_search_obj                                     build/extmod/modure.o
re_split_obj                                      build/extmod/modure.o
re_sub_obj                                        build/extmod/modure.o
readline                                          build/lib/mp-readline/readline.o
                                                  build/lib/utils/pyexec.o
                                                  build/moducode.o
readline_init                                     build/lib/mp-readline/readline.o
readline_init0                                    build/lib/mp-readline/readline.o
readline_note_newline                             build/lib/mp-readline/readline.o
readline_process_char                             build/lib/mp-readline/readline.o
readline_push_history                             build/lib/mp-readline/readline.o
scalbnf                                           build/lib/libm/math.o
                                                  build/lib/libm/sf_ldexp.o
                                                  build/lib/libm/kf_rem_pio2.o
scope_find                                        build/py/scope.o
                                                  build/py/emitcommon.o
                                                  build/py/compile.o
scope_find_global                                 build/py/scope.o
                                                  build/py/compile.o
scope_find_local_and_close_over                   build/py/scope.o
                                                  build/py/emitcommon.o
                                                  build/py/compile.o
scope_find_or_add_id                              build/py/scope.o
                                                  build/py/emitcommon.o
                                                  build/py/compile.o
scope_free                                        build/py/scope.o
                                                  build/py/compile.o
scope_new                                         build/py/scope.o
                                                  build/py/compile.o
sha256_final                                      build/extmod/moduhashlib.o
sha256_init                                       build/extmod/moduhashlib.o
sha256_update                                     build/extmod/moduhashlib.o
sinf                                              build/lib/libm/sf_sin.o
                                                  build/py/modcmath.o
                                                  build/py/modmath.o
                                                  build/py/objcomplex.o
sinhf                                             build/lib/libm/math.o
                                                  build/py/modcmath.o
                                                  build/py/modmath.o
snprintf                                          build/lib/utils/printf.o
                                                  build/lib/mp-readline/readline.o
sqrtf                                             build/lib/libm/ef_sqrt.o
                                                  build/lib/libm/asinhf.o
                                                  build/lib/libm/asinfacosf.o
                                                  build/lib/libm/acoshf.o
                                                  build/lib/libm/math.o
                                                  build/py/modcmath.o
                                                  build/py/modmath.o
                                                  build/py/objcomplex.o
startup_vector                                    build/machine.o
stdio_obj_print                                   build/lib/utils/sys_stdio_mphal.o
stpcpy                                            build/lib/libc/string0.o
str_center_obj                                    build/py/objstr.o
                                                  build/py/objstrunicode.o
str_count_obj                                     build/py/objstr.o
                                                  build/py/objstrunicode.o
str_encode_obj                                    build/py/objstr.o
                                                  build/py/objstrunicode.o
str_endswith_obj                                  build/py/objstr.o
                                                  build/py/objstrunicode.o
str_find_obj                                      build/py/objstr.o
                                                  build/py/objstrunicode.o
str_format_obj                                    build/py/objstr.o
                                                  build/py/objstrunicode.o
str_index_obj                                     build/py/objstr.o
                                                  build/py/objstrunicode.o
str_index_to_ptr                                  build/py/objstrunicode.o
                                                  build/py/objstr.o
str_isalpha_obj                                   build/py/objstr.o
                                                  build/py/objstrunicode.o
str_isdigit_obj                                   build/py/objstr.o
                                                  build/py/objstrunicode.o
str_islower_obj                                   build/py/objstr.o
                                                  build/py/objstrunicode.o
str_isspace_obj                                   build/py/objstr.o
                                                  build/py/objstrunicode.o
str_isupper_obj                                   build/py/objstr.o
                                                  build/py/objstrunicode.o
str_join_obj                                      build/py/objstr.o
                                                  build/py/objstrunicode.o
str_lower_obj                                     build/py/objstr.o
                                                  build/py/objstrunicode.o
str_lstrip_obj                                    build/py/objstr.o
                                                  build/py/objstrunicode.o
str_partition_obj                                 build/py/objstr.o
                                                  build/py/objstrunicode.o
str_replace_obj                                   build/py/objstr.o
                                                  build/py/objstrunicode.o
str_rfind_obj                                     build/py/objstr.o
                                                  build/py/objstrunicode.o
str_rindex_obj                                    build/py/objstr.o
                                                  build/py/objstrunicode.o
str_rpartition_obj                                build/py/objstr.o
                                                  build/py/objstrunicode.o
str_rsplit_obj                                    build/py/objstr.o
                                                  build/py/objstrunicode.o
str_rstrip_obj                                    build/py/objstr.o
                                                  build/py/objstrunicode.o
str_split_obj                                     build/py/objstr.o
                                                  build/py/objstrunicode.o
str_splitlines_obj                                build/py/objstr.o
                                                  build/py/objstrunicode.o
str_startswith_obj                                build/py/objstr.o
                                                  build/py/objstrunicode.o
str_strip_obj                                     build/py/objstr.o
                                                  build/py/objstrunicode.o
str_upper_obj                                     build/py/objstr.o
                                                  build/py/objstrunicode.o
strcat                                            build/lib/libc/string0.o
strchr                                            build/lib/libc/string0.o
                                                  build/py/builtinimport.o
                                                  build/py/objstr.o
                                                  build/py/objfloat.o
strcmp                                            build/lib/libc/string0.o
                                                  build/lib/mp-readline/readline.o
                                                  build/extmod/vfs.o
                                                  build/py/lexer.o
strcpy                                            build/lib/libc/string0.o
strlen                                            build/lib/libc/string0.o
                                                  build/lib/mp-readline/readline.o
                                                  build/lib/utils/pyexec.o
                                                  build/lib/mpack/mpack-writer.o
                                                  build/lib/mpack/mpack-platform.o
                                                  build/lib/mpack/mpack-node.o
                                                  build/lib/mpack/mpack-expect.o
                                                  build/mphalport.o
                                                  build/machine.o
                                                  build/main.o
                                                  build/lib/utils/printf.o
                                                  build/extmod/vfs_reader.o
                                                  build/extmod/vfs.o
                                                  build/py/frozenmod.o
                                                  build/py/builtinhelp.o
                                                  build/py/binary.o
                                                  build/py/objint.o
                                                  build/py/objexcept.o
                                                  build/py/mpz.o
                                                  build/py/mpprint.o
                                                  build/py/vstr.o
                                                  build/py/qstr.o
strncmp                                           build/lib/libc/string0.o
                                                  build/extmod/vfs.o
                                                  build/py/repl.o
strstr                                            build/lib/libc/string0.o
struct_calcsize_obj                               build/py/modstruct.o
struct_pack_into_obj                              build/py/modstruct.o
struct_pack_obj                                   build/py/modstruct.o
struct_unpack_from_obj                            build/py/modstruct.o
tanf                                              build/lib/libm/sf_tan.o
                                                  build/py/modmath.o
tanhf                                             build/lib/libm/math.o
                                                  build/py/modmath.o
tgammaf                                           build/lib/libm/wf_tgamma.o
                                                  build/py/modmath.o
tinf_get_be_uint32                                build/extmod/moduzlib.o
tinf_get_le_uint32                                build/extmod/moduzlib.o
tinf_get_uint16                                   build/extmod/moduzlib.o
tinf_skip_bytes                                   build/extmod/moduzlib.o
truncf                                            build/lib/libm/math.o
                                                  build/py/modmath.o
ucode_repl_call_obj                               build/moducode.o
ucode_repl_compile_obj                            build/moducode.o
ucode_repl_input_obj                              build/moducode.o
ucomponent_get_doc_obj                            build/moducomponent.o
ucomponent_get_list_obj                           build/moducomponent.o
ucomponent_get_methods_obj                        build/moducomponent.o
ucomponent_get_slot_obj                           build/moducomponent.o
ucomponent_get_type_obj                           build/moducomponent.o
ucomponent_invoke_obj                             build/moducomponent.o
ucomputer_add_user_obj                            build/moducomputer.o
ucomputer_beep_obj                                build/moducomputer.o
ucomputer_crash_obj                               build/moducomputer.o
ucomputer_get_architecture_obj                    build/moducomputer.o
ucomputer_get_architectures_obj                   build/moducomputer.o
ucomputer_get_computer_address_obj                build/moducomputer.o
ucomputer_get_energy_obj                          build/moducomputer.o
ucomputer_get_last_error_obj                      build/moducomputer.o
ucomputer_get_max_energy_obj                      build/moducomputer.o
ucomputer_get_tmp_address_obj                     build/moducomputer.o
ucomputer_get_users_obj                           build/moducomputer.o
ucomputer_pop_signal_obj                          build/moducomputer.o
ucomputer_push_signal_obj                         build/moducomputer.o
ucomputer_reboot_obj                              build/moducomputer.o
ucomputer_remove_user_obj                         build/moducomputer.o
ucomputer_set_architecture_obj                    build/moducomputer.o
ucomputer_shutdown_obj                            build/moducomputer.o
uctypes_struct_addressof_obj                      build/extmod/moductypes.o
uctypes_struct_bytearray_at_obj                   build/extmod/moductypes.o
uctypes_struct_bytes_at_obj                       build/extmod/moductypes.o
uimp_new_module_obj                               build/moduimp.o
umsgpack_dumps                                    build/modumsgpack.o
umsgpack_dumps_obj                                build/modumsgpack.o
umsgpack_loads                                    build/modumsgpack.o
umsgpack_loads_obj                                build/modumsgpack.o
unichar_isalpha                                   build/py/unicode.o
                                                  build/py/repl.o
                                                  build/py/objstr.o
                                                  build/py/lexer.o
unichar_isdigit                                   build/py/unicode.o
                                                  build/extmod/modujson.o
                                                  build/py/repl.o
                                                  build/py/modstruct.o
                                                  build/py/objstr.o
                                                  build/py/lexer.o
unichar_isident                                   build/py/unicode.o
                                                  build/py/repl.o
unichar_islower                                   build/py/unicode.o
                                                  build/py/objstr.o
unichar_isspace                                   build/py/unicode.o
                                                  build/extmod/modujson.o
                                                  build/py/objstr.o
                                                  build/py/parsenum.o
                                                  build/py/lexer.o
unichar_isupper                                   build/py/unicode.o
                                                  build/py/objstr.o
unichar_isxdigit                                  build/py/unicode.o
                                                  build/extmod/modubinascii.o
                                                  build/py/lexer.o
unichar_tolower                                   build/py/unicode.o
                                                  build/py/objstr.o
unichar_toupper                                   build/py/unicode.o
                                                  build/py/objstr.o
unichar_xdigit_value                              build/py/unicode.o
                                                  build/extmod/modubinascii.o
                                                  build/py/lexer.o
utf8_charlen                                      build/py/unicode.o
                                                  build/py/modbuiltins.o
                                                  build/py/objstrunicode.o
                                                  build/py/objstr.o
utf8_check                                        build/py/unicode.o
                                                  build/py/objstr.o
utf8_get_char                                     build/py/unicode.o
                                                  build/py/modbuiltins.o
                                                  build/py/objstrunicode.o
utf8_next_char                                    build/py/unicode.o
                                                  build/py/objstrunicode.o
                                                  build/py/objstr.o
utf8_ptr_to_index                                 build/py/unicode.o
                                                  build/py/objstr.o
utime_time_cpu_obj                                build/modutime.o
utime_time_real_obj                               build/modutime.o
utime_time_up_obj                                 build/modutime.o
utime_time_world_obj                              build/modutime.o
uvalue_apply_obj                                  build/moduvalue.o
uvalue_call_obj                                   build/moduvalue.o
uvalue_dispose_obj                                build/moduvalue.o
uvalue_doc_obj                                    build/moduvalue.o
uvalue_hook_value_obj                             build/moduvalue.o
uvalue_invoke_obj                                 build/moduvalue.o
uvalue_methods_obj                                build/moduvalue.o
uvalue_new                                        build/moduvalue.o
uvalue_type                                       build/moduvalue.o
                                                  build/msgpack.o
uvalue_unapply_obj                                build/moduvalue.o
uzlib_adler32                                     build/extmod/moduzlib.o
uzlib_crc32                                       build/extmod/moduzlib.o
                                                  build/extmod/modubinascii.o
uzlib_get_byte                                    build/extmod/moduzlib.o
uzlib_gzip_parse_header                           build/extmod/moduzlib.o
uzlib_init                                        build/extmod/moduzlib.o
uzlib_uncompress                                  build/extmod/moduzlib.o
uzlib_uncompress_chksum                           build/extmod/moduzlib.o
uzlib_uncompress_init                             build/extmod/moduzlib.o
uzlib_zlib_parse_header                           build/extmod/moduzlib.o
vprintf                                           build/lib/utils/printf.o
vsnprintf                                         build/lib/utils/printf.o
vstr_add_byte                                     build/py/vstr.o
                                                  build/lib/utils/pyexec.o
                                                  build/moducode.o
                                                  build/extmod/modure.o
                                                  build/extmod/modujson.o
                                                  build/py/modio.o
                                                  build/py/objstr.o
                                                  build/py/lexer.o
vstr_add_char                                     build/py/vstr.o
                                                  build/extmod/modujson.o
                                                  build/py/builtinimport.o
                                                  build/py/lexer.o
vstr_add_len                                      build/py/vstr.o
                                                  build/py/stream.o
                                                  build/py/objstringio.o
vstr_add_str                                      build/py/vstr.o
                                                  build/lib/mp-readline/readline.o
                                                  build/extmod/vfs.o
                                                  build/py/builtinimport.o
vstr_add_strn                                     build/py/vstr.o
                                                  build/extmod/vfs.o
                                                  build/extmod/modure.o
                                                  build/py/modio.o
                                                  build/py/builtinimport.o
vstr_clear                                        build/py/vstr.o
                                                  build/lib/utils/pyexec.o
                                                  build/extmod/modujson.o
                                                  build/py/stream.o
                                                  build/py/objstr.o
                                                  build/py/lexer.o
vstr_cut_head_bytes                               build/py/vstr.o
vstr_cut_out_bytes                                build/py/vstr.o
                                                  build/lib/mp-readline/readline.o
vstr_cut_tail_bytes                               build/py/vstr.o
                                                  build/lib/mp-readline/readline.o
                                                  build/py/stream.o
                                                  build/py/lexer.o
vstr_extend                                       build/py/vstr.o
                                                  build/py/stream.o
vstr_free                                         build/py/vstr.o
                                                  build/py/objstringio.o
vstr_hint_size                                    build/py/vstr.o
vstr_init                                         build/py/vstr.o
                                                  build/lib/utils/pyexec.o
                                                  build/moducode.o
                                                  build/extmod/vfs.o
                                                  build/extmod/modubinascii.o
                                                  build/extmod/modure.o
                                                  build/extmod/modujson.o
                                                  build/py/stream.o
                                                  build/py/objstr.o
                                                  build/py/lexer.o
vstr_init_fixed_buf                               build/py/vstr.o
                                                  build/py/modio.o
                                                  build/py/builtinimport.o
                                                  build/py/objstringio.o
vstr_init_len                                     build/py/vstr.o
                                                  build/extmod/modubinascii.o
                                                  build/extmod/moduhashlib.o
                                                  build/py/modstruct.o
                                                  build/py/stream.o
                                                  build/py/objstr.o
                                                  build/py/objint.o
                                                  build/py/persistentcode.o
vstr_init_print                                   build/py/vstr.o
                                                  build/main.o
                                                  build/extmod/modujson.o
                                                  build/py/modbuiltins.o
                                                  build/py/objstr.o
                                                  build/py/parsenum.o
vstr_ins_byte                                     build/py/vstr.o
                                                  build/lib/mp-readline/readline.o
                                                  build/py/builtinimport.o
vstr_ins_char                                     build/py/vstr.o
                                                  build/lib/mp-readline/readline.o
vstr_new                                          build/py/vstr.o
                                                  build/py/objstringio.o
vstr_null_terminated_str                          build/py/vstr.o
                                                  build/lib/mp-readline/readline.o
                                                  build/lib/utils/pyexec.o
                                                  build/moducode.o
                                                  build/main.o
                                                  build/py/builtinimport.o
                                                  build/py/objstr.o
                                                  build/py/lexer.o
vstr_printf                                       build/py/vstr.o
vstr_vprintf                                      build/py/vstr.o
wrap_result                                       build/syscall.o
                                                  build/moduvalue.o
                                                  build/modutime.o
                                                  build/moducomputer.o
                                                  build/moducomponent.o
